
usart_DMA.elf:     file format elf32-littlearm

Sections:
Idx Name          Size      VMA       LMA       File off  Algn
  0 .isr_vector   00000188  08000000  08000000  00010000  2**0
                  CONTENTS, ALLOC, LOAD, READONLY, DATA
  1 .text         00005510  08000190  08000190  00010190  2**4
                  CONTENTS, ALLOC, LOAD, READONLY, CODE
  2 .rodata       0000045c  080056a0  080056a0  000156a0  2**3
                  CONTENTS, ALLOC, LOAD, READONLY, DATA
  3 .ARM.extab    00000000  08005afc  08005afc  000201d4  2**0
                  CONTENTS
  4 .ARM          00000000  08005afc  08005afc  000201d4  2**0
                  CONTENTS
  5 .preinit_array 00000000  08005afc  08005afc  000201d4  2**0
                  CONTENTS, ALLOC, LOAD, DATA
  6 .init_array   00000004  08005afc  08005afc  00015afc  2**2
                  CONTENTS, ALLOC, LOAD, DATA
  7 .fini_array   00000004  08005b00  08005b00  00015b00  2**2
                  CONTENTS, ALLOC, LOAD, DATA
  8 .data         000001d4  20000000  08005b04  00020000  2**2
                  CONTENTS, ALLOC, LOAD, DATA
  9 .bss          00000150  200001d4  08005cd8  000201d4  2**2
                  ALLOC
 10 ._user_heap_stack 00000604  20000324  08005cd8  00020324  2**0
                  ALLOC
 11 .ARM.attributes 00000030  00000000  00000000  000201d4  2**0
                  CONTENTS, READONLY
 12 .debug_info   000093bc  00000000  00000000  00020204  2**0
                  CONTENTS, READONLY, DEBUGGING, OCTETS
 13 .debug_abbrev 00001b7d  00000000  00000000  000295c0  2**0
                  CONTENTS, READONLY, DEBUGGING, OCTETS
 14 .debug_aranges 00000708  00000000  00000000  0002b140  2**3
                  CONTENTS, READONLY, DEBUGGING, OCTETS
 15 .debug_ranges 00000640  00000000  00000000  0002b848  2**3
                  CONTENTS, READONLY, DEBUGGING, OCTETS
 16 .debug_macro  0000450a  00000000  00000000  0002be88  2**0
                  CONTENTS, READONLY, DEBUGGING, OCTETS
 17 .debug_line   0000644a  00000000  00000000  00030392  2**0
                  CONTENTS, READONLY, DEBUGGING, OCTETS
 18 .debug_str    00073608  00000000  00000000  000367dc  2**0
                  CONTENTS, READONLY, DEBUGGING, OCTETS
 19 .comment      00000053  00000000  00000000  000a9de4  2**0
                  CONTENTS, READONLY
 20 .debug_frame  00002d54  00000000  00000000  000a9e38  2**2
                  CONTENTS, READONLY, DEBUGGING, OCTETS

Disassembly of section .text:

08000190 <__do_global_dtors_aux>:
 8000190:	b510      	push	{r4, lr}
 8000192:	4c05      	ldr	r4, [pc, #20]	; (80001a8 <__do_global_dtors_aux+0x18>)
 8000194:	7823      	ldrb	r3, [r4, #0]
 8000196:	b933      	cbnz	r3, 80001a6 <__do_global_dtors_aux+0x16>
 8000198:	4b04      	ldr	r3, [pc, #16]	; (80001ac <__do_global_dtors_aux+0x1c>)
 800019a:	b113      	cbz	r3, 80001a2 <__do_global_dtors_aux+0x12>
 800019c:	4804      	ldr	r0, [pc, #16]	; (80001b0 <__do_global_dtors_aux+0x20>)
 800019e:	f3af 8000 	nop.w
 80001a2:	2301      	movs	r3, #1
 80001a4:	7023      	strb	r3, [r4, #0]
 80001a6:	bd10      	pop	{r4, pc}
 80001a8:	200001d4 	.word	0x200001d4
 80001ac:	00000000 	.word	0x00000000
 80001b0:	08005688 	.word	0x08005688

080001b4 <frame_dummy>:
 80001b4:	b508      	push	{r3, lr}
 80001b6:	4b03      	ldr	r3, [pc, #12]	; (80001c4 <frame_dummy+0x10>)
 80001b8:	b11b      	cbz	r3, 80001c2 <frame_dummy+0xe>
 80001ba:	4903      	ldr	r1, [pc, #12]	; (80001c8 <frame_dummy+0x14>)
 80001bc:	4803      	ldr	r0, [pc, #12]	; (80001cc <frame_dummy+0x18>)
 80001be:	f3af 8000 	nop.w
 80001c2:	bd08      	pop	{r3, pc}
 80001c4:	00000000 	.word	0x00000000
 80001c8:	200001d8 	.word	0x200001d8
 80001cc:	08005688 	.word	0x08005688

080001d0 <strlen>:
 80001d0:	4603      	mov	r3, r0
 80001d2:	f813 2b01 	ldrb.w	r2, [r3], #1
 80001d6:	2a00      	cmp	r2, #0
 80001d8:	d1fb      	bne.n	80001d2 <strlen+0x2>
 80001da:	1a18      	subs	r0, r3, r0
 80001dc:	3801      	subs	r0, #1
 80001de:	4770      	bx	lr

080001e0 <memchr>:
 80001e0:	f001 01ff 	and.w	r1, r1, #255	; 0xff
 80001e4:	2a10      	cmp	r2, #16
 80001e6:	db2b      	blt.n	8000240 <memchr+0x60>
 80001e8:	f010 0f07 	tst.w	r0, #7
 80001ec:	d008      	beq.n	8000200 <memchr+0x20>
 80001ee:	f810 3b01 	ldrb.w	r3, [r0], #1
 80001f2:	3a01      	subs	r2, #1
 80001f4:	428b      	cmp	r3, r1
 80001f6:	d02d      	beq.n	8000254 <memchr+0x74>
 80001f8:	f010 0f07 	tst.w	r0, #7
 80001fc:	b342      	cbz	r2, 8000250 <memchr+0x70>
 80001fe:	d1f6      	bne.n	80001ee <memchr+0xe>
 8000200:	b4f0      	push	{r4, r5, r6, r7}
 8000202:	ea41 2101 	orr.w	r1, r1, r1, lsl #8
 8000206:	ea41 4101 	orr.w	r1, r1, r1, lsl #16
 800020a:	f022 0407 	bic.w	r4, r2, #7
 800020e:	f07f 0700 	mvns.w	r7, #0
 8000212:	2300      	movs	r3, #0
 8000214:	e8f0 5602 	ldrd	r5, r6, [r0], #8
 8000218:	3c08      	subs	r4, #8
 800021a:	ea85 0501 	eor.w	r5, r5, r1
 800021e:	ea86 0601 	eor.w	r6, r6, r1
 8000222:	fa85 f547 	uadd8	r5, r5, r7
 8000226:	faa3 f587 	sel	r5, r3, r7
 800022a:	fa86 f647 	uadd8	r6, r6, r7
 800022e:	faa5 f687 	sel	r6, r5, r7
 8000232:	b98e      	cbnz	r6, 8000258 <memchr+0x78>
 8000234:	d1ee      	bne.n	8000214 <memchr+0x34>
 8000236:	bcf0      	pop	{r4, r5, r6, r7}
 8000238:	f001 01ff 	and.w	r1, r1, #255	; 0xff
 800023c:	f002 0207 	and.w	r2, r2, #7
 8000240:	b132      	cbz	r2, 8000250 <memchr+0x70>
 8000242:	f810 3b01 	ldrb.w	r3, [r0], #1
 8000246:	3a01      	subs	r2, #1
 8000248:	ea83 0301 	eor.w	r3, r3, r1
 800024c:	b113      	cbz	r3, 8000254 <memchr+0x74>
 800024e:	d1f8      	bne.n	8000242 <memchr+0x62>
 8000250:	2000      	movs	r0, #0
 8000252:	4770      	bx	lr
 8000254:	3801      	subs	r0, #1
 8000256:	4770      	bx	lr
 8000258:	2d00      	cmp	r5, #0
 800025a:	bf06      	itte	eq
 800025c:	4635      	moveq	r5, r6
 800025e:	3803      	subeq	r0, #3
 8000260:	3807      	subne	r0, #7
 8000262:	f015 0f01 	tst.w	r5, #1
 8000266:	d107      	bne.n	8000278 <memchr+0x98>
 8000268:	3001      	adds	r0, #1
 800026a:	f415 7f80 	tst.w	r5, #256	; 0x100
 800026e:	bf02      	ittt	eq
 8000270:	3001      	addeq	r0, #1
 8000272:	f415 3fc0 	tsteq.w	r5, #98304	; 0x18000
 8000276:	3001      	addeq	r0, #1
 8000278:	bcf0      	pop	{r4, r5, r6, r7}
 800027a:	3801      	subs	r0, #1
 800027c:	4770      	bx	lr
 800027e:	bf00      	nop

08000280 <__aeabi_drsub>:
 8000280:	f081 4100 	eor.w	r1, r1, #2147483648	; 0x80000000
 8000284:	e002      	b.n	800028c <__adddf3>
 8000286:	bf00      	nop

08000288 <__aeabi_dsub>:
 8000288:	f083 4300 	eor.w	r3, r3, #2147483648	; 0x80000000

0800028c <__adddf3>:
 800028c:	b530      	push	{r4, r5, lr}
 800028e:	ea4f 0441 	mov.w	r4, r1, lsl #1
 8000292:	ea4f 0543 	mov.w	r5, r3, lsl #1
 8000296:	ea94 0f05 	teq	r4, r5
 800029a:	bf08      	it	eq
 800029c:	ea90 0f02 	teqeq	r0, r2
 80002a0:	bf1f      	itttt	ne
 80002a2:	ea54 0c00 	orrsne.w	ip, r4, r0
 80002a6:	ea55 0c02 	orrsne.w	ip, r5, r2
 80002aa:	ea7f 5c64 	mvnsne.w	ip, r4, asr #21
 80002ae:	ea7f 5c65 	mvnsne.w	ip, r5, asr #21
 80002b2:	f000 80e2 	beq.w	800047a <__adddf3+0x1ee>
 80002b6:	ea4f 5454 	mov.w	r4, r4, lsr #21
 80002ba:	ebd4 5555 	rsbs	r5, r4, r5, lsr #21
 80002be:	bfb8      	it	lt
 80002c0:	426d      	neglt	r5, r5
 80002c2:	dd0c      	ble.n	80002de <__adddf3+0x52>
 80002c4:	442c      	add	r4, r5
 80002c6:	ea80 0202 	eor.w	r2, r0, r2
 80002ca:	ea81 0303 	eor.w	r3, r1, r3
 80002ce:	ea82 0000 	eor.w	r0, r2, r0
 80002d2:	ea83 0101 	eor.w	r1, r3, r1
 80002d6:	ea80 0202 	eor.w	r2, r0, r2
 80002da:	ea81 0303 	eor.w	r3, r1, r3
 80002de:	2d36      	cmp	r5, #54	; 0x36
 80002e0:	bf88      	it	hi
 80002e2:	bd30      	pophi	{r4, r5, pc}
 80002e4:	f011 4f00 	tst.w	r1, #2147483648	; 0x80000000
 80002e8:	ea4f 3101 	mov.w	r1, r1, lsl #12
 80002ec:	f44f 1c80 	mov.w	ip, #1048576	; 0x100000
 80002f0:	ea4c 3111 	orr.w	r1, ip, r1, lsr #12
 80002f4:	d002      	beq.n	80002fc <__adddf3+0x70>
 80002f6:	4240      	negs	r0, r0
 80002f8:	eb61 0141 	sbc.w	r1, r1, r1, lsl #1
 80002fc:	f013 4f00 	tst.w	r3, #2147483648	; 0x80000000
 8000300:	ea4f 3303 	mov.w	r3, r3, lsl #12
 8000304:	ea4c 3313 	orr.w	r3, ip, r3, lsr #12
 8000308:	d002      	beq.n	8000310 <__adddf3+0x84>
 800030a:	4252      	negs	r2, r2
 800030c:	eb63 0343 	sbc.w	r3, r3, r3, lsl #1
 8000310:	ea94 0f05 	teq	r4, r5
 8000314:	f000 80a7 	beq.w	8000466 <__adddf3+0x1da>
 8000318:	f1a4 0401 	sub.w	r4, r4, #1
 800031c:	f1d5 0e20 	rsbs	lr, r5, #32
 8000320:	db0d      	blt.n	800033e <__adddf3+0xb2>
 8000322:	fa02 fc0e 	lsl.w	ip, r2, lr
 8000326:	fa22 f205 	lsr.w	r2, r2, r5
 800032a:	1880      	adds	r0, r0, r2
 800032c:	f141 0100 	adc.w	r1, r1, #0
 8000330:	fa03 f20e 	lsl.w	r2, r3, lr
 8000334:	1880      	adds	r0, r0, r2
 8000336:	fa43 f305 	asr.w	r3, r3, r5
 800033a:	4159      	adcs	r1, r3
 800033c:	e00e      	b.n	800035c <__adddf3+0xd0>
 800033e:	f1a5 0520 	sub.w	r5, r5, #32
 8000342:	f10e 0e20 	add.w	lr, lr, #32
 8000346:	2a01      	cmp	r2, #1
 8000348:	fa03 fc0e 	lsl.w	ip, r3, lr
 800034c:	bf28      	it	cs
 800034e:	f04c 0c02 	orrcs.w	ip, ip, #2
 8000352:	fa43 f305 	asr.w	r3, r3, r5
 8000356:	18c0      	adds	r0, r0, r3
 8000358:	eb51 71e3 	adcs.w	r1, r1, r3, asr #31
 800035c:	f001 4500 	and.w	r5, r1, #2147483648	; 0x80000000
 8000360:	d507      	bpl.n	8000372 <__adddf3+0xe6>
 8000362:	f04f 0e00 	mov.w	lr, #0
 8000366:	f1dc 0c00 	rsbs	ip, ip, #0
 800036a:	eb7e 0000 	sbcs.w	r0, lr, r0
 800036e:	eb6e 0101 	sbc.w	r1, lr, r1
 8000372:	f5b1 1f80 	cmp.w	r1, #1048576	; 0x100000
 8000376:	d31b      	bcc.n	80003b0 <__adddf3+0x124>
 8000378:	f5b1 1f00 	cmp.w	r1, #2097152	; 0x200000
 800037c:	d30c      	bcc.n	8000398 <__adddf3+0x10c>
 800037e:	0849      	lsrs	r1, r1, #1
 8000380:	ea5f 0030 	movs.w	r0, r0, rrx
 8000384:	ea4f 0c3c 	mov.w	ip, ip, rrx
 8000388:	f104 0401 	add.w	r4, r4, #1
 800038c:	ea4f 5244 	mov.w	r2, r4, lsl #21
 8000390:	f512 0f80 	cmn.w	r2, #4194304	; 0x400000
 8000394:	f080 809a 	bcs.w	80004cc <__adddf3+0x240>
 8000398:	f1bc 4f00 	cmp.w	ip, #2147483648	; 0x80000000
 800039c:	bf08      	it	eq
 800039e:	ea5f 0c50 	movseq.w	ip, r0, lsr #1
 80003a2:	f150 0000 	adcs.w	r0, r0, #0
 80003a6:	eb41 5104 	adc.w	r1, r1, r4, lsl #20
 80003aa:	ea41 0105 	orr.w	r1, r1, r5
 80003ae:	bd30      	pop	{r4, r5, pc}
 80003b0:	ea5f 0c4c 	movs.w	ip, ip, lsl #1
 80003b4:	4140      	adcs	r0, r0
 80003b6:	eb41 0101 	adc.w	r1, r1, r1
 80003ba:	3c01      	subs	r4, #1
 80003bc:	bf28      	it	cs
 80003be:	f5b1 1f80 	cmpcs.w	r1, #1048576	; 0x100000
 80003c2:	d2e9      	bcs.n	8000398 <__adddf3+0x10c>
 80003c4:	f091 0f00 	teq	r1, #0
 80003c8:	bf04      	itt	eq
 80003ca:	4601      	moveq	r1, r0
 80003cc:	2000      	moveq	r0, #0
 80003ce:	fab1 f381 	clz	r3, r1
 80003d2:	bf08      	it	eq
 80003d4:	3320      	addeq	r3, #32
 80003d6:	f1a3 030b 	sub.w	r3, r3, #11
 80003da:	f1b3 0220 	subs.w	r2, r3, #32
 80003de:	da0c      	bge.n	80003fa <__adddf3+0x16e>
 80003e0:	320c      	adds	r2, #12
 80003e2:	dd08      	ble.n	80003f6 <__adddf3+0x16a>
 80003e4:	f102 0c14 	add.w	ip, r2, #20
 80003e8:	f1c2 020c 	rsb	r2, r2, #12
 80003ec:	fa01 f00c 	lsl.w	r0, r1, ip
 80003f0:	fa21 f102 	lsr.w	r1, r1, r2
 80003f4:	e00c      	b.n	8000410 <__adddf3+0x184>
 80003f6:	f102 0214 	add.w	r2, r2, #20
 80003fa:	bfd8      	it	le
 80003fc:	f1c2 0c20 	rsble	ip, r2, #32
 8000400:	fa01 f102 	lsl.w	r1, r1, r2
 8000404:	fa20 fc0c 	lsr.w	ip, r0, ip
 8000408:	bfdc      	itt	le
 800040a:	ea41 010c 	orrle.w	r1, r1, ip
 800040e:	4090      	lslle	r0, r2
 8000410:	1ae4      	subs	r4, r4, r3
 8000412:	bfa2      	ittt	ge
 8000414:	eb01 5104 	addge.w	r1, r1, r4, lsl #20
 8000418:	4329      	orrge	r1, r5
 800041a:	bd30      	popge	{r4, r5, pc}
 800041c:	ea6f 0404 	mvn.w	r4, r4
 8000420:	3c1f      	subs	r4, #31
 8000422:	da1c      	bge.n	800045e <__adddf3+0x1d2>
 8000424:	340c      	adds	r4, #12
 8000426:	dc0e      	bgt.n	8000446 <__adddf3+0x1ba>
 8000428:	f104 0414 	add.w	r4, r4, #20
 800042c:	f1c4 0220 	rsb	r2, r4, #32
 8000430:	fa20 f004 	lsr.w	r0, r0, r4
 8000434:	fa01 f302 	lsl.w	r3, r1, r2
 8000438:	ea40 0003 	orr.w	r0, r0, r3
 800043c:	fa21 f304 	lsr.w	r3, r1, r4
 8000440:	ea45 0103 	orr.w	r1, r5, r3
 8000444:	bd30      	pop	{r4, r5, pc}
 8000446:	f1c4 040c 	rsb	r4, r4, #12
 800044a:	f1c4 0220 	rsb	r2, r4, #32
 800044e:	fa20 f002 	lsr.w	r0, r0, r2
 8000452:	fa01 f304 	lsl.w	r3, r1, r4
 8000456:	ea40 0003 	orr.w	r0, r0, r3
 800045a:	4629      	mov	r1, r5
 800045c:	bd30      	pop	{r4, r5, pc}
 800045e:	fa21 f004 	lsr.w	r0, r1, r4
 8000462:	4629      	mov	r1, r5
 8000464:	bd30      	pop	{r4, r5, pc}
 8000466:	f094 0f00 	teq	r4, #0
 800046a:	f483 1380 	eor.w	r3, r3, #1048576	; 0x100000
 800046e:	bf06      	itte	eq
 8000470:	f481 1180 	eoreq.w	r1, r1, #1048576	; 0x100000
 8000474:	3401      	addeq	r4, #1
 8000476:	3d01      	subne	r5, #1
 8000478:	e74e      	b.n	8000318 <__adddf3+0x8c>
 800047a:	ea7f 5c64 	mvns.w	ip, r4, asr #21
 800047e:	bf18      	it	ne
 8000480:	ea7f 5c65 	mvnsne.w	ip, r5, asr #21
 8000484:	d029      	beq.n	80004da <__adddf3+0x24e>
 8000486:	ea94 0f05 	teq	r4, r5
 800048a:	bf08      	it	eq
 800048c:	ea90 0f02 	teqeq	r0, r2
 8000490:	d005      	beq.n	800049e <__adddf3+0x212>
 8000492:	ea54 0c00 	orrs.w	ip, r4, r0
 8000496:	bf04      	itt	eq
 8000498:	4619      	moveq	r1, r3
 800049a:	4610      	moveq	r0, r2
 800049c:	bd30      	pop	{r4, r5, pc}
 800049e:	ea91 0f03 	teq	r1, r3
 80004a2:	bf1e      	ittt	ne
 80004a4:	2100      	movne	r1, #0
 80004a6:	2000      	movne	r0, #0
 80004a8:	bd30      	popne	{r4, r5, pc}
 80004aa:	ea5f 5c54 	movs.w	ip, r4, lsr #21
 80004ae:	d105      	bne.n	80004bc <__adddf3+0x230>
 80004b0:	0040      	lsls	r0, r0, #1
 80004b2:	4149      	adcs	r1, r1
 80004b4:	bf28      	it	cs
 80004b6:	f041 4100 	orrcs.w	r1, r1, #2147483648	; 0x80000000
 80004ba:	bd30      	pop	{r4, r5, pc}
 80004bc:	f514 0480 	adds.w	r4, r4, #4194304	; 0x400000
 80004c0:	bf3c      	itt	cc
 80004c2:	f501 1180 	addcc.w	r1, r1, #1048576	; 0x100000
 80004c6:	bd30      	popcc	{r4, r5, pc}
 80004c8:	f001 4500 	and.w	r5, r1, #2147483648	; 0x80000000
 80004cc:	f045 41fe 	orr.w	r1, r5, #2130706432	; 0x7f000000
 80004d0:	f441 0170 	orr.w	r1, r1, #15728640	; 0xf00000
 80004d4:	f04f 0000 	mov.w	r0, #0
 80004d8:	bd30      	pop	{r4, r5, pc}
 80004da:	ea7f 5c64 	mvns.w	ip, r4, asr #21
 80004de:	bf1a      	itte	ne
 80004e0:	4619      	movne	r1, r3
 80004e2:	4610      	movne	r0, r2
 80004e4:	ea7f 5c65 	mvnseq.w	ip, r5, asr #21
 80004e8:	bf1c      	itt	ne
 80004ea:	460b      	movne	r3, r1
 80004ec:	4602      	movne	r2, r0
 80004ee:	ea50 3401 	orrs.w	r4, r0, r1, lsl #12
 80004f2:	bf06      	itte	eq
 80004f4:	ea52 3503 	orrseq.w	r5, r2, r3, lsl #12
 80004f8:	ea91 0f03 	teqeq	r1, r3
 80004fc:	f441 2100 	orrne.w	r1, r1, #524288	; 0x80000
 8000500:	bd30      	pop	{r4, r5, pc}
 8000502:	bf00      	nop

08000504 <__aeabi_ui2d>:
 8000504:	f090 0f00 	teq	r0, #0
 8000508:	bf04      	itt	eq
 800050a:	2100      	moveq	r1, #0
 800050c:	4770      	bxeq	lr
 800050e:	b530      	push	{r4, r5, lr}
 8000510:	f44f 6480 	mov.w	r4, #1024	; 0x400
 8000514:	f104 0432 	add.w	r4, r4, #50	; 0x32
 8000518:	f04f 0500 	mov.w	r5, #0
 800051c:	f04f 0100 	mov.w	r1, #0
 8000520:	e750      	b.n	80003c4 <__adddf3+0x138>
 8000522:	bf00      	nop

08000524 <__aeabi_i2d>:
 8000524:	f090 0f00 	teq	r0, #0
 8000528:	bf04      	itt	eq
 800052a:	2100      	moveq	r1, #0
 800052c:	4770      	bxeq	lr
 800052e:	b530      	push	{r4, r5, lr}
 8000530:	f44f 6480 	mov.w	r4, #1024	; 0x400
 8000534:	f104 0432 	add.w	r4, r4, #50	; 0x32
 8000538:	f010 4500 	ands.w	r5, r0, #2147483648	; 0x80000000
 800053c:	bf48      	it	mi
 800053e:	4240      	negmi	r0, r0
 8000540:	f04f 0100 	mov.w	r1, #0
 8000544:	e73e      	b.n	80003c4 <__adddf3+0x138>
 8000546:	bf00      	nop

08000548 <__aeabi_f2d>:
 8000548:	0042      	lsls	r2, r0, #1
 800054a:	ea4f 01e2 	mov.w	r1, r2, asr #3
 800054e:	ea4f 0131 	mov.w	r1, r1, rrx
 8000552:	ea4f 7002 	mov.w	r0, r2, lsl #28
 8000556:	bf1f      	itttt	ne
 8000558:	f012 437f 	andsne.w	r3, r2, #4278190080	; 0xff000000
 800055c:	f093 4f7f 	teqne	r3, #4278190080	; 0xff000000
 8000560:	f081 5160 	eorne.w	r1, r1, #939524096	; 0x38000000
 8000564:	4770      	bxne	lr
 8000566:	f032 427f 	bics.w	r2, r2, #4278190080	; 0xff000000
 800056a:	bf08      	it	eq
 800056c:	4770      	bxeq	lr
 800056e:	f093 4f7f 	teq	r3, #4278190080	; 0xff000000
 8000572:	bf04      	itt	eq
 8000574:	f441 2100 	orreq.w	r1, r1, #524288	; 0x80000
 8000578:	4770      	bxeq	lr
 800057a:	b530      	push	{r4, r5, lr}
 800057c:	f44f 7460 	mov.w	r4, #896	; 0x380
 8000580:	f001 4500 	and.w	r5, r1, #2147483648	; 0x80000000
 8000584:	f021 4100 	bic.w	r1, r1, #2147483648	; 0x80000000
 8000588:	e71c      	b.n	80003c4 <__adddf3+0x138>
 800058a:	bf00      	nop

0800058c <__aeabi_ul2d>:
 800058c:	ea50 0201 	orrs.w	r2, r0, r1
 8000590:	bf08      	it	eq
 8000592:	4770      	bxeq	lr
 8000594:	b530      	push	{r4, r5, lr}
 8000596:	f04f 0500 	mov.w	r5, #0
 800059a:	e00a      	b.n	80005b2 <__aeabi_l2d+0x16>

0800059c <__aeabi_l2d>:
 800059c:	ea50 0201 	orrs.w	r2, r0, r1
 80005a0:	bf08      	it	eq
 80005a2:	4770      	bxeq	lr
 80005a4:	b530      	push	{r4, r5, lr}
 80005a6:	f011 4500 	ands.w	r5, r1, #2147483648	; 0x80000000
 80005aa:	d502      	bpl.n	80005b2 <__aeabi_l2d+0x16>
 80005ac:	4240      	negs	r0, r0
 80005ae:	eb61 0141 	sbc.w	r1, r1, r1, lsl #1
 80005b2:	f44f 6480 	mov.w	r4, #1024	; 0x400
 80005b6:	f104 0432 	add.w	r4, r4, #50	; 0x32
 80005ba:	ea5f 5c91 	movs.w	ip, r1, lsr #22
 80005be:	f43f aed8 	beq.w	8000372 <__adddf3+0xe6>
 80005c2:	f04f 0203 	mov.w	r2, #3
 80005c6:	ea5f 0cdc 	movs.w	ip, ip, lsr #3
 80005ca:	bf18      	it	ne
 80005cc:	3203      	addne	r2, #3
 80005ce:	ea5f 0cdc 	movs.w	ip, ip, lsr #3
 80005d2:	bf18      	it	ne
 80005d4:	3203      	addne	r2, #3
 80005d6:	eb02 02dc 	add.w	r2, r2, ip, lsr #3
 80005da:	f1c2 0320 	rsb	r3, r2, #32
 80005de:	fa00 fc03 	lsl.w	ip, r0, r3
 80005e2:	fa20 f002 	lsr.w	r0, r0, r2
 80005e6:	fa01 fe03 	lsl.w	lr, r1, r3
 80005ea:	ea40 000e 	orr.w	r0, r0, lr
 80005ee:	fa21 f102 	lsr.w	r1, r1, r2
 80005f2:	4414      	add	r4, r2
 80005f4:	e6bd      	b.n	8000372 <__adddf3+0xe6>
 80005f6:	bf00      	nop

080005f8 <__aeabi_dmul>:
 80005f8:	b570      	push	{r4, r5, r6, lr}
 80005fa:	f04f 0cff 	mov.w	ip, #255	; 0xff
 80005fe:	f44c 6ce0 	orr.w	ip, ip, #1792	; 0x700
 8000602:	ea1c 5411 	ands.w	r4, ip, r1, lsr #20
 8000606:	bf1d      	ittte	ne
 8000608:	ea1c 5513 	andsne.w	r5, ip, r3, lsr #20
 800060c:	ea94 0f0c 	teqne	r4, ip
 8000610:	ea95 0f0c 	teqne	r5, ip
 8000614:	f000 f8de 	bleq	80007d4 <__aeabi_dmul+0x1dc>
 8000618:	442c      	add	r4, r5
 800061a:	ea81 0603 	eor.w	r6, r1, r3
 800061e:	ea21 514c 	bic.w	r1, r1, ip, lsl #21
 8000622:	ea23 534c 	bic.w	r3, r3, ip, lsl #21
 8000626:	ea50 3501 	orrs.w	r5, r0, r1, lsl #12
 800062a:	bf18      	it	ne
 800062c:	ea52 3503 	orrsne.w	r5, r2, r3, lsl #12
 8000630:	f441 1180 	orr.w	r1, r1, #1048576	; 0x100000
 8000634:	f443 1380 	orr.w	r3, r3, #1048576	; 0x100000
 8000638:	d038      	beq.n	80006ac <__aeabi_dmul+0xb4>
 800063a:	fba0 ce02 	umull	ip, lr, r0, r2
 800063e:	f04f 0500 	mov.w	r5, #0
 8000642:	fbe1 e502 	umlal	lr, r5, r1, r2
 8000646:	f006 4200 	and.w	r2, r6, #2147483648	; 0x80000000
 800064a:	fbe0 e503 	umlal	lr, r5, r0, r3
 800064e:	f04f 0600 	mov.w	r6, #0
 8000652:	fbe1 5603 	umlal	r5, r6, r1, r3
 8000656:	f09c 0f00 	teq	ip, #0
 800065a:	bf18      	it	ne
 800065c:	f04e 0e01 	orrne.w	lr, lr, #1
 8000660:	f1a4 04ff 	sub.w	r4, r4, #255	; 0xff
 8000664:	f5b6 7f00 	cmp.w	r6, #512	; 0x200
 8000668:	f564 7440 	sbc.w	r4, r4, #768	; 0x300
 800066c:	d204      	bcs.n	8000678 <__aeabi_dmul+0x80>
 800066e:	ea5f 0e4e 	movs.w	lr, lr, lsl #1
 8000672:	416d      	adcs	r5, r5
 8000674:	eb46 0606 	adc.w	r6, r6, r6
 8000678:	ea42 21c6 	orr.w	r1, r2, r6, lsl #11
 800067c:	ea41 5155 	orr.w	r1, r1, r5, lsr #21
 8000680:	ea4f 20c5 	mov.w	r0, r5, lsl #11
 8000684:	ea40 505e 	orr.w	r0, r0, lr, lsr #21
 8000688:	ea4f 2ece 	mov.w	lr, lr, lsl #11
 800068c:	f1b4 0cfd 	subs.w	ip, r4, #253	; 0xfd
 8000690:	bf88      	it	hi
 8000692:	f5bc 6fe0 	cmphi.w	ip, #1792	; 0x700
 8000696:	d81e      	bhi.n	80006d6 <__aeabi_dmul+0xde>
 8000698:	f1be 4f00 	cmp.w	lr, #2147483648	; 0x80000000
 800069c:	bf08      	it	eq
 800069e:	ea5f 0e50 	movseq.w	lr, r0, lsr #1
 80006a2:	f150 0000 	adcs.w	r0, r0, #0
 80006a6:	eb41 5104 	adc.w	r1, r1, r4, lsl #20
 80006aa:	bd70      	pop	{r4, r5, r6, pc}
 80006ac:	f006 4600 	and.w	r6, r6, #2147483648	; 0x80000000
 80006b0:	ea46 0101 	orr.w	r1, r6, r1
 80006b4:	ea40 0002 	orr.w	r0, r0, r2
 80006b8:	ea81 0103 	eor.w	r1, r1, r3
 80006bc:	ebb4 045c 	subs.w	r4, r4, ip, lsr #1
 80006c0:	bfc2      	ittt	gt
 80006c2:	ebd4 050c 	rsbsgt	r5, r4, ip
 80006c6:	ea41 5104 	orrgt.w	r1, r1, r4, lsl #20
 80006ca:	bd70      	popgt	{r4, r5, r6, pc}
 80006cc:	f441 1180 	orr.w	r1, r1, #1048576	; 0x100000
 80006d0:	f04f 0e00 	mov.w	lr, #0
 80006d4:	3c01      	subs	r4, #1
 80006d6:	f300 80ab 	bgt.w	8000830 <__aeabi_dmul+0x238>
 80006da:	f114 0f36 	cmn.w	r4, #54	; 0x36
 80006de:	bfde      	ittt	le
 80006e0:	2000      	movle	r0, #0
 80006e2:	f001 4100 	andle.w	r1, r1, #2147483648	; 0x80000000
 80006e6:	bd70      	pople	{r4, r5, r6, pc}
 80006e8:	f1c4 0400 	rsb	r4, r4, #0
 80006ec:	3c20      	subs	r4, #32
 80006ee:	da35      	bge.n	800075c <__aeabi_dmul+0x164>
 80006f0:	340c      	adds	r4, #12
 80006f2:	dc1b      	bgt.n	800072c <__aeabi_dmul+0x134>
 80006f4:	f104 0414 	add.w	r4, r4, #20
 80006f8:	f1c4 0520 	rsb	r5, r4, #32
 80006fc:	fa00 f305 	lsl.w	r3, r0, r5
 8000700:	fa20 f004 	lsr.w	r0, r0, r4
 8000704:	fa01 f205 	lsl.w	r2, r1, r5
 8000708:	ea40 0002 	orr.w	r0, r0, r2
 800070c:	f001 4200 	and.w	r2, r1, #2147483648	; 0x80000000
 8000710:	f021 4100 	bic.w	r1, r1, #2147483648	; 0x80000000
 8000714:	eb10 70d3 	adds.w	r0, r0, r3, lsr #31
 8000718:	fa21 f604 	lsr.w	r6, r1, r4
 800071c:	eb42 0106 	adc.w	r1, r2, r6
 8000720:	ea5e 0e43 	orrs.w	lr, lr, r3, lsl #1
 8000724:	bf08      	it	eq
 8000726:	ea20 70d3 	biceq.w	r0, r0, r3, lsr #31
 800072a:	bd70      	pop	{r4, r5, r6, pc}
 800072c:	f1c4 040c 	rsb	r4, r4, #12
 8000730:	f1c4 0520 	rsb	r5, r4, #32
 8000734:	fa00 f304 	lsl.w	r3, r0, r4
 8000738:	fa20 f005 	lsr.w	r0, r0, r5
 800073c:	fa01 f204 	lsl.w	r2, r1, r4
 8000740:	ea40 0002 	orr.w	r0, r0, r2
 8000744:	f001 4100 	and.w	r1, r1, #2147483648	; 0x80000000
 8000748:	eb10 70d3 	adds.w	r0, r0, r3, lsr #31
 800074c:	f141 0100 	adc.w	r1, r1, #0
 8000750:	ea5e 0e43 	orrs.w	lr, lr, r3, lsl #1
 8000754:	bf08      	it	eq
 8000756:	ea20 70d3 	biceq.w	r0, r0, r3, lsr #31
 800075a:	bd70      	pop	{r4, r5, r6, pc}
 800075c:	f1c4 0520 	rsb	r5, r4, #32
 8000760:	fa00 f205 	lsl.w	r2, r0, r5
 8000764:	ea4e 0e02 	orr.w	lr, lr, r2
 8000768:	fa20 f304 	lsr.w	r3, r0, r4
 800076c:	fa01 f205 	lsl.w	r2, r1, r5
 8000770:	ea43 0302 	orr.w	r3, r3, r2
 8000774:	fa21 f004 	lsr.w	r0, r1, r4
 8000778:	f001 4100 	and.w	r1, r1, #2147483648	; 0x80000000
 800077c:	fa21 f204 	lsr.w	r2, r1, r4
 8000780:	ea20 0002 	bic.w	r0, r0, r2
 8000784:	eb00 70d3 	add.w	r0, r0, r3, lsr #31
 8000788:	ea5e 0e43 	orrs.w	lr, lr, r3, lsl #1
 800078c:	bf08      	it	eq
 800078e:	ea20 70d3 	biceq.w	r0, r0, r3, lsr #31
 8000792:	bd70      	pop	{r4, r5, r6, pc}
 8000794:	f094 0f00 	teq	r4, #0
 8000798:	d10f      	bne.n	80007ba <__aeabi_dmul+0x1c2>
 800079a:	f001 4600 	and.w	r6, r1, #2147483648	; 0x80000000
 800079e:	0040      	lsls	r0, r0, #1
 80007a0:	eb41 0101 	adc.w	r1, r1, r1
 80007a4:	f411 1f80 	tst.w	r1, #1048576	; 0x100000
 80007a8:	bf08      	it	eq
 80007aa:	3c01      	subeq	r4, #1
 80007ac:	d0f7      	beq.n	800079e <__aeabi_dmul+0x1a6>
 80007ae:	ea41 0106 	orr.w	r1, r1, r6
 80007b2:	f095 0f00 	teq	r5, #0
 80007b6:	bf18      	it	ne
 80007b8:	4770      	bxne	lr
 80007ba:	f003 4600 	and.w	r6, r3, #2147483648	; 0x80000000
 80007be:	0052      	lsls	r2, r2, #1
 80007c0:	eb43 0303 	adc.w	r3, r3, r3
 80007c4:	f413 1f80 	tst.w	r3, #1048576	; 0x100000
 80007c8:	bf08      	it	eq
 80007ca:	3d01      	subeq	r5, #1
 80007cc:	d0f7      	beq.n	80007be <__aeabi_dmul+0x1c6>
 80007ce:	ea43 0306 	orr.w	r3, r3, r6
 80007d2:	4770      	bx	lr
 80007d4:	ea94 0f0c 	teq	r4, ip
 80007d8:	ea0c 5513 	and.w	r5, ip, r3, lsr #20
 80007dc:	bf18      	it	ne
 80007de:	ea95 0f0c 	teqne	r5, ip
 80007e2:	d00c      	beq.n	80007fe <__aeabi_dmul+0x206>
 80007e4:	ea50 0641 	orrs.w	r6, r0, r1, lsl #1
 80007e8:	bf18      	it	ne
 80007ea:	ea52 0643 	orrsne.w	r6, r2, r3, lsl #1
 80007ee:	d1d1      	bne.n	8000794 <__aeabi_dmul+0x19c>
 80007f0:	ea81 0103 	eor.w	r1, r1, r3
 80007f4:	f001 4100 	and.w	r1, r1, #2147483648	; 0x80000000
 80007f8:	f04f 0000 	mov.w	r0, #0
 80007fc:	bd70      	pop	{r4, r5, r6, pc}
 80007fe:	ea50 0641 	orrs.w	r6, r0, r1, lsl #1
 8000802:	bf06      	itte	eq
 8000804:	4610      	moveq	r0, r2
 8000806:	4619      	moveq	r1, r3
 8000808:	ea52 0643 	orrsne.w	r6, r2, r3, lsl #1
 800080c:	d019      	beq.n	8000842 <__aeabi_dmul+0x24a>
 800080e:	ea94 0f0c 	teq	r4, ip
 8000812:	d102      	bne.n	800081a <__aeabi_dmul+0x222>
 8000814:	ea50 3601 	orrs.w	r6, r0, r1, lsl #12
 8000818:	d113      	bne.n	8000842 <__aeabi_dmul+0x24a>
 800081a:	ea95 0f0c 	teq	r5, ip
 800081e:	d105      	bne.n	800082c <__aeabi_dmul+0x234>
 8000820:	ea52 3603 	orrs.w	r6, r2, r3, lsl #12
 8000824:	bf1c      	itt	ne
 8000826:	4610      	movne	r0, r2
 8000828:	4619      	movne	r1, r3
 800082a:	d10a      	bne.n	8000842 <__aeabi_dmul+0x24a>
 800082c:	ea81 0103 	eor.w	r1, r1, r3
 8000830:	f001 4100 	and.w	r1, r1, #2147483648	; 0x80000000
 8000834:	f041 41fe 	orr.w	r1, r1, #2130706432	; 0x7f000000
 8000838:	f441 0170 	orr.w	r1, r1, #15728640	; 0xf00000
 800083c:	f04f 0000 	mov.w	r0, #0
 8000840:	bd70      	pop	{r4, r5, r6, pc}
 8000842:	f041 41fe 	orr.w	r1, r1, #2130706432	; 0x7f000000
 8000846:	f441 0178 	orr.w	r1, r1, #16252928	; 0xf80000
 800084a:	bd70      	pop	{r4, r5, r6, pc}

0800084c <__aeabi_ddiv>:
 800084c:	b570      	push	{r4, r5, r6, lr}
 800084e:	f04f 0cff 	mov.w	ip, #255	; 0xff
 8000852:	f44c 6ce0 	orr.w	ip, ip, #1792	; 0x700
 8000856:	ea1c 5411 	ands.w	r4, ip, r1, lsr #20
 800085a:	bf1d      	ittte	ne
 800085c:	ea1c 5513 	andsne.w	r5, ip, r3, lsr #20
 8000860:	ea94 0f0c 	teqne	r4, ip
 8000864:	ea95 0f0c 	teqne	r5, ip
 8000868:	f000 f8a7 	bleq	80009ba <__aeabi_ddiv+0x16e>
 800086c:	eba4 0405 	sub.w	r4, r4, r5
 8000870:	ea81 0e03 	eor.w	lr, r1, r3
 8000874:	ea52 3503 	orrs.w	r5, r2, r3, lsl #12
 8000878:	ea4f 3101 	mov.w	r1, r1, lsl #12
 800087c:	f000 8088 	beq.w	8000990 <__aeabi_ddiv+0x144>
 8000880:	ea4f 3303 	mov.w	r3, r3, lsl #12
 8000884:	f04f 5580 	mov.w	r5, #268435456	; 0x10000000
 8000888:	ea45 1313 	orr.w	r3, r5, r3, lsr #4
 800088c:	ea43 6312 	orr.w	r3, r3, r2, lsr #24
 8000890:	ea4f 2202 	mov.w	r2, r2, lsl #8
 8000894:	ea45 1511 	orr.w	r5, r5, r1, lsr #4
 8000898:	ea45 6510 	orr.w	r5, r5, r0, lsr #24
 800089c:	ea4f 2600 	mov.w	r6, r0, lsl #8
 80008a0:	f00e 4100 	and.w	r1, lr, #2147483648	; 0x80000000
 80008a4:	429d      	cmp	r5, r3
 80008a6:	bf08      	it	eq
 80008a8:	4296      	cmpeq	r6, r2
 80008aa:	f144 04fd 	adc.w	r4, r4, #253	; 0xfd
 80008ae:	f504 7440 	add.w	r4, r4, #768	; 0x300
 80008b2:	d202      	bcs.n	80008ba <__aeabi_ddiv+0x6e>
 80008b4:	085b      	lsrs	r3, r3, #1
 80008b6:	ea4f 0232 	mov.w	r2, r2, rrx
 80008ba:	1ab6      	subs	r6, r6, r2
 80008bc:	eb65 0503 	sbc.w	r5, r5, r3
 80008c0:	085b      	lsrs	r3, r3, #1
 80008c2:	ea4f 0232 	mov.w	r2, r2, rrx
 80008c6:	f44f 1080 	mov.w	r0, #1048576	; 0x100000
 80008ca:	f44f 2c00 	mov.w	ip, #524288	; 0x80000
 80008ce:	ebb6 0e02 	subs.w	lr, r6, r2
 80008d2:	eb75 0e03 	sbcs.w	lr, r5, r3
 80008d6:	bf22      	ittt	cs
 80008d8:	1ab6      	subcs	r6, r6, r2
 80008da:	4675      	movcs	r5, lr
 80008dc:	ea40 000c 	orrcs.w	r0, r0, ip
 80008e0:	085b      	lsrs	r3, r3, #1
 80008e2:	ea4f 0232 	mov.w	r2, r2, rrx
 80008e6:	ebb6 0e02 	subs.w	lr, r6, r2
 80008ea:	eb75 0e03 	sbcs.w	lr, r5, r3
 80008ee:	bf22      	ittt	cs
 80008f0:	1ab6      	subcs	r6, r6, r2
 80008f2:	4675      	movcs	r5, lr
 80008f4:	ea40 005c 	orrcs.w	r0, r0, ip, lsr #1
 80008f8:	085b      	lsrs	r3, r3, #1
 80008fa:	ea4f 0232 	mov.w	r2, r2, rrx
 80008fe:	ebb6 0e02 	subs.w	lr, r6, r2
 8000902:	eb75 0e03 	sbcs.w	lr, r5, r3
 8000906:	bf22      	ittt	cs
 8000908:	1ab6      	subcs	r6, r6, r2
 800090a:	4675      	movcs	r5, lr
 800090c:	ea40 009c 	orrcs.w	r0, r0, ip, lsr #2
 8000910:	085b      	lsrs	r3, r3, #1
 8000912:	ea4f 0232 	mov.w	r2, r2, rrx
 8000916:	ebb6 0e02 	subs.w	lr, r6, r2
 800091a:	eb75 0e03 	sbcs.w	lr, r5, r3
 800091e:	bf22      	ittt	cs
 8000920:	1ab6      	subcs	r6, r6, r2
 8000922:	4675      	movcs	r5, lr
 8000924:	ea40 00dc 	orrcs.w	r0, r0, ip, lsr #3
 8000928:	ea55 0e06 	orrs.w	lr, r5, r6
 800092c:	d018      	beq.n	8000960 <__aeabi_ddiv+0x114>
 800092e:	ea4f 1505 	mov.w	r5, r5, lsl #4
 8000932:	ea45 7516 	orr.w	r5, r5, r6, lsr #28
 8000936:	ea4f 1606 	mov.w	r6, r6, lsl #4
 800093a:	ea4f 03c3 	mov.w	r3, r3, lsl #3
 800093e:	ea43 7352 	orr.w	r3, r3, r2, lsr #29
 8000942:	ea4f 02c2 	mov.w	r2, r2, lsl #3
 8000946:	ea5f 1c1c 	movs.w	ip, ip, lsr #4
 800094a:	d1c0      	bne.n	80008ce <__aeabi_ddiv+0x82>
 800094c:	f411 1f80 	tst.w	r1, #1048576	; 0x100000
 8000950:	d10b      	bne.n	800096a <__aeabi_ddiv+0x11e>
 8000952:	ea41 0100 	orr.w	r1, r1, r0
 8000956:	f04f 0000 	mov.w	r0, #0
 800095a:	f04f 4c00 	mov.w	ip, #2147483648	; 0x80000000
 800095e:	e7b6      	b.n	80008ce <__aeabi_ddiv+0x82>
 8000960:	f411 1f80 	tst.w	r1, #1048576	; 0x100000
 8000964:	bf04      	itt	eq
 8000966:	4301      	orreq	r1, r0
 8000968:	2000      	moveq	r0, #0
 800096a:	f1b4 0cfd 	subs.w	ip, r4, #253	; 0xfd
 800096e:	bf88      	it	hi
 8000970:	f5bc 6fe0 	cmphi.w	ip, #1792	; 0x700
 8000974:	f63f aeaf 	bhi.w	80006d6 <__aeabi_dmul+0xde>
 8000978:	ebb5 0c03 	subs.w	ip, r5, r3
 800097c:	bf04      	itt	eq
 800097e:	ebb6 0c02 	subseq.w	ip, r6, r2
 8000982:	ea5f 0c50 	movseq.w	ip, r0, lsr #1
 8000986:	f150 0000 	adcs.w	r0, r0, #0
 800098a:	eb41 5104 	adc.w	r1, r1, r4, lsl #20
 800098e:	bd70      	pop	{r4, r5, r6, pc}
 8000990:	f00e 4e00 	and.w	lr, lr, #2147483648	; 0x80000000
 8000994:	ea4e 3111 	orr.w	r1, lr, r1, lsr #12
 8000998:	eb14 045c 	adds.w	r4, r4, ip, lsr #1
 800099c:	bfc2      	ittt	gt
 800099e:	ebd4 050c 	rsbsgt	r5, r4, ip
 80009a2:	ea41 5104 	orrgt.w	r1, r1, r4, lsl #20
 80009a6:	bd70      	popgt	{r4, r5, r6, pc}
 80009a8:	f441 1180 	orr.w	r1, r1, #1048576	; 0x100000
 80009ac:	f04f 0e00 	mov.w	lr, #0
 80009b0:	3c01      	subs	r4, #1
 80009b2:	e690      	b.n	80006d6 <__aeabi_dmul+0xde>
 80009b4:	ea45 0e06 	orr.w	lr, r5, r6
 80009b8:	e68d      	b.n	80006d6 <__aeabi_dmul+0xde>
 80009ba:	ea0c 5513 	and.w	r5, ip, r3, lsr #20
 80009be:	ea94 0f0c 	teq	r4, ip
 80009c2:	bf08      	it	eq
 80009c4:	ea95 0f0c 	teqeq	r5, ip
 80009c8:	f43f af3b 	beq.w	8000842 <__aeabi_dmul+0x24a>
 80009cc:	ea94 0f0c 	teq	r4, ip
 80009d0:	d10a      	bne.n	80009e8 <__aeabi_ddiv+0x19c>
 80009d2:	ea50 3401 	orrs.w	r4, r0, r1, lsl #12
 80009d6:	f47f af34 	bne.w	8000842 <__aeabi_dmul+0x24a>
 80009da:	ea95 0f0c 	teq	r5, ip
 80009de:	f47f af25 	bne.w	800082c <__aeabi_dmul+0x234>
 80009e2:	4610      	mov	r0, r2
 80009e4:	4619      	mov	r1, r3
 80009e6:	e72c      	b.n	8000842 <__aeabi_dmul+0x24a>
 80009e8:	ea95 0f0c 	teq	r5, ip
 80009ec:	d106      	bne.n	80009fc <__aeabi_ddiv+0x1b0>
 80009ee:	ea52 3503 	orrs.w	r5, r2, r3, lsl #12
 80009f2:	f43f aefd 	beq.w	80007f0 <__aeabi_dmul+0x1f8>
 80009f6:	4610      	mov	r0, r2
 80009f8:	4619      	mov	r1, r3
 80009fa:	e722      	b.n	8000842 <__aeabi_dmul+0x24a>
 80009fc:	ea50 0641 	orrs.w	r6, r0, r1, lsl #1
 8000a00:	bf18      	it	ne
 8000a02:	ea52 0643 	orrsne.w	r6, r2, r3, lsl #1
 8000a06:	f47f aec5 	bne.w	8000794 <__aeabi_dmul+0x19c>
 8000a0a:	ea50 0441 	orrs.w	r4, r0, r1, lsl #1
 8000a0e:	f47f af0d 	bne.w	800082c <__aeabi_dmul+0x234>
 8000a12:	ea52 0543 	orrs.w	r5, r2, r3, lsl #1
 8000a16:	f47f aeeb 	bne.w	80007f0 <__aeabi_dmul+0x1f8>
 8000a1a:	e712      	b.n	8000842 <__aeabi_dmul+0x24a>

08000a1c <__gedf2>:
 8000a1c:	f04f 3cff 	mov.w	ip, #4294967295
 8000a20:	e006      	b.n	8000a30 <__cmpdf2+0x4>
 8000a22:	bf00      	nop

08000a24 <__ledf2>:
 8000a24:	f04f 0c01 	mov.w	ip, #1
 8000a28:	e002      	b.n	8000a30 <__cmpdf2+0x4>
 8000a2a:	bf00      	nop

08000a2c <__cmpdf2>:
 8000a2c:	f04f 0c01 	mov.w	ip, #1
 8000a30:	f84d cd04 	str.w	ip, [sp, #-4]!
 8000a34:	ea4f 0c41 	mov.w	ip, r1, lsl #1
 8000a38:	ea7f 5c6c 	mvns.w	ip, ip, asr #21
 8000a3c:	ea4f 0c43 	mov.w	ip, r3, lsl #1
 8000a40:	bf18      	it	ne
 8000a42:	ea7f 5c6c 	mvnsne.w	ip, ip, asr #21
 8000a46:	d01b      	beq.n	8000a80 <__cmpdf2+0x54>
 8000a48:	b001      	add	sp, #4
 8000a4a:	ea50 0c41 	orrs.w	ip, r0, r1, lsl #1
 8000a4e:	bf0c      	ite	eq
 8000a50:	ea52 0c43 	orrseq.w	ip, r2, r3, lsl #1
 8000a54:	ea91 0f03 	teqne	r1, r3
 8000a58:	bf02      	ittt	eq
 8000a5a:	ea90 0f02 	teqeq	r0, r2
 8000a5e:	2000      	moveq	r0, #0
 8000a60:	4770      	bxeq	lr
 8000a62:	f110 0f00 	cmn.w	r0, #0
 8000a66:	ea91 0f03 	teq	r1, r3
 8000a6a:	bf58      	it	pl
 8000a6c:	4299      	cmppl	r1, r3
 8000a6e:	bf08      	it	eq
 8000a70:	4290      	cmpeq	r0, r2
 8000a72:	bf2c      	ite	cs
 8000a74:	17d8      	asrcs	r0, r3, #31
 8000a76:	ea6f 70e3 	mvncc.w	r0, r3, asr #31
 8000a7a:	f040 0001 	orr.w	r0, r0, #1
 8000a7e:	4770      	bx	lr
 8000a80:	ea4f 0c41 	mov.w	ip, r1, lsl #1
 8000a84:	ea7f 5c6c 	mvns.w	ip, ip, asr #21
 8000a88:	d102      	bne.n	8000a90 <__cmpdf2+0x64>
 8000a8a:	ea50 3c01 	orrs.w	ip, r0, r1, lsl #12
 8000a8e:	d107      	bne.n	8000aa0 <__cmpdf2+0x74>
 8000a90:	ea4f 0c43 	mov.w	ip, r3, lsl #1
 8000a94:	ea7f 5c6c 	mvns.w	ip, ip, asr #21
 8000a98:	d1d6      	bne.n	8000a48 <__cmpdf2+0x1c>
 8000a9a:	ea52 3c03 	orrs.w	ip, r2, r3, lsl #12
 8000a9e:	d0d3      	beq.n	8000a48 <__cmpdf2+0x1c>
 8000aa0:	f85d 0b04 	ldr.w	r0, [sp], #4
 8000aa4:	4770      	bx	lr
 8000aa6:	bf00      	nop

08000aa8 <__aeabi_cdrcmple>:
 8000aa8:	4684      	mov	ip, r0
 8000aaa:	4610      	mov	r0, r2
 8000aac:	4662      	mov	r2, ip
 8000aae:	468c      	mov	ip, r1
 8000ab0:	4619      	mov	r1, r3
 8000ab2:	4663      	mov	r3, ip
 8000ab4:	e000      	b.n	8000ab8 <__aeabi_cdcmpeq>
 8000ab6:	bf00      	nop

08000ab8 <__aeabi_cdcmpeq>:
 8000ab8:	b501      	push	{r0, lr}
 8000aba:	f7ff ffb7 	bl	8000a2c <__cmpdf2>
 8000abe:	2800      	cmp	r0, #0
 8000ac0:	bf48      	it	mi
 8000ac2:	f110 0f00 	cmnmi.w	r0, #0
 8000ac6:	bd01      	pop	{r0, pc}

08000ac8 <__aeabi_dcmpeq>:
 8000ac8:	f84d ed08 	str.w	lr, [sp, #-8]!
 8000acc:	f7ff fff4 	bl	8000ab8 <__aeabi_cdcmpeq>
 8000ad0:	bf0c      	ite	eq
 8000ad2:	2001      	moveq	r0, #1
 8000ad4:	2000      	movne	r0, #0
 8000ad6:	f85d fb08 	ldr.w	pc, [sp], #8
 8000ada:	bf00      	nop

08000adc <__aeabi_dcmplt>:
 8000adc:	f84d ed08 	str.w	lr, [sp, #-8]!
 8000ae0:	f7ff ffea 	bl	8000ab8 <__aeabi_cdcmpeq>
 8000ae4:	bf34      	ite	cc
 8000ae6:	2001      	movcc	r0, #1
 8000ae8:	2000      	movcs	r0, #0
 8000aea:	f85d fb08 	ldr.w	pc, [sp], #8
 8000aee:	bf00      	nop

08000af0 <__aeabi_dcmple>:
 8000af0:	f84d ed08 	str.w	lr, [sp, #-8]!
 8000af4:	f7ff ffe0 	bl	8000ab8 <__aeabi_cdcmpeq>
 8000af8:	bf94      	ite	ls
 8000afa:	2001      	movls	r0, #1
 8000afc:	2000      	movhi	r0, #0
 8000afe:	f85d fb08 	ldr.w	pc, [sp], #8
 8000b02:	bf00      	nop

08000b04 <__aeabi_dcmpge>:
 8000b04:	f84d ed08 	str.w	lr, [sp, #-8]!
 8000b08:	f7ff ffce 	bl	8000aa8 <__aeabi_cdrcmple>
 8000b0c:	bf94      	ite	ls
 8000b0e:	2001      	movls	r0, #1
 8000b10:	2000      	movhi	r0, #0
 8000b12:	f85d fb08 	ldr.w	pc, [sp], #8
 8000b16:	bf00      	nop

08000b18 <__aeabi_dcmpgt>:
 8000b18:	f84d ed08 	str.w	lr, [sp, #-8]!
 8000b1c:	f7ff ffc4 	bl	8000aa8 <__aeabi_cdrcmple>
 8000b20:	bf34      	ite	cc
 8000b22:	2001      	movcc	r0, #1
 8000b24:	2000      	movcs	r0, #0
 8000b26:	f85d fb08 	ldr.w	pc, [sp], #8
 8000b2a:	bf00      	nop

08000b2c <__aeabi_dcmpun>:
 8000b2c:	ea4f 0c41 	mov.w	ip, r1, lsl #1
 8000b30:	ea7f 5c6c 	mvns.w	ip, ip, asr #21
 8000b34:	d102      	bne.n	8000b3c <__aeabi_dcmpun+0x10>
 8000b36:	ea50 3c01 	orrs.w	ip, r0, r1, lsl #12
 8000b3a:	d10a      	bne.n	8000b52 <__aeabi_dcmpun+0x26>
 8000b3c:	ea4f 0c43 	mov.w	ip, r3, lsl #1
 8000b40:	ea7f 5c6c 	mvns.w	ip, ip, asr #21
 8000b44:	d102      	bne.n	8000b4c <__aeabi_dcmpun+0x20>
 8000b46:	ea52 3c03 	orrs.w	ip, r2, r3, lsl #12
 8000b4a:	d102      	bne.n	8000b52 <__aeabi_dcmpun+0x26>
 8000b4c:	f04f 0000 	mov.w	r0, #0
 8000b50:	4770      	bx	lr
 8000b52:	f04f 0001 	mov.w	r0, #1
 8000b56:	4770      	bx	lr

08000b58 <__aeabi_d2iz>:
 8000b58:	ea4f 0241 	mov.w	r2, r1, lsl #1
 8000b5c:	f512 1200 	adds.w	r2, r2, #2097152	; 0x200000
 8000b60:	d215      	bcs.n	8000b8e <__aeabi_d2iz+0x36>
 8000b62:	d511      	bpl.n	8000b88 <__aeabi_d2iz+0x30>
 8000b64:	f46f 7378 	mvn.w	r3, #992	; 0x3e0
 8000b68:	ebb3 5262 	subs.w	r2, r3, r2, asr #21
 8000b6c:	d912      	bls.n	8000b94 <__aeabi_d2iz+0x3c>
 8000b6e:	ea4f 23c1 	mov.w	r3, r1, lsl #11
 8000b72:	f043 4300 	orr.w	r3, r3, #2147483648	; 0x80000000
 8000b76:	ea43 5350 	orr.w	r3, r3, r0, lsr #21
 8000b7a:	f011 4f00 	tst.w	r1, #2147483648	; 0x80000000
 8000b7e:	fa23 f002 	lsr.w	r0, r3, r2
 8000b82:	bf18      	it	ne
 8000b84:	4240      	negne	r0, r0
 8000b86:	4770      	bx	lr
 8000b88:	f04f 0000 	mov.w	r0, #0
 8000b8c:	4770      	bx	lr
 8000b8e:	ea50 3001 	orrs.w	r0, r0, r1, lsl #12
 8000b92:	d105      	bne.n	8000ba0 <__aeabi_d2iz+0x48>
 8000b94:	f011 4000 	ands.w	r0, r1, #2147483648	; 0x80000000
 8000b98:	bf08      	it	eq
 8000b9a:	f06f 4000 	mvneq.w	r0, #2147483648	; 0x80000000
 8000b9e:	4770      	bx	lr
 8000ba0:	f04f 0000 	mov.w	r0, #0
 8000ba4:	4770      	bx	lr
 8000ba6:	bf00      	nop

08000ba8 <LL_GPIO_SetPinMode>:
  *         @arg @ref LL_GPIO_MODE_ALTERNATE
  *         @arg @ref LL_GPIO_MODE_ANALOG
  * @retval None
  */
__STATIC_INLINE void LL_GPIO_SetPinMode(GPIO_TypeDef *GPIOx, uint32_t Pin, uint32_t Mode)
{
 8000ba8:	b480      	push	{r7}
 8000baa:	b089      	sub	sp, #36	; 0x24
 8000bac:	af00      	add	r7, sp, #0
 8000bae:	60f8      	str	r0, [r7, #12]
 8000bb0:	60b9      	str	r1, [r7, #8]
 8000bb2:	607a      	str	r2, [r7, #4]
  MODIFY_REG(GPIOx->MODER, (GPIO_MODER_MODER0 << (POSITION_VAL(Pin) * 2U)), (Mode << (POSITION_VAL(Pin) * 2U)));
 8000bb4:	68fb      	ldr	r3, [r7, #12]
 8000bb6:	681a      	ldr	r2, [r3, #0]
 8000bb8:	68bb      	ldr	r3, [r7, #8]
 8000bba:	617b      	str	r3, [r7, #20]
__attribute__((always_inline)) __STATIC_INLINE uint32_t __RBIT(uint32_t value)
{
  uint32_t result;

#if       (__CORTEX_M >= 0x03U) || (__CORTEX_SC >= 300U)
   __ASM volatile ("rbit %0, %1" : "=r" (result) : "r" (value) );
 8000bbc:	697b      	ldr	r3, [r7, #20]
 8000bbe:	fa93 f3a3 	rbit	r3, r3
 8000bc2:	613b      	str	r3, [r7, #16]
    result |= value & 1U;
    s--;
  }
  result <<= s;                        /* shift when v's highest bits are zero */
#endif
  return(result);
 8000bc4:	693b      	ldr	r3, [r7, #16]
 8000bc6:	fab3 f383 	clz	r3, r3
 8000bca:	005b      	lsls	r3, r3, #1
 8000bcc:	2103      	movs	r1, #3
 8000bce:	fa01 f303 	lsl.w	r3, r1, r3
 8000bd2:	43db      	mvns	r3, r3
 8000bd4:	401a      	ands	r2, r3
 8000bd6:	68bb      	ldr	r3, [r7, #8]
 8000bd8:	61fb      	str	r3, [r7, #28]
   __ASM volatile ("rbit %0, %1" : "=r" (result) : "r" (value) );
 8000bda:	69fb      	ldr	r3, [r7, #28]
 8000bdc:	fa93 f3a3 	rbit	r3, r3
 8000be0:	61bb      	str	r3, [r7, #24]
  return(result);
 8000be2:	69bb      	ldr	r3, [r7, #24]
 8000be4:	fab3 f383 	clz	r3, r3
 8000be8:	005b      	lsls	r3, r3, #1
 8000bea:	6879      	ldr	r1, [r7, #4]
 8000bec:	fa01 f303 	lsl.w	r3, r1, r3
 8000bf0:	431a      	orrs	r2, r3
 8000bf2:	68fb      	ldr	r3, [r7, #12]
 8000bf4:	601a      	str	r2, [r3, #0]
}
 8000bf6:	bf00      	nop
 8000bf8:	3724      	adds	r7, #36	; 0x24
 8000bfa:	46bd      	mov	sp, r7
 8000bfc:	f85d 7b04 	ldr.w	r7, [sp], #4
 8000c00:	4770      	bx	lr

08000c02 <LL_GPIO_SetPinOutputType>:
  *         @arg @ref LL_GPIO_OUTPUT_PUSHPULL
  *         @arg @ref LL_GPIO_OUTPUT_OPENDRAIN
  * @retval None
  */
__STATIC_INLINE void LL_GPIO_SetPinOutputType(GPIO_TypeDef *GPIOx, uint32_t PinMask, uint32_t OutputType)
{
 8000c02:	b480      	push	{r7}
 8000c04:	b085      	sub	sp, #20
 8000c06:	af00      	add	r7, sp, #0
 8000c08:	60f8      	str	r0, [r7, #12]
 8000c0a:	60b9      	str	r1, [r7, #8]
 8000c0c:	607a      	str	r2, [r7, #4]
  MODIFY_REG(GPIOx->OTYPER, PinMask, (PinMask * OutputType));
 8000c0e:	68fb      	ldr	r3, [r7, #12]
 8000c10:	685a      	ldr	r2, [r3, #4]
 8000c12:	68bb      	ldr	r3, [r7, #8]
 8000c14:	43db      	mvns	r3, r3
 8000c16:	401a      	ands	r2, r3
 8000c18:	68bb      	ldr	r3, [r7, #8]
 8000c1a:	6879      	ldr	r1, [r7, #4]
 8000c1c:	fb01 f303 	mul.w	r3, r1, r3
 8000c20:	431a      	orrs	r2, r3
 8000c22:	68fb      	ldr	r3, [r7, #12]
 8000c24:	605a      	str	r2, [r3, #4]
}
 8000c26:	bf00      	nop
 8000c28:	3714      	adds	r7, #20
 8000c2a:	46bd      	mov	sp, r7
 8000c2c:	f85d 7b04 	ldr.w	r7, [sp], #4
 8000c30:	4770      	bx	lr

08000c32 <LL_GPIO_SetPinSpeed>:
  *         @arg @ref LL_GPIO_SPEED_FREQ_MEDIUM
  *         @arg @ref LL_GPIO_SPEED_FREQ_HIGH
  * @retval None
  */
__STATIC_INLINE void LL_GPIO_SetPinSpeed(GPIO_TypeDef *GPIOx, uint32_t Pin, uint32_t  Speed)
{
 8000c32:	b480      	push	{r7}
 8000c34:	b089      	sub	sp, #36	; 0x24
 8000c36:	af00      	add	r7, sp, #0
 8000c38:	60f8      	str	r0, [r7, #12]
 8000c3a:	60b9      	str	r1, [r7, #8]
 8000c3c:	607a      	str	r2, [r7, #4]
  MODIFY_REG(GPIOx->OSPEEDR, (GPIO_OSPEEDER_OSPEEDR0 << (POSITION_VAL(Pin) * 2U)),
 8000c3e:	68fb      	ldr	r3, [r7, #12]
 8000c40:	689a      	ldr	r2, [r3, #8]
 8000c42:	68bb      	ldr	r3, [r7, #8]
 8000c44:	617b      	str	r3, [r7, #20]
   __ASM volatile ("rbit %0, %1" : "=r" (result) : "r" (value) );
 8000c46:	697b      	ldr	r3, [r7, #20]
 8000c48:	fa93 f3a3 	rbit	r3, r3
 8000c4c:	613b      	str	r3, [r7, #16]
  return(result);
 8000c4e:	693b      	ldr	r3, [r7, #16]
 8000c50:	fab3 f383 	clz	r3, r3
 8000c54:	005b      	lsls	r3, r3, #1
 8000c56:	2103      	movs	r1, #3
 8000c58:	fa01 f303 	lsl.w	r3, r1, r3
 8000c5c:	43db      	mvns	r3, r3
 8000c5e:	401a      	ands	r2, r3
 8000c60:	68bb      	ldr	r3, [r7, #8]
 8000c62:	61fb      	str	r3, [r7, #28]
   __ASM volatile ("rbit %0, %1" : "=r" (result) : "r" (value) );
 8000c64:	69fb      	ldr	r3, [r7, #28]
 8000c66:	fa93 f3a3 	rbit	r3, r3
 8000c6a:	61bb      	str	r3, [r7, #24]
  return(result);
 8000c6c:	69bb      	ldr	r3, [r7, #24]
 8000c6e:	fab3 f383 	clz	r3, r3
 8000c72:	005b      	lsls	r3, r3, #1
 8000c74:	6879      	ldr	r1, [r7, #4]
 8000c76:	fa01 f303 	lsl.w	r3, r1, r3
 8000c7a:	431a      	orrs	r2, r3
 8000c7c:	68fb      	ldr	r3, [r7, #12]
 8000c7e:	609a      	str	r2, [r3, #8]
             (Speed << (POSITION_VAL(Pin) * 2U)));
}
 8000c80:	bf00      	nop
 8000c82:	3724      	adds	r7, #36	; 0x24
 8000c84:	46bd      	mov	sp, r7
 8000c86:	f85d 7b04 	ldr.w	r7, [sp], #4
 8000c8a:	4770      	bx	lr

08000c8c <LL_GPIO_SetPinPull>:
  *         @arg @ref LL_GPIO_PULL_UP
  *         @arg @ref LL_GPIO_PULL_DOWN
  * @retval None
  */
__STATIC_INLINE void LL_GPIO_SetPinPull(GPIO_TypeDef *GPIOx, uint32_t Pin, uint32_t Pull)
{
 8000c8c:	b480      	push	{r7}
 8000c8e:	b089      	sub	sp, #36	; 0x24
 8000c90:	af00      	add	r7, sp, #0
 8000c92:	60f8      	str	r0, [r7, #12]
 8000c94:	60b9      	str	r1, [r7, #8]
 8000c96:	607a      	str	r2, [r7, #4]
  MODIFY_REG(GPIOx->PUPDR, (GPIO_PUPDR_PUPDR0 << (POSITION_VAL(Pin) * 2U)), (Pull << (POSITION_VAL(Pin) * 2U)));
 8000c98:	68fb      	ldr	r3, [r7, #12]
 8000c9a:	68da      	ldr	r2, [r3, #12]
 8000c9c:	68bb      	ldr	r3, [r7, #8]
 8000c9e:	617b      	str	r3, [r7, #20]
   __ASM volatile ("rbit %0, %1" : "=r" (result) : "r" (value) );
 8000ca0:	697b      	ldr	r3, [r7, #20]
 8000ca2:	fa93 f3a3 	rbit	r3, r3
 8000ca6:	613b      	str	r3, [r7, #16]
  return(result);
 8000ca8:	693b      	ldr	r3, [r7, #16]
 8000caa:	fab3 f383 	clz	r3, r3
 8000cae:	005b      	lsls	r3, r3, #1
 8000cb0:	2103      	movs	r1, #3
 8000cb2:	fa01 f303 	lsl.w	r3, r1, r3
 8000cb6:	43db      	mvns	r3, r3
 8000cb8:	401a      	ands	r2, r3
 8000cba:	68bb      	ldr	r3, [r7, #8]
 8000cbc:	61fb      	str	r3, [r7, #28]
   __ASM volatile ("rbit %0, %1" : "=r" (result) : "r" (value) );
 8000cbe:	69fb      	ldr	r3, [r7, #28]
 8000cc0:	fa93 f3a3 	rbit	r3, r3
 8000cc4:	61bb      	str	r3, [r7, #24]
  return(result);
 8000cc6:	69bb      	ldr	r3, [r7, #24]
 8000cc8:	fab3 f383 	clz	r3, r3
 8000ccc:	005b      	lsls	r3, r3, #1
 8000cce:	6879      	ldr	r1, [r7, #4]
 8000cd0:	fa01 f303 	lsl.w	r3, r1, r3
 8000cd4:	431a      	orrs	r2, r3
 8000cd6:	68fb      	ldr	r3, [r7, #12]
 8000cd8:	60da      	str	r2, [r3, #12]
}
 8000cda:	bf00      	nop
 8000cdc:	3724      	adds	r7, #36	; 0x24
 8000cde:	46bd      	mov	sp, r7
 8000ce0:	f85d 7b04 	ldr.w	r7, [sp], #4
 8000ce4:	4770      	bx	lr

08000ce6 <LL_GPIO_SetAFPin_0_7>:
  *         @arg @ref LL_GPIO_AF_14
  *         @arg @ref LL_GPIO_AF_15
  * @retval None
  */
__STATIC_INLINE void LL_GPIO_SetAFPin_0_7(GPIO_TypeDef *GPIOx, uint32_t Pin, uint32_t Alternate)
{
 8000ce6:	b480      	push	{r7}
 8000ce8:	b089      	sub	sp, #36	; 0x24
 8000cea:	af00      	add	r7, sp, #0
 8000cec:	60f8      	str	r0, [r7, #12]
 8000cee:	60b9      	str	r1, [r7, #8]
 8000cf0:	607a      	str	r2, [r7, #4]
  MODIFY_REG(GPIOx->AFR[0], (GPIO_AFRL_AFRL0 << (POSITION_VAL(Pin) * 4U)),
 8000cf2:	68fb      	ldr	r3, [r7, #12]
 8000cf4:	6a1a      	ldr	r2, [r3, #32]
 8000cf6:	68bb      	ldr	r3, [r7, #8]
 8000cf8:	617b      	str	r3, [r7, #20]
   __ASM volatile ("rbit %0, %1" : "=r" (result) : "r" (value) );
 8000cfa:	697b      	ldr	r3, [r7, #20]
 8000cfc:	fa93 f3a3 	rbit	r3, r3
 8000d00:	613b      	str	r3, [r7, #16]
  return(result);
 8000d02:	693b      	ldr	r3, [r7, #16]
 8000d04:	fab3 f383 	clz	r3, r3
 8000d08:	009b      	lsls	r3, r3, #2
 8000d0a:	210f      	movs	r1, #15
 8000d0c:	fa01 f303 	lsl.w	r3, r1, r3
 8000d10:	43db      	mvns	r3, r3
 8000d12:	401a      	ands	r2, r3
 8000d14:	68bb      	ldr	r3, [r7, #8]
 8000d16:	61fb      	str	r3, [r7, #28]
   __ASM volatile ("rbit %0, %1" : "=r" (result) : "r" (value) );
 8000d18:	69fb      	ldr	r3, [r7, #28]
 8000d1a:	fa93 f3a3 	rbit	r3, r3
 8000d1e:	61bb      	str	r3, [r7, #24]
  return(result);
 8000d20:	69bb      	ldr	r3, [r7, #24]
 8000d22:	fab3 f383 	clz	r3, r3
 8000d26:	009b      	lsls	r3, r3, #2
 8000d28:	6879      	ldr	r1, [r7, #4]
 8000d2a:	fa01 f303 	lsl.w	r3, r1, r3
 8000d2e:	431a      	orrs	r2, r3
 8000d30:	68fb      	ldr	r3, [r7, #12]
 8000d32:	621a      	str	r2, [r3, #32]
             (Alternate << (POSITION_VAL(Pin) * 4U)));
}
 8000d34:	bf00      	nop
 8000d36:	3724      	adds	r7, #36	; 0x24
 8000d38:	46bd      	mov	sp, r7
 8000d3a:	f85d 7b04 	ldr.w	r7, [sp], #4
 8000d3e:	4770      	bx	lr

08000d40 <LL_GPIO_SetAFPin_8_15>:
  *         @arg @ref LL_GPIO_AF_14
  *         @arg @ref LL_GPIO_AF_15
  * @retval None
  */
__STATIC_INLINE void LL_GPIO_SetAFPin_8_15(GPIO_TypeDef *GPIOx, uint32_t Pin, uint32_t Alternate)
{
 8000d40:	b480      	push	{r7}
 8000d42:	b089      	sub	sp, #36	; 0x24
 8000d44:	af00      	add	r7, sp, #0
 8000d46:	60f8      	str	r0, [r7, #12]
 8000d48:	60b9      	str	r1, [r7, #8]
 8000d4a:	607a      	str	r2, [r7, #4]
  MODIFY_REG(GPIOx->AFR[1], (GPIO_AFRH_AFRH0 << (POSITION_VAL(Pin >> 8U) * 4U)),
 8000d4c:	68fb      	ldr	r3, [r7, #12]
 8000d4e:	6a5a      	ldr	r2, [r3, #36]	; 0x24
 8000d50:	68bb      	ldr	r3, [r7, #8]
 8000d52:	0a1b      	lsrs	r3, r3, #8
 8000d54:	617b      	str	r3, [r7, #20]
   __ASM volatile ("rbit %0, %1" : "=r" (result) : "r" (value) );
 8000d56:	697b      	ldr	r3, [r7, #20]
 8000d58:	fa93 f3a3 	rbit	r3, r3
 8000d5c:	613b      	str	r3, [r7, #16]
  return(result);
 8000d5e:	693b      	ldr	r3, [r7, #16]
 8000d60:	fab3 f383 	clz	r3, r3
 8000d64:	009b      	lsls	r3, r3, #2
 8000d66:	210f      	movs	r1, #15
 8000d68:	fa01 f303 	lsl.w	r3, r1, r3
 8000d6c:	43db      	mvns	r3, r3
 8000d6e:	401a      	ands	r2, r3
 8000d70:	68bb      	ldr	r3, [r7, #8]
 8000d72:	0a1b      	lsrs	r3, r3, #8
 8000d74:	61fb      	str	r3, [r7, #28]
   __ASM volatile ("rbit %0, %1" : "=r" (result) : "r" (value) );
 8000d76:	69fb      	ldr	r3, [r7, #28]
 8000d78:	fa93 f3a3 	rbit	r3, r3
 8000d7c:	61bb      	str	r3, [r7, #24]
  return(result);
 8000d7e:	69bb      	ldr	r3, [r7, #24]
 8000d80:	fab3 f383 	clz	r3, r3
 8000d84:	009b      	lsls	r3, r3, #2
 8000d86:	6879      	ldr	r1, [r7, #4]
 8000d88:	fa01 f303 	lsl.w	r3, r1, r3
 8000d8c:	431a      	orrs	r2, r3
 8000d8e:	68fb      	ldr	r3, [r7, #12]
 8000d90:	625a      	str	r2, [r3, #36]	; 0x24
             (Alternate << (POSITION_VAL(Pin >> 8U) * 4U)));
}
 8000d92:	bf00      	nop
 8000d94:	3724      	adds	r7, #36	; 0x24
 8000d96:	46bd      	mov	sp, r7
 8000d98:	f85d 7b04 	ldr.w	r7, [sp], #4
 8000d9c:	4770      	bx	lr

08000d9e <LL_GPIO_Init>:
  * @retval An ErrorStatus enumeration value:
  *          - SUCCESS: GPIO registers are initialized according to GPIO_InitStruct content
  *          - ERROR:   Not applicable
  */
ErrorStatus LL_GPIO_Init(GPIO_TypeDef *GPIOx, LL_GPIO_InitTypeDef *GPIO_InitStruct)
{
 8000d9e:	b580      	push	{r7, lr}
 8000da0:	b088      	sub	sp, #32
 8000da2:	af00      	add	r7, sp, #0
 8000da4:	6078      	str	r0, [r7, #4]
 8000da6:	6039      	str	r1, [r7, #0]
  uint32_t pinpos     = 0x00000000U;
 8000da8:	2300      	movs	r3, #0
 8000daa:	61fb      	str	r3, [r7, #28]
  uint32_t currentpin = 0x00000000U;
 8000dac:	2300      	movs	r3, #0
 8000dae:	61bb      	str	r3, [r7, #24]
  assert_param(IS_LL_GPIO_MODE(GPIO_InitStruct->Mode));
  assert_param(IS_LL_GPIO_PULL(GPIO_InitStruct->Pull));

  /* ------------------------- Configure the port pins ---------------- */
  /* Initialize  pinpos on first pin set */
  pinpos = POSITION_VAL(GPIO_InitStruct->Pin);
 8000db0:	683b      	ldr	r3, [r7, #0]
 8000db2:	681b      	ldr	r3, [r3, #0]
 8000db4:	617b      	str	r3, [r7, #20]
   __ASM volatile ("rbit %0, %1" : "=r" (result) : "r" (value) );
 8000db6:	697b      	ldr	r3, [r7, #20]
 8000db8:	fa93 f3a3 	rbit	r3, r3
 8000dbc:	613b      	str	r3, [r7, #16]
  return(result);
 8000dbe:	693b      	ldr	r3, [r7, #16]
 8000dc0:	fab3 f383 	clz	r3, r3
 8000dc4:	61fb      	str	r3, [r7, #28]

  /* Configure the port pins */
  while (((GPIO_InitStruct->Pin) >> pinpos) != 0x00000000U)
 8000dc6:	e048      	b.n	8000e5a <LL_GPIO_Init+0xbc>
  {
    /* Get current io position */
    currentpin = (GPIO_InitStruct->Pin) & (0x00000001U << pinpos);
 8000dc8:	683b      	ldr	r3, [r7, #0]
 8000dca:	681a      	ldr	r2, [r3, #0]
 8000dcc:	2101      	movs	r1, #1
 8000dce:	69fb      	ldr	r3, [r7, #28]
 8000dd0:	fa01 f303 	lsl.w	r3, r1, r3
 8000dd4:	4013      	ands	r3, r2
 8000dd6:	61bb      	str	r3, [r7, #24]

    if (currentpin)
 8000dd8:	69bb      	ldr	r3, [r7, #24]
 8000dda:	2b00      	cmp	r3, #0
 8000ddc:	d03a      	beq.n	8000e54 <LL_GPIO_Init+0xb6>
    {
      /* Pin Mode configuration */
      LL_GPIO_SetPinMode(GPIOx, currentpin, GPIO_InitStruct->Mode);
 8000dde:	683b      	ldr	r3, [r7, #0]
 8000de0:	685b      	ldr	r3, [r3, #4]
 8000de2:	461a      	mov	r2, r3
 8000de4:	69b9      	ldr	r1, [r7, #24]
 8000de6:	6878      	ldr	r0, [r7, #4]
 8000de8:	f7ff fede 	bl	8000ba8 <LL_GPIO_SetPinMode>

      if ((GPIO_InitStruct->Mode == LL_GPIO_MODE_OUTPUT) || (GPIO_InitStruct->Mode == LL_GPIO_MODE_ALTERNATE))
 8000dec:	683b      	ldr	r3, [r7, #0]
 8000dee:	685b      	ldr	r3, [r3, #4]
 8000df0:	2b01      	cmp	r3, #1
 8000df2:	d003      	beq.n	8000dfc <LL_GPIO_Init+0x5e>
 8000df4:	683b      	ldr	r3, [r7, #0]
 8000df6:	685b      	ldr	r3, [r3, #4]
 8000df8:	2b02      	cmp	r3, #2
 8000dfa:	d106      	bne.n	8000e0a <LL_GPIO_Init+0x6c>
      {
        /* Check Speed mode parameters */
        assert_param(IS_LL_GPIO_SPEED(GPIO_InitStruct->Speed));

        /* Speed mode configuration */
        LL_GPIO_SetPinSpeed(GPIOx, currentpin, GPIO_InitStruct->Speed);
 8000dfc:	683b      	ldr	r3, [r7, #0]
 8000dfe:	689b      	ldr	r3, [r3, #8]
 8000e00:	461a      	mov	r2, r3
 8000e02:	69b9      	ldr	r1, [r7, #24]
 8000e04:	6878      	ldr	r0, [r7, #4]
 8000e06:	f7ff ff14 	bl	8000c32 <LL_GPIO_SetPinSpeed>
      }

      /* Pull-up Pull down resistor configuration*/
      LL_GPIO_SetPinPull(GPIOx, currentpin, GPIO_InitStruct->Pull);
 8000e0a:	683b      	ldr	r3, [r7, #0]
 8000e0c:	691b      	ldr	r3, [r3, #16]
 8000e0e:	461a      	mov	r2, r3
 8000e10:	69b9      	ldr	r1, [r7, #24]
 8000e12:	6878      	ldr	r0, [r7, #4]
 8000e14:	f7ff ff3a 	bl	8000c8c <LL_GPIO_SetPinPull>

      if (GPIO_InitStruct->Mode == LL_GPIO_MODE_ALTERNATE)
 8000e18:	683b      	ldr	r3, [r7, #0]
 8000e1a:	685b      	ldr	r3, [r3, #4]
 8000e1c:	2b02      	cmp	r3, #2
 8000e1e:	d119      	bne.n	8000e54 <LL_GPIO_Init+0xb6>
 8000e20:	69bb      	ldr	r3, [r7, #24]
 8000e22:	60fb      	str	r3, [r7, #12]
   __ASM volatile ("rbit %0, %1" : "=r" (result) : "r" (value) );
 8000e24:	68fb      	ldr	r3, [r7, #12]
 8000e26:	fa93 f3a3 	rbit	r3, r3
 8000e2a:	60bb      	str	r3, [r7, #8]
  return(result);
 8000e2c:	68bb      	ldr	r3, [r7, #8]
      {
        /* Check Alternate parameter */
        assert_param(IS_LL_GPIO_ALTERNATE(GPIO_InitStruct->Alternate));

        /* Speed mode configuration */
        if (POSITION_VAL(currentpin) < 0x00000008U)
 8000e2e:	fab3 f383 	clz	r3, r3
 8000e32:	2b07      	cmp	r3, #7
 8000e34:	d807      	bhi.n	8000e46 <LL_GPIO_Init+0xa8>
        {
          LL_GPIO_SetAFPin_0_7(GPIOx, currentpin, GPIO_InitStruct->Alternate);
 8000e36:	683b      	ldr	r3, [r7, #0]
 8000e38:	695b      	ldr	r3, [r3, #20]
 8000e3a:	461a      	mov	r2, r3
 8000e3c:	69b9      	ldr	r1, [r7, #24]
 8000e3e:	6878      	ldr	r0, [r7, #4]
 8000e40:	f7ff ff51 	bl	8000ce6 <LL_GPIO_SetAFPin_0_7>
 8000e44:	e006      	b.n	8000e54 <LL_GPIO_Init+0xb6>
        }
        else
        {
          LL_GPIO_SetAFPin_8_15(GPIOx, currentpin, GPIO_InitStruct->Alternate);
 8000e46:	683b      	ldr	r3, [r7, #0]
 8000e48:	695b      	ldr	r3, [r3, #20]
 8000e4a:	461a      	mov	r2, r3
 8000e4c:	69b9      	ldr	r1, [r7, #24]
 8000e4e:	6878      	ldr	r0, [r7, #4]
 8000e50:	f7ff ff76 	bl	8000d40 <LL_GPIO_SetAFPin_8_15>
        }
      }
    }
    pinpos++;
 8000e54:	69fb      	ldr	r3, [r7, #28]
 8000e56:	3301      	adds	r3, #1
 8000e58:	61fb      	str	r3, [r7, #28]
  while (((GPIO_InitStruct->Pin) >> pinpos) != 0x00000000U)
 8000e5a:	683b      	ldr	r3, [r7, #0]
 8000e5c:	681a      	ldr	r2, [r3, #0]
 8000e5e:	69fb      	ldr	r3, [r7, #28]
 8000e60:	fa22 f303 	lsr.w	r3, r2, r3
 8000e64:	2b00      	cmp	r3, #0
 8000e66:	d1af      	bne.n	8000dc8 <LL_GPIO_Init+0x2a>
  }

  if ((GPIO_InitStruct->Mode == LL_GPIO_MODE_OUTPUT) || (GPIO_InitStruct->Mode == LL_GPIO_MODE_ALTERNATE))
 8000e68:	683b      	ldr	r3, [r7, #0]
 8000e6a:	685b      	ldr	r3, [r3, #4]
 8000e6c:	2b01      	cmp	r3, #1
 8000e6e:	d003      	beq.n	8000e78 <LL_GPIO_Init+0xda>
 8000e70:	683b      	ldr	r3, [r7, #0]
 8000e72:	685b      	ldr	r3, [r3, #4]
 8000e74:	2b02      	cmp	r3, #2
 8000e76:	d107      	bne.n	8000e88 <LL_GPIO_Init+0xea>
  {
    /* Check Output mode parameters */
    assert_param(IS_LL_GPIO_OUTPUT_TYPE(GPIO_InitStruct->OutputType));

    /* Output mode configuration*/
    LL_GPIO_SetPinOutputType(GPIOx, GPIO_InitStruct->Pin, GPIO_InitStruct->OutputType);
 8000e78:	683b      	ldr	r3, [r7, #0]
 8000e7a:	6819      	ldr	r1, [r3, #0]
 8000e7c:	683b      	ldr	r3, [r7, #0]
 8000e7e:	68db      	ldr	r3, [r3, #12]
 8000e80:	461a      	mov	r2, r3
 8000e82:	6878      	ldr	r0, [r7, #4]
 8000e84:	f7ff febd 	bl	8000c02 <LL_GPIO_SetPinOutputType>

  }
  return (SUCCESS);
 8000e88:	2300      	movs	r3, #0
}
 8000e8a:	4618      	mov	r0, r3
 8000e8c:	3720      	adds	r7, #32
 8000e8e:	46bd      	mov	sp, r7
 8000e90:	bd80      	pop	{r7, pc}
	...

08000e94 <LL_RCC_HSI_IsReady>:
  * @brief  Check if HSI clock is ready
  * @rmtoll CR           HSIRDY        LL_RCC_HSI_IsReady
  * @retval State of bit (1 or 0).
  */
__STATIC_INLINE uint32_t LL_RCC_HSI_IsReady(void)
{
 8000e94:	b480      	push	{r7}
 8000e96:	af00      	add	r7, sp, #0
  return (READ_BIT(RCC->CR, RCC_CR_HSIRDY) == (RCC_CR_HSIRDY));
 8000e98:	4b06      	ldr	r3, [pc, #24]	; (8000eb4 <LL_RCC_HSI_IsReady+0x20>)
 8000e9a:	681b      	ldr	r3, [r3, #0]
 8000e9c:	f003 0302 	and.w	r3, r3, #2
 8000ea0:	2b02      	cmp	r3, #2
 8000ea2:	bf0c      	ite	eq
 8000ea4:	2301      	moveq	r3, #1
 8000ea6:	2300      	movne	r3, #0
 8000ea8:	b2db      	uxtb	r3, r3
}
 8000eaa:	4618      	mov	r0, r3
 8000eac:	46bd      	mov	sp, r7
 8000eae:	f85d 7b04 	ldr.w	r7, [sp], #4
 8000eb2:	4770      	bx	lr
 8000eb4:	40021000 	.word	0x40021000

08000eb8 <LL_RCC_LSE_IsReady>:
  * @brief  Check if LSE oscillator Ready
  * @rmtoll BDCR         LSERDY        LL_RCC_LSE_IsReady
  * @retval State of bit (1 or 0).
  */
__STATIC_INLINE uint32_t LL_RCC_LSE_IsReady(void)
{
 8000eb8:	b480      	push	{r7}
 8000eba:	af00      	add	r7, sp, #0
  return (READ_BIT(RCC->BDCR, RCC_BDCR_LSERDY) == (RCC_BDCR_LSERDY));
 8000ebc:	4b06      	ldr	r3, [pc, #24]	; (8000ed8 <LL_RCC_LSE_IsReady+0x20>)
 8000ebe:	6a1b      	ldr	r3, [r3, #32]
 8000ec0:	f003 0302 	and.w	r3, r3, #2
 8000ec4:	2b02      	cmp	r3, #2
 8000ec6:	bf0c      	ite	eq
 8000ec8:	2301      	moveq	r3, #1
 8000eca:	2300      	movne	r3, #0
 8000ecc:	b2db      	uxtb	r3, r3
}
 8000ece:	4618      	mov	r0, r3
 8000ed0:	46bd      	mov	sp, r7
 8000ed2:	f85d 7b04 	ldr.w	r7, [sp], #4
 8000ed6:	4770      	bx	lr
 8000ed8:	40021000 	.word	0x40021000

08000edc <LL_RCC_GetSysClkSource>:
  *         @arg @ref LL_RCC_SYS_CLKSOURCE_STATUS_HSI
  *         @arg @ref LL_RCC_SYS_CLKSOURCE_STATUS_HSE
  *         @arg @ref LL_RCC_SYS_CLKSOURCE_STATUS_PLL
  */
__STATIC_INLINE uint32_t LL_RCC_GetSysClkSource(void)
{
 8000edc:	b480      	push	{r7}
 8000ede:	af00      	add	r7, sp, #0
  return (uint32_t)(READ_BIT(RCC->CFGR, RCC_CFGR_SWS));
 8000ee0:	4b04      	ldr	r3, [pc, #16]	; (8000ef4 <LL_RCC_GetSysClkSource+0x18>)
 8000ee2:	685b      	ldr	r3, [r3, #4]
 8000ee4:	f003 030c 	and.w	r3, r3, #12
}
 8000ee8:	4618      	mov	r0, r3
 8000eea:	46bd      	mov	sp, r7
 8000eec:	f85d 7b04 	ldr.w	r7, [sp], #4
 8000ef0:	4770      	bx	lr
 8000ef2:	bf00      	nop
 8000ef4:	40021000 	.word	0x40021000

08000ef8 <LL_RCC_GetAHBPrescaler>:
  *         @arg @ref LL_RCC_SYSCLK_DIV_128
  *         @arg @ref LL_RCC_SYSCLK_DIV_256
  *         @arg @ref LL_RCC_SYSCLK_DIV_512
  */
__STATIC_INLINE uint32_t LL_RCC_GetAHBPrescaler(void)
{
 8000ef8:	b480      	push	{r7}
 8000efa:	af00      	add	r7, sp, #0
  return (uint32_t)(READ_BIT(RCC->CFGR, RCC_CFGR_HPRE));
 8000efc:	4b04      	ldr	r3, [pc, #16]	; (8000f10 <LL_RCC_GetAHBPrescaler+0x18>)
 8000efe:	685b      	ldr	r3, [r3, #4]
 8000f00:	f003 03f0 	and.w	r3, r3, #240	; 0xf0
}
 8000f04:	4618      	mov	r0, r3
 8000f06:	46bd      	mov	sp, r7
 8000f08:	f85d 7b04 	ldr.w	r7, [sp], #4
 8000f0c:	4770      	bx	lr
 8000f0e:	bf00      	nop
 8000f10:	40021000 	.word	0x40021000

08000f14 <LL_RCC_GetAPB1Prescaler>:
  *         @arg @ref LL_RCC_APB1_DIV_4
  *         @arg @ref LL_RCC_APB1_DIV_8
  *         @arg @ref LL_RCC_APB1_DIV_16
  */
__STATIC_INLINE uint32_t LL_RCC_GetAPB1Prescaler(void)
{
 8000f14:	b480      	push	{r7}
 8000f16:	af00      	add	r7, sp, #0
  return (uint32_t)(READ_BIT(RCC->CFGR, RCC_CFGR_PPRE1));
 8000f18:	4b04      	ldr	r3, [pc, #16]	; (8000f2c <LL_RCC_GetAPB1Prescaler+0x18>)
 8000f1a:	685b      	ldr	r3, [r3, #4]
 8000f1c:	f403 63e0 	and.w	r3, r3, #1792	; 0x700
}
 8000f20:	4618      	mov	r0, r3
 8000f22:	46bd      	mov	sp, r7
 8000f24:	f85d 7b04 	ldr.w	r7, [sp], #4
 8000f28:	4770      	bx	lr
 8000f2a:	bf00      	nop
 8000f2c:	40021000 	.word	0x40021000

08000f30 <LL_RCC_GetAPB2Prescaler>:
  *         @arg @ref LL_RCC_APB2_DIV_4
  *         @arg @ref LL_RCC_APB2_DIV_8
  *         @arg @ref LL_RCC_APB2_DIV_16
  */
__STATIC_INLINE uint32_t LL_RCC_GetAPB2Prescaler(void)
{
 8000f30:	b480      	push	{r7}
 8000f32:	af00      	add	r7, sp, #0
  return (uint32_t)(READ_BIT(RCC->CFGR, RCC_CFGR_PPRE2));
 8000f34:	4b04      	ldr	r3, [pc, #16]	; (8000f48 <LL_RCC_GetAPB2Prescaler+0x18>)
 8000f36:	685b      	ldr	r3, [r3, #4]
 8000f38:	f403 5360 	and.w	r3, r3, #14336	; 0x3800
}
 8000f3c:	4618      	mov	r0, r3
 8000f3e:	46bd      	mov	sp, r7
 8000f40:	f85d 7b04 	ldr.w	r7, [sp], #4
 8000f44:	4770      	bx	lr
 8000f46:	bf00      	nop
 8000f48:	40021000 	.word	0x40021000

08000f4c <LL_RCC_GetUSARTClockSource>:
  *         @arg @ref LL_RCC_USART3_CLKSOURCE_HSI (*)
  *
  *         (*) value not defined in all devices.
  */
__STATIC_INLINE uint32_t LL_RCC_GetUSARTClockSource(uint32_t USARTx)
{
 8000f4c:	b480      	push	{r7}
 8000f4e:	b083      	sub	sp, #12
 8000f50:	af00      	add	r7, sp, #0
 8000f52:	6078      	str	r0, [r7, #4]
  return (uint32_t)(READ_BIT(RCC->CFGR3, (RCC_CFGR3_USART1SW << USARTx)) | (USARTx << 24U));
 8000f54:	4b07      	ldr	r3, [pc, #28]	; (8000f74 <LL_RCC_GetUSARTClockSource+0x28>)
 8000f56:	6b1a      	ldr	r2, [r3, #48]	; 0x30
 8000f58:	2103      	movs	r1, #3
 8000f5a:	687b      	ldr	r3, [r7, #4]
 8000f5c:	fa01 f303 	lsl.w	r3, r1, r3
 8000f60:	401a      	ands	r2, r3
 8000f62:	687b      	ldr	r3, [r7, #4]
 8000f64:	061b      	lsls	r3, r3, #24
 8000f66:	4313      	orrs	r3, r2
}
 8000f68:	4618      	mov	r0, r3
 8000f6a:	370c      	adds	r7, #12
 8000f6c:	46bd      	mov	sp, r7
 8000f6e:	f85d 7b04 	ldr.w	r7, [sp], #4
 8000f72:	4770      	bx	lr
 8000f74:	40021000 	.word	0x40021000

08000f78 <LL_RCC_PLL_GetMainSource>:
  *         @arg @ref LL_RCC_PLLSOURCE_HSE
  *
  *         (*) value not defined in all devices
  */
__STATIC_INLINE uint32_t LL_RCC_PLL_GetMainSource(void)
{
 8000f78:	b480      	push	{r7}
 8000f7a:	af00      	add	r7, sp, #0
  return (uint32_t)(READ_BIT(RCC->CFGR, RCC_CFGR_PLLSRC));
 8000f7c:	4b04      	ldr	r3, [pc, #16]	; (8000f90 <LL_RCC_PLL_GetMainSource+0x18>)
 8000f7e:	685b      	ldr	r3, [r3, #4]
 8000f80:	f403 3380 	and.w	r3, r3, #65536	; 0x10000
}
 8000f84:	4618      	mov	r0, r3
 8000f86:	46bd      	mov	sp, r7
 8000f88:	f85d 7b04 	ldr.w	r7, [sp], #4
 8000f8c:	4770      	bx	lr
 8000f8e:	bf00      	nop
 8000f90:	40021000 	.word	0x40021000

08000f94 <LL_RCC_PLL_GetMultiplicator>:
  *         @arg @ref LL_RCC_PLL_MUL_14
  *         @arg @ref LL_RCC_PLL_MUL_15
  *         @arg @ref LL_RCC_PLL_MUL_16
  */
__STATIC_INLINE uint32_t LL_RCC_PLL_GetMultiplicator(void)
{
 8000f94:	b480      	push	{r7}
 8000f96:	af00      	add	r7, sp, #0
  return (uint32_t)(READ_BIT(RCC->CFGR, RCC_CFGR_PLLMUL));
 8000f98:	4b04      	ldr	r3, [pc, #16]	; (8000fac <LL_RCC_PLL_GetMultiplicator+0x18>)
 8000f9a:	685b      	ldr	r3, [r3, #4]
 8000f9c:	f403 1370 	and.w	r3, r3, #3932160	; 0x3c0000
}
 8000fa0:	4618      	mov	r0, r3
 8000fa2:	46bd      	mov	sp, r7
 8000fa4:	f85d 7b04 	ldr.w	r7, [sp], #4
 8000fa8:	4770      	bx	lr
 8000faa:	bf00      	nop
 8000fac:	40021000 	.word	0x40021000

08000fb0 <LL_RCC_PLL_GetPrediv>:
  *         @arg @ref LL_RCC_PREDIV_DIV_14
  *         @arg @ref LL_RCC_PREDIV_DIV_15
  *         @arg @ref LL_RCC_PREDIV_DIV_16
  */
__STATIC_INLINE uint32_t LL_RCC_PLL_GetPrediv(void)
{
 8000fb0:	b480      	push	{r7}
 8000fb2:	af00      	add	r7, sp, #0
  return (uint32_t)(READ_BIT(RCC->CFGR2, RCC_CFGR2_PREDIV));
 8000fb4:	4b04      	ldr	r3, [pc, #16]	; (8000fc8 <LL_RCC_PLL_GetPrediv+0x18>)
 8000fb6:	6adb      	ldr	r3, [r3, #44]	; 0x2c
 8000fb8:	f003 030f 	and.w	r3, r3, #15
}
 8000fbc:	4618      	mov	r0, r3
 8000fbe:	46bd      	mov	sp, r7
 8000fc0:	f85d 7b04 	ldr.w	r7, [sp], #4
 8000fc4:	4770      	bx	lr
 8000fc6:	bf00      	nop
 8000fc8:	40021000 	.word	0x40021000

08000fcc <LL_RCC_GetSystemClocksFreq>:
  *         configuration based on this function will be incorrect.
  * @param  RCC_Clocks pointer to a @ref LL_RCC_ClocksTypeDef structure which will hold the clocks frequencies
  * @retval None
  */
void LL_RCC_GetSystemClocksFreq(LL_RCC_ClocksTypeDef *RCC_Clocks)
{
 8000fcc:	b580      	push	{r7, lr}
 8000fce:	b082      	sub	sp, #8
 8000fd0:	af00      	add	r7, sp, #0
 8000fd2:	6078      	str	r0, [r7, #4]
  /* Get SYSCLK frequency */
  RCC_Clocks->SYSCLK_Frequency = RCC_GetSystemClockFreq();
 8000fd4:	f000 f864 	bl	80010a0 <RCC_GetSystemClockFreq>
 8000fd8:	4602      	mov	r2, r0
 8000fda:	687b      	ldr	r3, [r7, #4]
 8000fdc:	601a      	str	r2, [r3, #0]

  /* HCLK clock frequency */
  RCC_Clocks->HCLK_Frequency   = RCC_GetHCLKClockFreq(RCC_Clocks->SYSCLK_Frequency);
 8000fde:	687b      	ldr	r3, [r7, #4]
 8000fe0:	681b      	ldr	r3, [r3, #0]
 8000fe2:	4618      	mov	r0, r3
 8000fe4:	f000 f882 	bl	80010ec <RCC_GetHCLKClockFreq>
 8000fe8:	4602      	mov	r2, r0
 8000fea:	687b      	ldr	r3, [r7, #4]
 8000fec:	605a      	str	r2, [r3, #4]

  /* PCLK1 clock frequency */
  RCC_Clocks->PCLK1_Frequency  = RCC_GetPCLK1ClockFreq(RCC_Clocks->HCLK_Frequency);
 8000fee:	687b      	ldr	r3, [r7, #4]
 8000ff0:	685b      	ldr	r3, [r3, #4]
 8000ff2:	4618      	mov	r0, r3
 8000ff4:	f000 f890 	bl	8001118 <RCC_GetPCLK1ClockFreq>
 8000ff8:	4602      	mov	r2, r0
 8000ffa:	687b      	ldr	r3, [r7, #4]
 8000ffc:	609a      	str	r2, [r3, #8]

  /* PCLK2 clock frequency */
  RCC_Clocks->PCLK2_Frequency  = RCC_GetPCLK2ClockFreq(RCC_Clocks->HCLK_Frequency);
 8000ffe:	687b      	ldr	r3, [r7, #4]
 8001000:	685b      	ldr	r3, [r3, #4]
 8001002:	4618      	mov	r0, r3
 8001004:	f000 f89c 	bl	8001140 <RCC_GetPCLK2ClockFreq>
 8001008:	4602      	mov	r2, r0
 800100a:	687b      	ldr	r3, [r7, #4]
 800100c:	60da      	str	r2, [r3, #12]
}
 800100e:	bf00      	nop
 8001010:	3708      	adds	r7, #8
 8001012:	46bd      	mov	sp, r7
 8001014:	bd80      	pop	{r7, pc}
	...

08001018 <LL_RCC_GetUSARTClockFreq>:
  *         (*) value not defined in all devices.
  * @retval USART clock frequency (in Hz)
  *         @arg @ref LL_RCC_PERIPH_FREQUENCY_NO indicates that oscillator (HSI or LSE) is not ready
  */
uint32_t LL_RCC_GetUSARTClockFreq(uint32_t USARTxSource)
{
 8001018:	b580      	push	{r7, lr}
 800101a:	b084      	sub	sp, #16
 800101c:	af00      	add	r7, sp, #0
 800101e:	6078      	str	r0, [r7, #4]
  uint32_t usart_frequency = LL_RCC_PERIPH_FREQUENCY_NO;
 8001020:	2300      	movs	r3, #0
 8001022:	60fb      	str	r3, [r7, #12]

  /* Check parameter */
  assert_param(IS_LL_RCC_USART_CLKSOURCE(USARTxSource));
#if defined(RCC_CFGR3_USART1SW)
  if (USARTxSource == LL_RCC_USART1_CLKSOURCE)
 8001024:	687b      	ldr	r3, [r7, #4]
 8001026:	2b00      	cmp	r3, #0
 8001028:	d12d      	bne.n	8001086 <LL_RCC_GetUSARTClockFreq+0x6e>
  {
    /* USART1CLK clock frequency */
    switch (LL_RCC_GetUSARTClockSource(USARTxSource))
 800102a:	6878      	ldr	r0, [r7, #4]
 800102c:	f7ff ff8e 	bl	8000f4c <LL_RCC_GetUSARTClockSource>
 8001030:	4603      	mov	r3, r0
 8001032:	2b03      	cmp	r3, #3
 8001034:	d00a      	beq.n	800104c <LL_RCC_GetUSARTClockFreq+0x34>
 8001036:	2b03      	cmp	r3, #3
 8001038:	d819      	bhi.n	800106e <LL_RCC_GetUSARTClockFreq+0x56>
 800103a:	2b01      	cmp	r3, #1
 800103c:	d002      	beq.n	8001044 <LL_RCC_GetUSARTClockFreq+0x2c>
 800103e:	2b02      	cmp	r3, #2
 8001040:	d00c      	beq.n	800105c <LL_RCC_GetUSARTClockFreq+0x44>
 8001042:	e014      	b.n	800106e <LL_RCC_GetUSARTClockFreq+0x56>
    {
      case LL_RCC_USART1_CLKSOURCE_SYSCLK: /* USART1 Clock is System Clock */
        usart_frequency = RCC_GetSystemClockFreq();
 8001044:	f000 f82c 	bl	80010a0 <RCC_GetSystemClockFreq>
 8001048:	60f8      	str	r0, [r7, #12]
        break;
 800104a:	e021      	b.n	8001090 <LL_RCC_GetUSARTClockFreq+0x78>

      case LL_RCC_USART1_CLKSOURCE_HSI:    /* USART1 Clock is HSI Osc. */
        if (LL_RCC_HSI_IsReady())
 800104c:	f7ff ff22 	bl	8000e94 <LL_RCC_HSI_IsReady>
 8001050:	4603      	mov	r3, r0
 8001052:	2b00      	cmp	r3, #0
 8001054:	d019      	beq.n	800108a <LL_RCC_GetUSARTClockFreq+0x72>
        {
          usart_frequency = HSI_VALUE;
 8001056:	4b11      	ldr	r3, [pc, #68]	; (800109c <LL_RCC_GetUSARTClockFreq+0x84>)
 8001058:	60fb      	str	r3, [r7, #12]
        }
        break;
 800105a:	e016      	b.n	800108a <LL_RCC_GetUSARTClockFreq+0x72>

      case LL_RCC_USART1_CLKSOURCE_LSE:    /* USART1 Clock is LSE Osc. */
        if (LL_RCC_LSE_IsReady())
 800105c:	f7ff ff2c 	bl	8000eb8 <LL_RCC_LSE_IsReady>
 8001060:	4603      	mov	r3, r0
 8001062:	2b00      	cmp	r3, #0
 8001064:	d013      	beq.n	800108e <LL_RCC_GetUSARTClockFreq+0x76>
        {
          usart_frequency = LSE_VALUE;
 8001066:	f44f 4300 	mov.w	r3, #32768	; 0x8000
 800106a:	60fb      	str	r3, [r7, #12]
        }
        break;
 800106c:	e00f      	b.n	800108e <LL_RCC_GetUSARTClockFreq+0x76>

#if defined(RCC_CFGR3_USART1SW_PCLK1)
      case LL_RCC_USART1_CLKSOURCE_PCLK1:  /* USART1 Clock is PCLK1 */
      default:
        usart_frequency = RCC_GetPCLK1ClockFreq(RCC_GetHCLKClockFreq(RCC_GetSystemClockFreq()));
 800106e:	f000 f817 	bl	80010a0 <RCC_GetSystemClockFreq>
 8001072:	4603      	mov	r3, r0
 8001074:	4618      	mov	r0, r3
 8001076:	f000 f839 	bl	80010ec <RCC_GetHCLKClockFreq>
 800107a:	4603      	mov	r3, r0
 800107c:	4618      	mov	r0, r3
 800107e:	f000 f84b 	bl	8001118 <RCC_GetPCLK1ClockFreq>
 8001082:	60f8      	str	r0, [r7, #12]
#else
      case LL_RCC_USART1_CLKSOURCE_PCLK2:  /* USART1 Clock is PCLK2 */
      default:
        usart_frequency = RCC_GetPCLK2ClockFreq(RCC_GetHCLKClockFreq(RCC_GetSystemClockFreq()));
#endif /* RCC_CFGR3_USART1SW_PCLK1 */
        break;
 8001084:	e004      	b.n	8001090 <LL_RCC_GetUSARTClockFreq+0x78>
    }
  }
 8001086:	bf00      	nop
 8001088:	e002      	b.n	8001090 <LL_RCC_GetUSARTClockFreq+0x78>
        break;
 800108a:	bf00      	nop
 800108c:	e000      	b.n	8001090 <LL_RCC_GetUSARTClockFreq+0x78>
        break;
 800108e:	bf00      	nop
        break;
    }
  }

#endif /* RCC_CFGR3_USART3SW */
  return usart_frequency;
 8001090:	68fb      	ldr	r3, [r7, #12]
}
 8001092:	4618      	mov	r0, r3
 8001094:	3710      	adds	r7, #16
 8001096:	46bd      	mov	sp, r7
 8001098:	bd80      	pop	{r7, pc}
 800109a:	bf00      	nop
 800109c:	007a1200 	.word	0x007a1200

080010a0 <RCC_GetSystemClockFreq>:
/**
  * @brief  Return SYSTEM clock frequency
  * @retval SYSTEM clock frequency (in Hz)
  */
uint32_t RCC_GetSystemClockFreq(void)
{
 80010a0:	b580      	push	{r7, lr}
 80010a2:	b082      	sub	sp, #8
 80010a4:	af00      	add	r7, sp, #0
  uint32_t frequency = 0U;
 80010a6:	2300      	movs	r3, #0
 80010a8:	607b      	str	r3, [r7, #4]

  /* Get SYSCLK source -------------------------------------------------------*/
  switch (LL_RCC_GetSysClkSource())
 80010aa:	f7ff ff17 	bl	8000edc <LL_RCC_GetSysClkSource>
 80010ae:	4603      	mov	r3, r0
 80010b0:	2b08      	cmp	r3, #8
 80010b2:	d00c      	beq.n	80010ce <RCC_GetSystemClockFreq+0x2e>
 80010b4:	2b08      	cmp	r3, #8
 80010b6:	d80e      	bhi.n	80010d6 <RCC_GetSystemClockFreq+0x36>
 80010b8:	2b00      	cmp	r3, #0
 80010ba:	d002      	beq.n	80010c2 <RCC_GetSystemClockFreq+0x22>
 80010bc:	2b04      	cmp	r3, #4
 80010be:	d003      	beq.n	80010c8 <RCC_GetSystemClockFreq+0x28>
 80010c0:	e009      	b.n	80010d6 <RCC_GetSystemClockFreq+0x36>
  {
    case LL_RCC_SYS_CLKSOURCE_STATUS_HSI:  /* HSI used as system clock  source */
      frequency = HSI_VALUE;
 80010c2:	4b09      	ldr	r3, [pc, #36]	; (80010e8 <RCC_GetSystemClockFreq+0x48>)
 80010c4:	607b      	str	r3, [r7, #4]
      break;
 80010c6:	e009      	b.n	80010dc <RCC_GetSystemClockFreq+0x3c>

    case LL_RCC_SYS_CLKSOURCE_STATUS_HSE:  /* HSE used as system clock  source */
      frequency = HSE_VALUE;
 80010c8:	4b07      	ldr	r3, [pc, #28]	; (80010e8 <RCC_GetSystemClockFreq+0x48>)
 80010ca:	607b      	str	r3, [r7, #4]
      break;
 80010cc:	e006      	b.n	80010dc <RCC_GetSystemClockFreq+0x3c>

    case LL_RCC_SYS_CLKSOURCE_STATUS_PLL:  /* PLL used as system clock  source */
      frequency = RCC_PLL_GetFreqDomain_SYS();
 80010ce:	f000 f84b 	bl	8001168 <RCC_PLL_GetFreqDomain_SYS>
 80010d2:	6078      	str	r0, [r7, #4]
      break;
 80010d4:	e002      	b.n	80010dc <RCC_GetSystemClockFreq+0x3c>

    default:
      frequency = HSI_VALUE;
 80010d6:	4b04      	ldr	r3, [pc, #16]	; (80010e8 <RCC_GetSystemClockFreq+0x48>)
 80010d8:	607b      	str	r3, [r7, #4]
      break;
 80010da:	bf00      	nop
  }

  return frequency;
 80010dc:	687b      	ldr	r3, [r7, #4]
}
 80010de:	4618      	mov	r0, r3
 80010e0:	3708      	adds	r7, #8
 80010e2:	46bd      	mov	sp, r7
 80010e4:	bd80      	pop	{r7, pc}
 80010e6:	bf00      	nop
 80010e8:	007a1200 	.word	0x007a1200

080010ec <RCC_GetHCLKClockFreq>:
  * @brief  Return HCLK clock frequency
  * @param  SYSCLK_Frequency SYSCLK clock frequency
  * @retval HCLK clock frequency (in Hz)
  */
uint32_t RCC_GetHCLKClockFreq(uint32_t SYSCLK_Frequency)
{
 80010ec:	b580      	push	{r7, lr}
 80010ee:	b082      	sub	sp, #8
 80010f0:	af00      	add	r7, sp, #0
 80010f2:	6078      	str	r0, [r7, #4]
  /* HCLK clock frequency */
  return __LL_RCC_CALC_HCLK_FREQ(SYSCLK_Frequency, LL_RCC_GetAHBPrescaler());
 80010f4:	f7ff ff00 	bl	8000ef8 <LL_RCC_GetAHBPrescaler>
 80010f8:	4603      	mov	r3, r0
 80010fa:	091b      	lsrs	r3, r3, #4
 80010fc:	f003 030f 	and.w	r3, r3, #15
 8001100:	4a04      	ldr	r2, [pc, #16]	; (8001114 <RCC_GetHCLKClockFreq+0x28>)
 8001102:	5cd3      	ldrb	r3, [r2, r3]
 8001104:	461a      	mov	r2, r3
 8001106:	687b      	ldr	r3, [r7, #4]
 8001108:	40d3      	lsrs	r3, r2
}
 800110a:	4618      	mov	r0, r3
 800110c:	3708      	adds	r7, #8
 800110e:	46bd      	mov	sp, r7
 8001110:	bd80      	pop	{r7, pc}
 8001112:	bf00      	nop
 8001114:	080056f8 	.word	0x080056f8

08001118 <RCC_GetPCLK1ClockFreq>:
  * @brief  Return PCLK1 clock frequency
  * @param  HCLK_Frequency HCLK clock frequency
  * @retval PCLK1 clock frequency (in Hz)
  */
uint32_t RCC_GetPCLK1ClockFreq(uint32_t HCLK_Frequency)
{
 8001118:	b580      	push	{r7, lr}
 800111a:	b082      	sub	sp, #8
 800111c:	af00      	add	r7, sp, #0
 800111e:	6078      	str	r0, [r7, #4]
  /* PCLK1 clock frequency */
  return __LL_RCC_CALC_PCLK1_FREQ(HCLK_Frequency, LL_RCC_GetAPB1Prescaler());
 8001120:	f7ff fef8 	bl	8000f14 <LL_RCC_GetAPB1Prescaler>
 8001124:	4603      	mov	r3, r0
 8001126:	0a1b      	lsrs	r3, r3, #8
 8001128:	4a04      	ldr	r2, [pc, #16]	; (800113c <RCC_GetPCLK1ClockFreq+0x24>)
 800112a:	5cd3      	ldrb	r3, [r2, r3]
 800112c:	461a      	mov	r2, r3
 800112e:	687b      	ldr	r3, [r7, #4]
 8001130:	40d3      	lsrs	r3, r2
}
 8001132:	4618      	mov	r0, r3
 8001134:	3708      	adds	r7, #8
 8001136:	46bd      	mov	sp, r7
 8001138:	bd80      	pop	{r7, pc}
 800113a:	bf00      	nop
 800113c:	08005708 	.word	0x08005708

08001140 <RCC_GetPCLK2ClockFreq>:
  * @brief  Return PCLK2 clock frequency
  * @param  HCLK_Frequency HCLK clock frequency
  * @retval PCLK2 clock frequency (in Hz)
  */
uint32_t RCC_GetPCLK2ClockFreq(uint32_t HCLK_Frequency)
{
 8001140:	b580      	push	{r7, lr}
 8001142:	b082      	sub	sp, #8
 8001144:	af00      	add	r7, sp, #0
 8001146:	6078      	str	r0, [r7, #4]
  /* PCLK2 clock frequency */
  return __LL_RCC_CALC_PCLK2_FREQ(HCLK_Frequency, LL_RCC_GetAPB2Prescaler());
 8001148:	f7ff fef2 	bl	8000f30 <LL_RCC_GetAPB2Prescaler>
 800114c:	4603      	mov	r3, r0
 800114e:	0adb      	lsrs	r3, r3, #11
 8001150:	4a04      	ldr	r2, [pc, #16]	; (8001164 <RCC_GetPCLK2ClockFreq+0x24>)
 8001152:	5cd3      	ldrb	r3, [r2, r3]
 8001154:	461a      	mov	r2, r3
 8001156:	687b      	ldr	r3, [r7, #4]
 8001158:	40d3      	lsrs	r3, r2
}
 800115a:	4618      	mov	r0, r3
 800115c:	3708      	adds	r7, #8
 800115e:	46bd      	mov	sp, r7
 8001160:	bd80      	pop	{r7, pc}
 8001162:	bf00      	nop
 8001164:	08005708 	.word	0x08005708

08001168 <RCC_PLL_GetFreqDomain_SYS>:
/**
  * @brief  Return PLL clock frequency used for system domain
  * @retval PLL clock frequency (in Hz)
  */
uint32_t RCC_PLL_GetFreqDomain_SYS(void)
{
 8001168:	b590      	push	{r4, r7, lr}
 800116a:	b085      	sub	sp, #20
 800116c:	af00      	add	r7, sp, #0
  uint32_t pllinputfreq = 0U, pllsource = 0U;
 800116e:	2300      	movs	r3, #0
 8001170:	60fb      	str	r3, [r7, #12]
 8001172:	2300      	movs	r3, #0
 8001174:	60bb      	str	r3, [r7, #8]

  /* PLL_VCO = (HSE_VALUE or HSI_VALUE / PLL divider) * PLL Multiplicator */

  /* Get PLL source */
  pllsource = LL_RCC_PLL_GetMainSource();
 8001176:	f7ff feff 	bl	8000f78 <LL_RCC_PLL_GetMainSource>
 800117a:	60b8      	str	r0, [r7, #8]

  switch (pllsource)
 800117c:	68bb      	ldr	r3, [r7, #8]
 800117e:	2b00      	cmp	r3, #0
 8001180:	d004      	beq.n	800118c <RCC_PLL_GetFreqDomain_SYS+0x24>
 8001182:	68bb      	ldr	r3, [r7, #8]
 8001184:	f5b3 3f80 	cmp.w	r3, #65536	; 0x10000
 8001188:	d003      	beq.n	8001192 <RCC_PLL_GetFreqDomain_SYS+0x2a>
 800118a:	e005      	b.n	8001198 <RCC_PLL_GetFreqDomain_SYS+0x30>
#if defined(RCC_PLLSRC_PREDIV1_SUPPORT)
    case LL_RCC_PLLSOURCE_HSI:       /* HSI used as PLL clock source */
      pllinputfreq = HSI_VALUE;
#else
    case LL_RCC_PLLSOURCE_HSI_DIV_2: /* HSI used as PLL clock source */
      pllinputfreq = HSI_VALUE / 2U;
 800118c:	4b13      	ldr	r3, [pc, #76]	; (80011dc <RCC_PLL_GetFreqDomain_SYS+0x74>)
 800118e:	60fb      	str	r3, [r7, #12]
#endif /* RCC_PLLSRC_PREDIV1_SUPPORT */
      break;
 8001190:	e005      	b.n	800119e <RCC_PLL_GetFreqDomain_SYS+0x36>

    case LL_RCC_PLLSOURCE_HSE:       /* HSE used as PLL clock source */
      pllinputfreq = HSE_VALUE;
 8001192:	4b13      	ldr	r3, [pc, #76]	; (80011e0 <RCC_PLL_GetFreqDomain_SYS+0x78>)
 8001194:	60fb      	str	r3, [r7, #12]
      break;
 8001196:	e002      	b.n	800119e <RCC_PLL_GetFreqDomain_SYS+0x36>

    default:
#if defined(RCC_PLLSRC_PREDIV1_SUPPORT)
      pllinputfreq = HSI_VALUE;
#else
      pllinputfreq = HSI_VALUE / 2U;
 8001198:	4b10      	ldr	r3, [pc, #64]	; (80011dc <RCC_PLL_GetFreqDomain_SYS+0x74>)
 800119a:	60fb      	str	r3, [r7, #12]
#endif /* RCC_PLLSRC_PREDIV1_SUPPORT */
      break;
 800119c:	bf00      	nop
  }
#if defined(RCC_PLLSRC_PREDIV1_SUPPORT)
  return __LL_RCC_CALC_PLLCLK_FREQ(pllinputfreq, LL_RCC_PLL_GetMultiplicator(), LL_RCC_PLL_GetPrediv());
#else
  return __LL_RCC_CALC_PLLCLK_FREQ((pllinputfreq / (LL_RCC_PLL_GetPrediv() + 1U)), LL_RCC_PLL_GetMultiplicator());
 800119e:	f7ff ff07 	bl	8000fb0 <LL_RCC_PLL_GetPrediv>
 80011a2:	4603      	mov	r3, r0
 80011a4:	3301      	adds	r3, #1
 80011a6:	68fa      	ldr	r2, [r7, #12]
 80011a8:	fbb2 f4f3 	udiv	r4, r2, r3
 80011ac:	f7ff fef2 	bl	8000f94 <LL_RCC_PLL_GetMultiplicator>
 80011b0:	4603      	mov	r3, r0
 80011b2:	f403 1370 	and.w	r3, r3, #3932160	; 0x3c0000
 80011b6:	f44f 1270 	mov.w	r2, #3932160	; 0x3c0000
 80011ba:	607a      	str	r2, [r7, #4]
   __ASM volatile ("rbit %0, %1" : "=r" (result) : "r" (value) );
 80011bc:	687a      	ldr	r2, [r7, #4]
 80011be:	fa92 f2a2 	rbit	r2, r2
 80011c2:	603a      	str	r2, [r7, #0]
  return(result);
 80011c4:	683a      	ldr	r2, [r7, #0]
 80011c6:	fab2 f282 	clz	r2, r2
 80011ca:	40d3      	lsrs	r3, r2
 80011cc:	3302      	adds	r3, #2
 80011ce:	fb03 f304 	mul.w	r3, r3, r4
#endif /* RCC_PLLSRC_PREDIV1_SUPPORT */
}
 80011d2:	4618      	mov	r0, r3
 80011d4:	3714      	adds	r7, #20
 80011d6:	46bd      	mov	sp, r7
 80011d8:	bd90      	pop	{r4, r7, pc}
 80011da:	bf00      	nop
 80011dc:	003d0900 	.word	0x003d0900
 80011e0:	007a1200 	.word	0x007a1200

080011e4 <LL_USART_IsEnabled>:
  * @rmtoll CR1          UE            LL_USART_IsEnabled
  * @param  USARTx USART Instance
  * @retval State of bit (1 or 0).
  */
__STATIC_INLINE uint32_t LL_USART_IsEnabled(USART_TypeDef *USARTx)
{
 80011e4:	b480      	push	{r7}
 80011e6:	b083      	sub	sp, #12
 80011e8:	af00      	add	r7, sp, #0
 80011ea:	6078      	str	r0, [r7, #4]
  return (READ_BIT(USARTx->CR1, USART_CR1_UE) == (USART_CR1_UE));
 80011ec:	687b      	ldr	r3, [r7, #4]
 80011ee:	681b      	ldr	r3, [r3, #0]
 80011f0:	f003 0301 	and.w	r3, r3, #1
 80011f4:	2b01      	cmp	r3, #1
 80011f6:	bf0c      	ite	eq
 80011f8:	2301      	moveq	r3, #1
 80011fa:	2300      	movne	r3, #0
 80011fc:	b2db      	uxtb	r3, r3
}
 80011fe:	4618      	mov	r0, r3
 8001200:	370c      	adds	r7, #12
 8001202:	46bd      	mov	sp, r7
 8001204:	f85d 7b04 	ldr.w	r7, [sp], #4
 8001208:	4770      	bx	lr

0800120a <LL_USART_SetStopBitsLength>:
  *         @arg @ref LL_USART_STOPBITS_1_5
  *         @arg @ref LL_USART_STOPBITS_2
  * @retval None
  */
__STATIC_INLINE void LL_USART_SetStopBitsLength(USART_TypeDef *USARTx, uint32_t StopBits)
{
 800120a:	b480      	push	{r7}
 800120c:	b083      	sub	sp, #12
 800120e:	af00      	add	r7, sp, #0
 8001210:	6078      	str	r0, [r7, #4]
 8001212:	6039      	str	r1, [r7, #0]
  MODIFY_REG(USARTx->CR2, USART_CR2_STOP, StopBits);
 8001214:	687b      	ldr	r3, [r7, #4]
 8001216:	685b      	ldr	r3, [r3, #4]
 8001218:	f423 5240 	bic.w	r2, r3, #12288	; 0x3000
 800121c:	683b      	ldr	r3, [r7, #0]
 800121e:	431a      	orrs	r2, r3
 8001220:	687b      	ldr	r3, [r7, #4]
 8001222:	605a      	str	r2, [r3, #4]
}
 8001224:	bf00      	nop
 8001226:	370c      	adds	r7, #12
 8001228:	46bd      	mov	sp, r7
 800122a:	f85d 7b04 	ldr.w	r7, [sp], #4
 800122e:	4770      	bx	lr

08001230 <LL_USART_SetHWFlowCtrl>:
  *         @arg @ref LL_USART_HWCONTROL_CTS
  *         @arg @ref LL_USART_HWCONTROL_RTS_CTS
  * @retval None
  */
__STATIC_INLINE void LL_USART_SetHWFlowCtrl(USART_TypeDef *USARTx, uint32_t HardwareFlowControl)
{
 8001230:	b480      	push	{r7}
 8001232:	b083      	sub	sp, #12
 8001234:	af00      	add	r7, sp, #0
 8001236:	6078      	str	r0, [r7, #4]
 8001238:	6039      	str	r1, [r7, #0]
  MODIFY_REG(USARTx->CR3, USART_CR3_RTSE | USART_CR3_CTSE, HardwareFlowControl);
 800123a:	687b      	ldr	r3, [r7, #4]
 800123c:	689b      	ldr	r3, [r3, #8]
 800123e:	f423 7240 	bic.w	r2, r3, #768	; 0x300
 8001242:	683b      	ldr	r3, [r7, #0]
 8001244:	431a      	orrs	r2, r3
 8001246:	687b      	ldr	r3, [r7, #4]
 8001248:	609a      	str	r2, [r3, #8]
}
 800124a:	bf00      	nop
 800124c:	370c      	adds	r7, #12
 800124e:	46bd      	mov	sp, r7
 8001250:	f85d 7b04 	ldr.w	r7, [sp], #4
 8001254:	4770      	bx	lr

08001256 <LL_USART_SetBaudRate>:
  * @param  BaudRate Baud Rate
  * @retval None
  */
__STATIC_INLINE void LL_USART_SetBaudRate(USART_TypeDef *USARTx, uint32_t PeriphClk, uint32_t OverSampling,
                                          uint32_t BaudRate)
{
 8001256:	b4b0      	push	{r4, r5, r7}
 8001258:	b085      	sub	sp, #20
 800125a:	af00      	add	r7, sp, #0
 800125c:	60f8      	str	r0, [r7, #12]
 800125e:	60b9      	str	r1, [r7, #8]
 8001260:	607a      	str	r2, [r7, #4]
 8001262:	603b      	str	r3, [r7, #0]
  register uint32_t usartdiv = 0x0U;
 8001264:	2500      	movs	r5, #0
  register uint32_t brrtemp = 0x0U;
 8001266:	2400      	movs	r4, #0

  if (OverSampling == LL_USART_OVERSAMPLING_8)
 8001268:	687b      	ldr	r3, [r7, #4]
 800126a:	f5b3 4f00 	cmp.w	r3, #32768	; 0x8000
 800126e:	d114      	bne.n	800129a <LL_USART_SetBaudRate+0x44>
  {
    usartdiv = (uint16_t)(__LL_USART_DIV_SAMPLING8(PeriphClk, BaudRate));
 8001270:	68bb      	ldr	r3, [r7, #8]
 8001272:	005a      	lsls	r2, r3, #1
 8001274:	683b      	ldr	r3, [r7, #0]
 8001276:	085b      	lsrs	r3, r3, #1
 8001278:	441a      	add	r2, r3
 800127a:	683b      	ldr	r3, [r7, #0]
 800127c:	fbb2 f3f3 	udiv	r3, r2, r3
 8001280:	b29b      	uxth	r3, r3
 8001282:	461d      	mov	r5, r3
    brrtemp = usartdiv & 0xFFF0U;
 8001284:	f64f 74f0 	movw	r4, #65520	; 0xfff0
 8001288:	402c      	ands	r4, r5
    brrtemp |= (uint16_t)((usartdiv & (uint16_t)0x000FU) >> 1U);
 800128a:	086b      	lsrs	r3, r5, #1
 800128c:	b29b      	uxth	r3, r3
 800128e:	f003 0307 	and.w	r3, r3, #7
 8001292:	431c      	orrs	r4, r3
    USARTx->BRR = brrtemp;
 8001294:	68fb      	ldr	r3, [r7, #12]
 8001296:	60dc      	str	r4, [r3, #12]
  }
  else
  {
    USARTx->BRR = (uint16_t)(__LL_USART_DIV_SAMPLING16(PeriphClk, BaudRate));
  }
}
 8001298:	e00a      	b.n	80012b0 <LL_USART_SetBaudRate+0x5a>
    USARTx->BRR = (uint16_t)(__LL_USART_DIV_SAMPLING16(PeriphClk, BaudRate));
 800129a:	683b      	ldr	r3, [r7, #0]
 800129c:	085a      	lsrs	r2, r3, #1
 800129e:	68bb      	ldr	r3, [r7, #8]
 80012a0:	441a      	add	r2, r3
 80012a2:	683b      	ldr	r3, [r7, #0]
 80012a4:	fbb2 f3f3 	udiv	r3, r2, r3
 80012a8:	b29b      	uxth	r3, r3
 80012aa:	461a      	mov	r2, r3
 80012ac:	68fb      	ldr	r3, [r7, #12]
 80012ae:	60da      	str	r2, [r3, #12]
}
 80012b0:	bf00      	nop
 80012b2:	3714      	adds	r7, #20
 80012b4:	46bd      	mov	sp, r7
 80012b6:	bcb0      	pop	{r4, r5, r7}
 80012b8:	4770      	bx	lr
	...

080012bc <LL_USART_Init>:
  * @retval An ErrorStatus enumeration value:
  *          - SUCCESS: USART registers are initialized according to USART_InitStruct content
  *          - ERROR: Problem occurred during USART Registers initialization
  */
ErrorStatus LL_USART_Init(USART_TypeDef *USARTx, LL_USART_InitTypeDef *USART_InitStruct)
{
 80012bc:	b580      	push	{r7, lr}
 80012be:	b088      	sub	sp, #32
 80012c0:	af00      	add	r7, sp, #0
 80012c2:	6078      	str	r0, [r7, #4]
 80012c4:	6039      	str	r1, [r7, #0]
  ErrorStatus status = ERROR;
 80012c6:	2301      	movs	r3, #1
 80012c8:	77fb      	strb	r3, [r7, #31]
  uint32_t periphclk = LL_RCC_PERIPH_FREQUENCY_NO;
 80012ca:	2300      	movs	r3, #0
 80012cc:	61bb      	str	r3, [r7, #24]
  assert_param(IS_LL_USART_HWCONTROL(USART_InitStruct->HardwareFlowControl));
  assert_param(IS_LL_USART_OVERSAMPLING(USART_InitStruct->OverSampling));

  /* USART needs to be in disabled state, in order to be able to configure some bits in
     CRx registers */
  if (LL_USART_IsEnabled(USARTx) == 0U)
 80012ce:	6878      	ldr	r0, [r7, #4]
 80012d0:	f7ff ff88 	bl	80011e4 <LL_USART_IsEnabled>
 80012d4:	4603      	mov	r3, r0
 80012d6:	2b00      	cmp	r3, #0
 80012d8:	d14e      	bne.n	8001378 <LL_USART_Init+0xbc>
     * - DataWidth:          USART_CR1_M bits according to USART_InitStruct->DataWidth value
     * - Parity:             USART_CR1_PCE, USART_CR1_PS bits according to USART_InitStruct->Parity value
     * - TransferDirection:  USART_CR1_TE, USART_CR1_RE bits according to USART_InitStruct->TransferDirection value
     * - Oversampling:       USART_CR1_OVER8 bit according to USART_InitStruct->OverSampling value.
     */
    MODIFY_REG(USARTx->CR1,
 80012da:	687b      	ldr	r3, [r7, #4]
 80012dc:	681a      	ldr	r2, [r3, #0]
 80012de:	4b29      	ldr	r3, [pc, #164]	; (8001384 <LL_USART_Init+0xc8>)
 80012e0:	4013      	ands	r3, r2
 80012e2:	683a      	ldr	r2, [r7, #0]
 80012e4:	6851      	ldr	r1, [r2, #4]
 80012e6:	683a      	ldr	r2, [r7, #0]
 80012e8:	68d2      	ldr	r2, [r2, #12]
 80012ea:	4311      	orrs	r1, r2
 80012ec:	683a      	ldr	r2, [r7, #0]
 80012ee:	6912      	ldr	r2, [r2, #16]
 80012f0:	4311      	orrs	r1, r2
 80012f2:	683a      	ldr	r2, [r7, #0]
 80012f4:	6992      	ldr	r2, [r2, #24]
 80012f6:	430a      	orrs	r2, r1
 80012f8:	431a      	orrs	r2, r3
 80012fa:	687b      	ldr	r3, [r7, #4]
 80012fc:	601a      	str	r2, [r3, #0]
    /*---------------------------- USART CR2 Configuration ---------------------
     * Configure USARTx CR2 (Stop bits) with parameters:
     * - Stop Bits:          USART_CR2_STOP bits according to USART_InitStruct->StopBits value.
     * - CLKEN, CPOL, CPHA and LBCL bits are to be configured using LL_USART_ClockInit().
     */
    LL_USART_SetStopBitsLength(USARTx, USART_InitStruct->StopBits);
 80012fe:	683b      	ldr	r3, [r7, #0]
 8001300:	689b      	ldr	r3, [r3, #8]
 8001302:	4619      	mov	r1, r3
 8001304:	6878      	ldr	r0, [r7, #4]
 8001306:	f7ff ff80 	bl	800120a <LL_USART_SetStopBitsLength>

    /*---------------------------- USART CR3 Configuration ---------------------
     * Configure USARTx CR3 (Hardware Flow Control) with parameters:
     * - HardwareFlowControl: USART_CR3_RTSE, USART_CR3_CTSE bits according to USART_InitStruct->HardwareFlowControl value.
     */
    LL_USART_SetHWFlowCtrl(USARTx, USART_InitStruct->HardwareFlowControl);
 800130a:	683b      	ldr	r3, [r7, #0]
 800130c:	695b      	ldr	r3, [r3, #20]
 800130e:	4619      	mov	r1, r3
 8001310:	6878      	ldr	r0, [r7, #4]
 8001312:	f7ff ff8d 	bl	8001230 <LL_USART_SetHWFlowCtrl>

    /*---------------------------- USART BRR Configuration ---------------------
     * Retrieve Clock frequency used for USART Peripheral
     */
    if (USARTx == USART1)
 8001316:	687b      	ldr	r3, [r7, #4]
 8001318:	4a1b      	ldr	r2, [pc, #108]	; (8001388 <LL_USART_Init+0xcc>)
 800131a:	4293      	cmp	r3, r2
 800131c:	d104      	bne.n	8001328 <LL_USART_Init+0x6c>
    {
      periphclk = LL_RCC_GetUSARTClockFreq(LL_RCC_USART1_CLKSOURCE);
 800131e:	2000      	movs	r0, #0
 8001320:	f7ff fe7a 	bl	8001018 <LL_RCC_GetUSARTClockFreq>
 8001324:	61b8      	str	r0, [r7, #24]
 8001326:	e016      	b.n	8001356 <LL_USART_Init+0x9a>
    }
    else if (USARTx == USART2)
 8001328:	687b      	ldr	r3, [r7, #4]
 800132a:	4a18      	ldr	r2, [pc, #96]	; (800138c <LL_USART_Init+0xd0>)
 800132c:	4293      	cmp	r3, r2
 800132e:	d107      	bne.n	8001340 <LL_USART_Init+0x84>
    {
#if defined (RCC_CFGR3_USART2SW)
      periphclk = LL_RCC_GetUSARTClockFreq(LL_RCC_USART2_CLKSOURCE);
#else
      /* USART2 clock is PCLK */
      LL_RCC_GetSystemClocksFreq(&RCC_Clocks);
 8001330:	f107 0308 	add.w	r3, r7, #8
 8001334:	4618      	mov	r0, r3
 8001336:	f7ff fe49 	bl	8000fcc <LL_RCC_GetSystemClocksFreq>
      periphclk = RCC_Clocks.PCLK1_Frequency;
 800133a:	693b      	ldr	r3, [r7, #16]
 800133c:	61bb      	str	r3, [r7, #24]
 800133e:	e00a      	b.n	8001356 <LL_USART_Init+0x9a>
#endif
    }
    else if (USARTx == USART3)
 8001340:	687b      	ldr	r3, [r7, #4]
 8001342:	4a13      	ldr	r2, [pc, #76]	; (8001390 <LL_USART_Init+0xd4>)
 8001344:	4293      	cmp	r3, r2
 8001346:	d106      	bne.n	8001356 <LL_USART_Init+0x9a>
    {
#if defined (RCC_CFGR3_USART3SW)
      periphclk = LL_RCC_GetUSARTClockFreq(LL_RCC_USART3_CLKSOURCE);
#else
      /* USART3 clock is PCLK */
      LL_RCC_GetSystemClocksFreq(&RCC_Clocks);
 8001348:	f107 0308 	add.w	r3, r7, #8
 800134c:	4618      	mov	r0, r3
 800134e:	f7ff fe3d 	bl	8000fcc <LL_RCC_GetSystemClocksFreq>
      periphclk = RCC_Clocks.PCLK1_Frequency;
 8001352:	693b      	ldr	r3, [r7, #16]
 8001354:	61bb      	str	r3, [r7, #24]

    /* Configure the USART Baud Rate :
       - valid baud rate value (different from 0) is required
       - Peripheral clock as returned by RCC service, should be valid (different from 0).
    */
    if ((periphclk != LL_RCC_PERIPH_FREQUENCY_NO)
 8001356:	69bb      	ldr	r3, [r7, #24]
 8001358:	2b00      	cmp	r3, #0
 800135a:	d00d      	beq.n	8001378 <LL_USART_Init+0xbc>
        && (USART_InitStruct->BaudRate != 0U))
 800135c:	683b      	ldr	r3, [r7, #0]
 800135e:	681b      	ldr	r3, [r3, #0]
 8001360:	2b00      	cmp	r3, #0
 8001362:	d009      	beq.n	8001378 <LL_USART_Init+0xbc>
    {
      status = SUCCESS;
 8001364:	2300      	movs	r3, #0
 8001366:	77fb      	strb	r3, [r7, #31]
      LL_USART_SetBaudRate(USARTx,
 8001368:	683b      	ldr	r3, [r7, #0]
 800136a:	699a      	ldr	r2, [r3, #24]
 800136c:	683b      	ldr	r3, [r7, #0]
 800136e:	681b      	ldr	r3, [r3, #0]
 8001370:	69b9      	ldr	r1, [r7, #24]
 8001372:	6878      	ldr	r0, [r7, #4]
 8001374:	f7ff ff6f 	bl	8001256 <LL_USART_SetBaudRate>
      assert_param(IS_LL_USART_BRR_MAX(USARTx->BRR));
    }
  }
  /* Endif (=> USART not in Disabled state => return ERROR) */

  return (status);
 8001378:	7ffb      	ldrb	r3, [r7, #31]
}
 800137a:	4618      	mov	r0, r3
 800137c:	3720      	adds	r7, #32
 800137e:	46bd      	mov	sp, r7
 8001380:	bd80      	pop	{r7, pc}
 8001382:	bf00      	nop
 8001384:	efff69f3 	.word	0xefff69f3
 8001388:	40013800 	.word	0x40013800
 800138c:	40004400 	.word	0x40004400
 8001390:	40004800 	.word	0x40004800

08001394 <LL_InitTick>:
  *         configuration by calling this function, for a delay use rather osDelay RTOS service.
  * @param  Ticks Number of ticks
  * @retval None
  */
__STATIC_INLINE void LL_InitTick(uint32_t HCLKFrequency, uint32_t Ticks)
{
 8001394:	b480      	push	{r7}
 8001396:	b083      	sub	sp, #12
 8001398:	af00      	add	r7, sp, #0
 800139a:	6078      	str	r0, [r7, #4]
 800139c:	6039      	str	r1, [r7, #0]
  /* Configure the SysTick to have interrupt in 1ms time base */
  SysTick->LOAD  = (uint32_t)((HCLKFrequency / Ticks) - 1UL);  /* set reload register */
 800139e:	687a      	ldr	r2, [r7, #4]
 80013a0:	683b      	ldr	r3, [r7, #0]
 80013a2:	fbb2 f3f3 	udiv	r3, r2, r3
 80013a6:	4a07      	ldr	r2, [pc, #28]	; (80013c4 <LL_InitTick+0x30>)
 80013a8:	3b01      	subs	r3, #1
 80013aa:	6053      	str	r3, [r2, #4]
  SysTick->VAL   = 0UL;                                       /* Load the SysTick Counter Value */
 80013ac:	4b05      	ldr	r3, [pc, #20]	; (80013c4 <LL_InitTick+0x30>)
 80013ae:	2200      	movs	r2, #0
 80013b0:	609a      	str	r2, [r3, #8]
  SysTick->CTRL  = SysTick_CTRL_CLKSOURCE_Msk |
 80013b2:	4b04      	ldr	r3, [pc, #16]	; (80013c4 <LL_InitTick+0x30>)
 80013b4:	2205      	movs	r2, #5
 80013b6:	601a      	str	r2, [r3, #0]
                   SysTick_CTRL_ENABLE_Msk;                   /* Enable the Systick Timer */
}
 80013b8:	bf00      	nop
 80013ba:	370c      	adds	r7, #12
 80013bc:	46bd      	mov	sp, r7
 80013be:	f85d 7b04 	ldr.w	r7, [sp], #4
 80013c2:	4770      	bx	lr
 80013c4:	e000e010 	.word	0xe000e010

080013c8 <LL_Init1msTick>:
  * @param  HCLKFrequency HCLK frequency in Hz
  * @note   HCLK frequency can be calculated thanks to RCC helper macro or function @ref LL_RCC_GetSystemClocksFreq
  * @retval None
  */
void LL_Init1msTick(uint32_t HCLKFrequency)
{
 80013c8:	b580      	push	{r7, lr}
 80013ca:	b082      	sub	sp, #8
 80013cc:	af00      	add	r7, sp, #0
 80013ce:	6078      	str	r0, [r7, #4]
  /* Use frequency provided in argument */
  LL_InitTick(HCLKFrequency, 1000U);
 80013d0:	f44f 717a 	mov.w	r1, #1000	; 0x3e8
 80013d4:	6878      	ldr	r0, [r7, #4]
 80013d6:	f7ff ffdd 	bl	8001394 <LL_InitTick>
}
 80013da:	bf00      	nop
 80013dc:	3708      	adds	r7, #8
 80013de:	46bd      	mov	sp, r7
 80013e0:	bd80      	pop	{r7, pc}
	...

080013e4 <LL_mDelay>:
  *         will configure Systick to 1ms
  * @param  Delay specifies the delay time length, in milliseconds.
  * @retval None
  */
void LL_mDelay(uint32_t Delay)
{
 80013e4:	b480      	push	{r7}
 80013e6:	b085      	sub	sp, #20
 80013e8:	af00      	add	r7, sp, #0
 80013ea:	6078      	str	r0, [r7, #4]
  __IO uint32_t  tmp = SysTick->CTRL;  /* Clear the COUNTFLAG first */
 80013ec:	4b0f      	ldr	r3, [pc, #60]	; (800142c <LL_mDelay+0x48>)
 80013ee:	681b      	ldr	r3, [r3, #0]
 80013f0:	60fb      	str	r3, [r7, #12]
  /* Add this code to indicate that local variable is not used */
  ((void)tmp);
 80013f2:	68fb      	ldr	r3, [r7, #12]

  /* Add a period to guaranty minimum wait */
  if (Delay < LL_MAX_DELAY)
 80013f4:	687b      	ldr	r3, [r7, #4]
 80013f6:	f1b3 3fff 	cmp.w	r3, #4294967295
 80013fa:	d00c      	beq.n	8001416 <LL_mDelay+0x32>
  {
    Delay++;
 80013fc:	687b      	ldr	r3, [r7, #4]
 80013fe:	3301      	adds	r3, #1
 8001400:	607b      	str	r3, [r7, #4]
  }

  while (Delay)
 8001402:	e008      	b.n	8001416 <LL_mDelay+0x32>
  {
    if ((SysTick->CTRL & SysTick_CTRL_COUNTFLAG_Msk) != 0U)
 8001404:	4b09      	ldr	r3, [pc, #36]	; (800142c <LL_mDelay+0x48>)
 8001406:	681b      	ldr	r3, [r3, #0]
 8001408:	f403 3380 	and.w	r3, r3, #65536	; 0x10000
 800140c:	2b00      	cmp	r3, #0
 800140e:	d002      	beq.n	8001416 <LL_mDelay+0x32>
    {
      Delay--;
 8001410:	687b      	ldr	r3, [r7, #4]
 8001412:	3b01      	subs	r3, #1
 8001414:	607b      	str	r3, [r7, #4]
  while (Delay)
 8001416:	687b      	ldr	r3, [r7, #4]
 8001418:	2b00      	cmp	r3, #0
 800141a:	d1f3      	bne.n	8001404 <LL_mDelay+0x20>
    }
  }
}
 800141c:	bf00      	nop
 800141e:	bf00      	nop
 8001420:	3714      	adds	r7, #20
 8001422:	46bd      	mov	sp, r7
 8001424:	f85d 7b04 	ldr.w	r7, [sp], #4
 8001428:	4770      	bx	lr
 800142a:	bf00      	nop
 800142c:	e000e010 	.word	0xe000e010

08001430 <LL_SetSystemCoreClock>:
  * @note   Variable can be calculated also through SystemCoreClockUpdate function.
  * @param  HCLKFrequency HCLK frequency in Hz (can be calculated thanks to RCC helper macro)
  * @retval None
  */
void LL_SetSystemCoreClock(uint32_t HCLKFrequency)
{
 8001430:	b480      	push	{r7}
 8001432:	b083      	sub	sp, #12
 8001434:	af00      	add	r7, sp, #0
 8001436:	6078      	str	r0, [r7, #4]
  /* HCLK clock frequency */
  SystemCoreClock = HCLKFrequency;
 8001438:	4a04      	ldr	r2, [pc, #16]	; (800144c <LL_SetSystemCoreClock+0x1c>)
 800143a:	687b      	ldr	r3, [r7, #4]
 800143c:	6013      	str	r3, [r2, #0]
}
 800143e:	bf00      	nop
 8001440:	370c      	adds	r7, #12
 8001442:	46bd      	mov	sp, r7
 8001444:	f85d 7b04 	ldr.w	r7, [sp], #4
 8001448:	4770      	bx	lr
 800144a:	bf00      	nop
 800144c:	20000000 	.word	0x20000000

08001450 <NVIC_EnableIRQ>:
  \brief   Enable External Interrupt
  \details Enables a device-specific interrupt in the NVIC interrupt controller.
  \param [in]      IRQn  External interrupt number. Value cannot be negative.
 */
__STATIC_INLINE void NVIC_EnableIRQ(IRQn_Type IRQn)
{
 8001450:	b480      	push	{r7}
 8001452:	b083      	sub	sp, #12
 8001454:	af00      	add	r7, sp, #0
 8001456:	4603      	mov	r3, r0
 8001458:	71fb      	strb	r3, [r7, #7]
  NVIC->ISER[(((uint32_t)(int32_t)IRQn) >> 5UL)] = (uint32_t)(1UL << (((uint32_t)(int32_t)IRQn) & 0x1FUL));
 800145a:	79fb      	ldrb	r3, [r7, #7]
 800145c:	f003 021f 	and.w	r2, r3, #31
 8001460:	4907      	ldr	r1, [pc, #28]	; (8001480 <NVIC_EnableIRQ+0x30>)
 8001462:	f997 3007 	ldrsb.w	r3, [r7, #7]
 8001466:	095b      	lsrs	r3, r3, #5
 8001468:	2001      	movs	r0, #1
 800146a:	fa00 f202 	lsl.w	r2, r0, r2
 800146e:	f841 2023 	str.w	r2, [r1, r3, lsl #2]
}
 8001472:	bf00      	nop
 8001474:	370c      	adds	r7, #12
 8001476:	46bd      	mov	sp, r7
 8001478:	f85d 7b04 	ldr.w	r7, [sp], #4
 800147c:	4770      	bx	lr
 800147e:	bf00      	nop
 8001480:	e000e100 	.word	0xe000e100

08001484 <NVIC_SetPriority>:
  \note    The priority cannot be set for every core interrupt.
  \param [in]      IRQn  Interrupt number.
  \param [in]  priority  Priority to set.
 */
__STATIC_INLINE void NVIC_SetPriority(IRQn_Type IRQn, uint32_t priority)
{
 8001484:	b480      	push	{r7}
 8001486:	b083      	sub	sp, #12
 8001488:	af00      	add	r7, sp, #0
 800148a:	4603      	mov	r3, r0
 800148c:	6039      	str	r1, [r7, #0]
 800148e:	71fb      	strb	r3, [r7, #7]
  if ((int32_t)(IRQn) < 0)
 8001490:	f997 3007 	ldrsb.w	r3, [r7, #7]
 8001494:	2b00      	cmp	r3, #0
 8001496:	da0b      	bge.n	80014b0 <NVIC_SetPriority+0x2c>
  {
    SCB->SHP[(((uint32_t)(int32_t)IRQn) & 0xFUL)-4UL] = (uint8_t)((priority << (8U - __NVIC_PRIO_BITS)) & (uint32_t)0xFFUL);
 8001498:	683b      	ldr	r3, [r7, #0]
 800149a:	b2da      	uxtb	r2, r3
 800149c:	490c      	ldr	r1, [pc, #48]	; (80014d0 <NVIC_SetPriority+0x4c>)
 800149e:	79fb      	ldrb	r3, [r7, #7]
 80014a0:	f003 030f 	and.w	r3, r3, #15
 80014a4:	3b04      	subs	r3, #4
 80014a6:	0112      	lsls	r2, r2, #4
 80014a8:	b2d2      	uxtb	r2, r2
 80014aa:	440b      	add	r3, r1
 80014ac:	761a      	strb	r2, [r3, #24]
  }
  else
  {
    NVIC->IP[((uint32_t)(int32_t)IRQn)]               = (uint8_t)((priority << (8U - __NVIC_PRIO_BITS)) & (uint32_t)0xFFUL);
  }
}
 80014ae:	e009      	b.n	80014c4 <NVIC_SetPriority+0x40>
    NVIC->IP[((uint32_t)(int32_t)IRQn)]               = (uint8_t)((priority << (8U - __NVIC_PRIO_BITS)) & (uint32_t)0xFFUL);
 80014b0:	683b      	ldr	r3, [r7, #0]
 80014b2:	b2da      	uxtb	r2, r3
 80014b4:	4907      	ldr	r1, [pc, #28]	; (80014d4 <NVIC_SetPriority+0x50>)
 80014b6:	f997 3007 	ldrsb.w	r3, [r7, #7]
 80014ba:	0112      	lsls	r2, r2, #4
 80014bc:	b2d2      	uxtb	r2, r2
 80014be:	440b      	add	r3, r1
 80014c0:	f883 2300 	strb.w	r2, [r3, #768]	; 0x300
}
 80014c4:	bf00      	nop
 80014c6:	370c      	adds	r7, #12
 80014c8:	46bd      	mov	sp, r7
 80014ca:	f85d 7b04 	ldr.w	r7, [sp], #4
 80014ce:	4770      	bx	lr
 80014d0:	e000ed00 	.word	0xe000ed00
 80014d4:	e000e100 	.word	0xe000e100

080014d8 <LL_AHB1_GRP1_EnableClock>:
  *
  *         (*) value not defined in all devices.
  * @retval None
*/
__STATIC_INLINE void LL_AHB1_GRP1_EnableClock(uint32_t Periphs)
{
 80014d8:	b480      	push	{r7}
 80014da:	b085      	sub	sp, #20
 80014dc:	af00      	add	r7, sp, #0
 80014de:	6078      	str	r0, [r7, #4]
  __IO uint32_t tmpreg;
  SET_BIT(RCC->AHBENR, Periphs);
 80014e0:	4b08      	ldr	r3, [pc, #32]	; (8001504 <LL_AHB1_GRP1_EnableClock+0x2c>)
 80014e2:	695a      	ldr	r2, [r3, #20]
 80014e4:	4907      	ldr	r1, [pc, #28]	; (8001504 <LL_AHB1_GRP1_EnableClock+0x2c>)
 80014e6:	687b      	ldr	r3, [r7, #4]
 80014e8:	4313      	orrs	r3, r2
 80014ea:	614b      	str	r3, [r1, #20]
  /* Delay after an RCC peripheral clock enabling */
  tmpreg = READ_BIT(RCC->AHBENR, Periphs);
 80014ec:	4b05      	ldr	r3, [pc, #20]	; (8001504 <LL_AHB1_GRP1_EnableClock+0x2c>)
 80014ee:	695a      	ldr	r2, [r3, #20]
 80014f0:	687b      	ldr	r3, [r7, #4]
 80014f2:	4013      	ands	r3, r2
 80014f4:	60fb      	str	r3, [r7, #12]
  (void)tmpreg;
 80014f6:	68fb      	ldr	r3, [r7, #12]
}
 80014f8:	bf00      	nop
 80014fa:	3714      	adds	r7, #20
 80014fc:	46bd      	mov	sp, r7
 80014fe:	f85d 7b04 	ldr.w	r7, [sp], #4
 8001502:	4770      	bx	lr
 8001504:	40021000 	.word	0x40021000

08001508 <MX_DMA_Init>:

/** 
  * Enable DMA controller clock
  */
void MX_DMA_Init(void) 
{
 8001508:	b580      	push	{r7, lr}
 800150a:	af00      	add	r7, sp, #0
  /* Init with LL driver */
  /* DMA controller clock enable */
  LL_AHB1_GRP1_EnableClock(LL_AHB1_GRP1_PERIPH_DMA1);
 800150c:	2001      	movs	r0, #1
 800150e:	f7ff ffe3 	bl	80014d8 <LL_AHB1_GRP1_EnableClock>

  /* DMA interrupt init */
  /* DMA1_Channel6_IRQn interrupt configuration */
  NVIC_SetPriority(DMA1_Channel6_IRQn, 0);
 8001512:	2100      	movs	r1, #0
 8001514:	2010      	movs	r0, #16
 8001516:	f7ff ffb5 	bl	8001484 <NVIC_SetPriority>
  NVIC_EnableIRQ(DMA1_Channel6_IRQn);
 800151a:	2010      	movs	r0, #16
 800151c:	f7ff ff98 	bl	8001450 <NVIC_EnableIRQ>
  /* DMA1_Channel7_IRQn interrupt configuration */
  NVIC_SetPriority(DMA1_Channel7_IRQn, 0);
 8001520:	2100      	movs	r1, #0
 8001522:	2011      	movs	r0, #17
 8001524:	f7ff ffae 	bl	8001484 <NVIC_SetPriority>
  NVIC_EnableIRQ(DMA1_Channel7_IRQn);
 8001528:	2011      	movs	r0, #17
 800152a:	f7ff ff91 	bl	8001450 <NVIC_EnableIRQ>

}
 800152e:	bf00      	nop
 8001530:	bd80      	pop	{r7, pc}
	...

08001534 <LL_AHB1_GRP1_EnableClock>:
{
 8001534:	b480      	push	{r7}
 8001536:	b085      	sub	sp, #20
 8001538:	af00      	add	r7, sp, #0
 800153a:	6078      	str	r0, [r7, #4]
  SET_BIT(RCC->AHBENR, Periphs);
 800153c:	4b08      	ldr	r3, [pc, #32]	; (8001560 <LL_AHB1_GRP1_EnableClock+0x2c>)
 800153e:	695a      	ldr	r2, [r3, #20]
 8001540:	4907      	ldr	r1, [pc, #28]	; (8001560 <LL_AHB1_GRP1_EnableClock+0x2c>)
 8001542:	687b      	ldr	r3, [r7, #4]
 8001544:	4313      	orrs	r3, r2
 8001546:	614b      	str	r3, [r1, #20]
  tmpreg = READ_BIT(RCC->AHBENR, Periphs);
 8001548:	4b05      	ldr	r3, [pc, #20]	; (8001560 <LL_AHB1_GRP1_EnableClock+0x2c>)
 800154a:	695a      	ldr	r2, [r3, #20]
 800154c:	687b      	ldr	r3, [r7, #4]
 800154e:	4013      	ands	r3, r2
 8001550:	60fb      	str	r3, [r7, #12]
  (void)tmpreg;
 8001552:	68fb      	ldr	r3, [r7, #12]
}
 8001554:	bf00      	nop
 8001556:	3714      	adds	r7, #20
 8001558:	46bd      	mov	sp, r7
 800155a:	f85d 7b04 	ldr.w	r7, [sp], #4
 800155e:	4770      	bx	lr
 8001560:	40021000 	.word	0x40021000

08001564 <LL_GPIO_ResetOutputPin>:
  *         @arg @ref LL_GPIO_PIN_15
  *         @arg @ref LL_GPIO_PIN_ALL
  * @retval None
  */
__STATIC_INLINE void LL_GPIO_ResetOutputPin(GPIO_TypeDef *GPIOx, uint32_t PinMask)
{
 8001564:	b480      	push	{r7}
 8001566:	b083      	sub	sp, #12
 8001568:	af00      	add	r7, sp, #0
 800156a:	6078      	str	r0, [r7, #4]
 800156c:	6039      	str	r1, [r7, #0]
  WRITE_REG(GPIOx->BRR, PinMask);
 800156e:	687b      	ldr	r3, [r7, #4]
 8001570:	683a      	ldr	r2, [r7, #0]
 8001572:	629a      	str	r2, [r3, #40]	; 0x28
}
 8001574:	bf00      	nop
 8001576:	370c      	adds	r7, #12
 8001578:	46bd      	mov	sp, r7
 800157a:	f85d 7b04 	ldr.w	r7, [sp], #4
 800157e:	4770      	bx	lr

08001580 <MX_GPIO_Init>:
/* USER CODE END 1 */

/** Configure pins
*/
void MX_GPIO_Init(void)
{
 8001580:	b580      	push	{r7, lr}
 8001582:	b086      	sub	sp, #24
 8001584:	af00      	add	r7, sp, #0

  LL_GPIO_InitTypeDef GPIO_InitStruct = {0};
 8001586:	463b      	mov	r3, r7
 8001588:	2200      	movs	r2, #0
 800158a:	601a      	str	r2, [r3, #0]
 800158c:	605a      	str	r2, [r3, #4]
 800158e:	609a      	str	r2, [r3, #8]
 8001590:	60da      	str	r2, [r3, #12]
 8001592:	611a      	str	r2, [r3, #16]
 8001594:	615a      	str	r2, [r3, #20]

  /* GPIO Ports Clock Enable */
  LL_AHB1_GRP1_EnableClock(LL_AHB1_GRP1_PERIPH_GPIOA);
 8001596:	f44f 3000 	mov.w	r0, #131072	; 0x20000
 800159a:	f7ff ffcb 	bl	8001534 <LL_AHB1_GRP1_EnableClock>
  LL_AHB1_GRP1_EnableClock(LL_AHB1_GRP1_PERIPH_GPIOB);
 800159e:	f44f 2080 	mov.w	r0, #262144	; 0x40000
 80015a2:	f7ff ffc7 	bl	8001534 <LL_AHB1_GRP1_EnableClock>

  /**/
  LL_GPIO_ResetOutputPin(GPIOB, LL_GPIO_PIN_3);
 80015a6:	2108      	movs	r1, #8
 80015a8:	480a      	ldr	r0, [pc, #40]	; (80015d4 <MX_GPIO_Init+0x54>)
 80015aa:	f7ff ffdb 	bl	8001564 <LL_GPIO_ResetOutputPin>

  /**/
  GPIO_InitStruct.Pin = LL_GPIO_PIN_3;
 80015ae:	2308      	movs	r3, #8
 80015b0:	603b      	str	r3, [r7, #0]
  GPIO_InitStruct.Mode = LL_GPIO_MODE_OUTPUT;
 80015b2:	2301      	movs	r3, #1
 80015b4:	607b      	str	r3, [r7, #4]
  GPIO_InitStruct.Speed = LL_GPIO_SPEED_FREQ_LOW;
 80015b6:	2300      	movs	r3, #0
 80015b8:	60bb      	str	r3, [r7, #8]
  GPIO_InitStruct.OutputType = LL_GPIO_OUTPUT_PUSHPULL;
 80015ba:	2300      	movs	r3, #0
 80015bc:	60fb      	str	r3, [r7, #12]
  GPIO_InitStruct.Pull = LL_GPIO_PULL_NO;
 80015be:	2300      	movs	r3, #0
 80015c0:	613b      	str	r3, [r7, #16]
  LL_GPIO_Init(GPIOB, &GPIO_InitStruct);
 80015c2:	463b      	mov	r3, r7
 80015c4:	4619      	mov	r1, r3
 80015c6:	4803      	ldr	r0, [pc, #12]	; (80015d4 <MX_GPIO_Init+0x54>)
 80015c8:	f7ff fbe9 	bl	8000d9e <LL_GPIO_Init>

}
 80015cc:	bf00      	nop
 80015ce:	3718      	adds	r7, #24
 80015d0:	46bd      	mov	sp, r7
 80015d2:	bd80      	pop	{r7, pc}
 80015d4:	48000400 	.word	0x48000400

080015d8 <NVIC_SetPriorityGrouping>:
{
 80015d8:	b480      	push	{r7}
 80015da:	b085      	sub	sp, #20
 80015dc:	af00      	add	r7, sp, #0
 80015de:	6078      	str	r0, [r7, #4]
  uint32_t PriorityGroupTmp = (PriorityGroup & (uint32_t)0x07UL);             /* only values 0..7 are used          */
 80015e0:	687b      	ldr	r3, [r7, #4]
 80015e2:	f003 0307 	and.w	r3, r3, #7
 80015e6:	60fb      	str	r3, [r7, #12]
  reg_value  =  SCB->AIRCR;                                                   /* read old register configuration    */
 80015e8:	4b0c      	ldr	r3, [pc, #48]	; (800161c <NVIC_SetPriorityGrouping+0x44>)
 80015ea:	68db      	ldr	r3, [r3, #12]
 80015ec:	60bb      	str	r3, [r7, #8]
  reg_value &= ~((uint32_t)(SCB_AIRCR_VECTKEY_Msk | SCB_AIRCR_PRIGROUP_Msk)); /* clear bits to change               */
 80015ee:	68ba      	ldr	r2, [r7, #8]
 80015f0:	f64f 03ff 	movw	r3, #63743	; 0xf8ff
 80015f4:	4013      	ands	r3, r2
 80015f6:	60bb      	str	r3, [r7, #8]
                (PriorityGroupTmp << 8U)                      );              /* Insert write key and priorty group */
 80015f8:	68fb      	ldr	r3, [r7, #12]
 80015fa:	021a      	lsls	r2, r3, #8
                ((uint32_t)0x5FAUL << SCB_AIRCR_VECTKEY_Pos) |
 80015fc:	68bb      	ldr	r3, [r7, #8]
 80015fe:	4313      	orrs	r3, r2
  reg_value  =  (reg_value                                   |
 8001600:	f043 63bf 	orr.w	r3, r3, #100139008	; 0x5f80000
 8001604:	f443 3300 	orr.w	r3, r3, #131072	; 0x20000
 8001608:	60bb      	str	r3, [r7, #8]
  SCB->AIRCR =  reg_value;
 800160a:	4a04      	ldr	r2, [pc, #16]	; (800161c <NVIC_SetPriorityGrouping+0x44>)
 800160c:	68bb      	ldr	r3, [r7, #8]
 800160e:	60d3      	str	r3, [r2, #12]
}
 8001610:	bf00      	nop
 8001612:	3714      	adds	r7, #20
 8001614:	46bd      	mov	sp, r7
 8001616:	f85d 7b04 	ldr.w	r7, [sp], #4
 800161a:	4770      	bx	lr
 800161c:	e000ed00 	.word	0xe000ed00

08001620 <LL_RCC_HSI_Enable>:
{
 8001620:	b480      	push	{r7}
 8001622:	af00      	add	r7, sp, #0
  SET_BIT(RCC->CR, RCC_CR_HSION);
 8001624:	4b05      	ldr	r3, [pc, #20]	; (800163c <LL_RCC_HSI_Enable+0x1c>)
 8001626:	681b      	ldr	r3, [r3, #0]
 8001628:	4a04      	ldr	r2, [pc, #16]	; (800163c <LL_RCC_HSI_Enable+0x1c>)
 800162a:	f043 0301 	orr.w	r3, r3, #1
 800162e:	6013      	str	r3, [r2, #0]
}
 8001630:	bf00      	nop
 8001632:	46bd      	mov	sp, r7
 8001634:	f85d 7b04 	ldr.w	r7, [sp], #4
 8001638:	4770      	bx	lr
 800163a:	bf00      	nop
 800163c:	40021000 	.word	0x40021000

08001640 <LL_RCC_HSI_IsReady>:
{
 8001640:	b480      	push	{r7}
 8001642:	af00      	add	r7, sp, #0
  return (READ_BIT(RCC->CR, RCC_CR_HSIRDY) == (RCC_CR_HSIRDY));
 8001644:	4b06      	ldr	r3, [pc, #24]	; (8001660 <LL_RCC_HSI_IsReady+0x20>)
 8001646:	681b      	ldr	r3, [r3, #0]
 8001648:	f003 0302 	and.w	r3, r3, #2
 800164c:	2b02      	cmp	r3, #2
 800164e:	bf0c      	ite	eq
 8001650:	2301      	moveq	r3, #1
 8001652:	2300      	movne	r3, #0
 8001654:	b2db      	uxtb	r3, r3
}
 8001656:	4618      	mov	r0, r3
 8001658:	46bd      	mov	sp, r7
 800165a:	f85d 7b04 	ldr.w	r7, [sp], #4
 800165e:	4770      	bx	lr
 8001660:	40021000 	.word	0x40021000

08001664 <LL_RCC_HSI_SetCalibTrimming>:
{
 8001664:	b480      	push	{r7}
 8001666:	b083      	sub	sp, #12
 8001668:	af00      	add	r7, sp, #0
 800166a:	6078      	str	r0, [r7, #4]
  MODIFY_REG(RCC->CR, RCC_CR_HSITRIM, Value << RCC_CR_HSITRIM_Pos);
 800166c:	4b07      	ldr	r3, [pc, #28]	; (800168c <LL_RCC_HSI_SetCalibTrimming+0x28>)
 800166e:	681b      	ldr	r3, [r3, #0]
 8001670:	f023 02f8 	bic.w	r2, r3, #248	; 0xf8
 8001674:	687b      	ldr	r3, [r7, #4]
 8001676:	00db      	lsls	r3, r3, #3
 8001678:	4904      	ldr	r1, [pc, #16]	; (800168c <LL_RCC_HSI_SetCalibTrimming+0x28>)
 800167a:	4313      	orrs	r3, r2
 800167c:	600b      	str	r3, [r1, #0]
}
 800167e:	bf00      	nop
 8001680:	370c      	adds	r7, #12
 8001682:	46bd      	mov	sp, r7
 8001684:	f85d 7b04 	ldr.w	r7, [sp], #4
 8001688:	4770      	bx	lr
 800168a:	bf00      	nop
 800168c:	40021000 	.word	0x40021000

08001690 <LL_RCC_SetSysClkSource>:
{
 8001690:	b480      	push	{r7}
 8001692:	b083      	sub	sp, #12
 8001694:	af00      	add	r7, sp, #0
 8001696:	6078      	str	r0, [r7, #4]
  MODIFY_REG(RCC->CFGR, RCC_CFGR_SW, Source);
 8001698:	4b06      	ldr	r3, [pc, #24]	; (80016b4 <LL_RCC_SetSysClkSource+0x24>)
 800169a:	685b      	ldr	r3, [r3, #4]
 800169c:	f023 0203 	bic.w	r2, r3, #3
 80016a0:	4904      	ldr	r1, [pc, #16]	; (80016b4 <LL_RCC_SetSysClkSource+0x24>)
 80016a2:	687b      	ldr	r3, [r7, #4]
 80016a4:	4313      	orrs	r3, r2
 80016a6:	604b      	str	r3, [r1, #4]
}
 80016a8:	bf00      	nop
 80016aa:	370c      	adds	r7, #12
 80016ac:	46bd      	mov	sp, r7
 80016ae:	f85d 7b04 	ldr.w	r7, [sp], #4
 80016b2:	4770      	bx	lr
 80016b4:	40021000 	.word	0x40021000

080016b8 <LL_RCC_GetSysClkSource>:
{
 80016b8:	b480      	push	{r7}
 80016ba:	af00      	add	r7, sp, #0
  return (uint32_t)(READ_BIT(RCC->CFGR, RCC_CFGR_SWS));
 80016bc:	4b04      	ldr	r3, [pc, #16]	; (80016d0 <LL_RCC_GetSysClkSource+0x18>)
 80016be:	685b      	ldr	r3, [r3, #4]
 80016c0:	f003 030c 	and.w	r3, r3, #12
}
 80016c4:	4618      	mov	r0, r3
 80016c6:	46bd      	mov	sp, r7
 80016c8:	f85d 7b04 	ldr.w	r7, [sp], #4
 80016cc:	4770      	bx	lr
 80016ce:	bf00      	nop
 80016d0:	40021000 	.word	0x40021000

080016d4 <LL_RCC_SetAHBPrescaler>:
{
 80016d4:	b480      	push	{r7}
 80016d6:	b083      	sub	sp, #12
 80016d8:	af00      	add	r7, sp, #0
 80016da:	6078      	str	r0, [r7, #4]
  MODIFY_REG(RCC->CFGR, RCC_CFGR_HPRE, Prescaler);
 80016dc:	4b06      	ldr	r3, [pc, #24]	; (80016f8 <LL_RCC_SetAHBPrescaler+0x24>)
 80016de:	685b      	ldr	r3, [r3, #4]
 80016e0:	f023 02f0 	bic.w	r2, r3, #240	; 0xf0
 80016e4:	4904      	ldr	r1, [pc, #16]	; (80016f8 <LL_RCC_SetAHBPrescaler+0x24>)
 80016e6:	687b      	ldr	r3, [r7, #4]
 80016e8:	4313      	orrs	r3, r2
 80016ea:	604b      	str	r3, [r1, #4]
}
 80016ec:	bf00      	nop
 80016ee:	370c      	adds	r7, #12
 80016f0:	46bd      	mov	sp, r7
 80016f2:	f85d 7b04 	ldr.w	r7, [sp], #4
 80016f6:	4770      	bx	lr
 80016f8:	40021000 	.word	0x40021000

080016fc <LL_RCC_SetAPB1Prescaler>:
{
 80016fc:	b480      	push	{r7}
 80016fe:	b083      	sub	sp, #12
 8001700:	af00      	add	r7, sp, #0
 8001702:	6078      	str	r0, [r7, #4]
  MODIFY_REG(RCC->CFGR, RCC_CFGR_PPRE1, Prescaler);
 8001704:	4b06      	ldr	r3, [pc, #24]	; (8001720 <LL_RCC_SetAPB1Prescaler+0x24>)
 8001706:	685b      	ldr	r3, [r3, #4]
 8001708:	f423 62e0 	bic.w	r2, r3, #1792	; 0x700
 800170c:	4904      	ldr	r1, [pc, #16]	; (8001720 <LL_RCC_SetAPB1Prescaler+0x24>)
 800170e:	687b      	ldr	r3, [r7, #4]
 8001710:	4313      	orrs	r3, r2
 8001712:	604b      	str	r3, [r1, #4]
}
 8001714:	bf00      	nop
 8001716:	370c      	adds	r7, #12
 8001718:	46bd      	mov	sp, r7
 800171a:	f85d 7b04 	ldr.w	r7, [sp], #4
 800171e:	4770      	bx	lr
 8001720:	40021000 	.word	0x40021000

08001724 <LL_RCC_SetAPB2Prescaler>:
{
 8001724:	b480      	push	{r7}
 8001726:	b083      	sub	sp, #12
 8001728:	af00      	add	r7, sp, #0
 800172a:	6078      	str	r0, [r7, #4]
  MODIFY_REG(RCC->CFGR, RCC_CFGR_PPRE2, Prescaler);
 800172c:	4b06      	ldr	r3, [pc, #24]	; (8001748 <LL_RCC_SetAPB2Prescaler+0x24>)
 800172e:	685b      	ldr	r3, [r3, #4]
 8001730:	f423 5260 	bic.w	r2, r3, #14336	; 0x3800
 8001734:	4904      	ldr	r1, [pc, #16]	; (8001748 <LL_RCC_SetAPB2Prescaler+0x24>)
 8001736:	687b      	ldr	r3, [r7, #4]
 8001738:	4313      	orrs	r3, r2
 800173a:	604b      	str	r3, [r1, #4]
}
 800173c:	bf00      	nop
 800173e:	370c      	adds	r7, #12
 8001740:	46bd      	mov	sp, r7
 8001742:	f85d 7b04 	ldr.w	r7, [sp], #4
 8001746:	4770      	bx	lr
 8001748:	40021000 	.word	0x40021000

0800174c <LL_APB1_GRP1_EnableClock>:
  *
  *         (*) value not defined in all devices.
  * @retval None
*/
__STATIC_INLINE void LL_APB1_GRP1_EnableClock(uint32_t Periphs)
{
 800174c:	b480      	push	{r7}
 800174e:	b085      	sub	sp, #20
 8001750:	af00      	add	r7, sp, #0
 8001752:	6078      	str	r0, [r7, #4]
  __IO uint32_t tmpreg;
  SET_BIT(RCC->APB1ENR, Periphs);
 8001754:	4b08      	ldr	r3, [pc, #32]	; (8001778 <LL_APB1_GRP1_EnableClock+0x2c>)
 8001756:	69da      	ldr	r2, [r3, #28]
 8001758:	4907      	ldr	r1, [pc, #28]	; (8001778 <LL_APB1_GRP1_EnableClock+0x2c>)
 800175a:	687b      	ldr	r3, [r7, #4]
 800175c:	4313      	orrs	r3, r2
 800175e:	61cb      	str	r3, [r1, #28]
  /* Delay after an RCC peripheral clock enabling */
  tmpreg = READ_BIT(RCC->APB1ENR, Periphs);
 8001760:	4b05      	ldr	r3, [pc, #20]	; (8001778 <LL_APB1_GRP1_EnableClock+0x2c>)
 8001762:	69da      	ldr	r2, [r3, #28]
 8001764:	687b      	ldr	r3, [r7, #4]
 8001766:	4013      	ands	r3, r2
 8001768:	60fb      	str	r3, [r7, #12]
  (void)tmpreg;
 800176a:	68fb      	ldr	r3, [r7, #12]
}
 800176c:	bf00      	nop
 800176e:	3714      	adds	r7, #20
 8001770:	46bd      	mov	sp, r7
 8001772:	f85d 7b04 	ldr.w	r7, [sp], #4
 8001776:	4770      	bx	lr
 8001778:	40021000 	.word	0x40021000

0800177c <LL_APB2_GRP1_EnableClock>:
  *
  *         (*) value not defined in all devices.
  * @retval None
*/
__STATIC_INLINE void LL_APB2_GRP1_EnableClock(uint32_t Periphs)
{
 800177c:	b480      	push	{r7}
 800177e:	b085      	sub	sp, #20
 8001780:	af00      	add	r7, sp, #0
 8001782:	6078      	str	r0, [r7, #4]
  __IO uint32_t tmpreg;
  SET_BIT(RCC->APB2ENR, Periphs);
 8001784:	4b08      	ldr	r3, [pc, #32]	; (80017a8 <LL_APB2_GRP1_EnableClock+0x2c>)
 8001786:	699a      	ldr	r2, [r3, #24]
 8001788:	4907      	ldr	r1, [pc, #28]	; (80017a8 <LL_APB2_GRP1_EnableClock+0x2c>)
 800178a:	687b      	ldr	r3, [r7, #4]
 800178c:	4313      	orrs	r3, r2
 800178e:	618b      	str	r3, [r1, #24]
  /* Delay after an RCC peripheral clock enabling */
  tmpreg = READ_BIT(RCC->APB2ENR, Periphs);
 8001790:	4b05      	ldr	r3, [pc, #20]	; (80017a8 <LL_APB2_GRP1_EnableClock+0x2c>)
 8001792:	699a      	ldr	r2, [r3, #24]
 8001794:	687b      	ldr	r3, [r7, #4]
 8001796:	4013      	ands	r3, r2
 8001798:	60fb      	str	r3, [r7, #12]
  (void)tmpreg;
 800179a:	68fb      	ldr	r3, [r7, #12]
}
 800179c:	bf00      	nop
 800179e:	3714      	adds	r7, #20
 80017a0:	46bd      	mov	sp, r7
 80017a2:	f85d 7b04 	ldr.w	r7, [sp], #4
 80017a6:	4770      	bx	lr
 80017a8:	40021000 	.word	0x40021000

080017ac <LL_FLASH_SetLatency>:
  *         @arg @ref LL_FLASH_LATENCY_1
  *         @arg @ref LL_FLASH_LATENCY_2
  * @retval None
  */
__STATIC_INLINE void LL_FLASH_SetLatency(uint32_t Latency)
{
 80017ac:	b480      	push	{r7}
 80017ae:	b083      	sub	sp, #12
 80017b0:	af00      	add	r7, sp, #0
 80017b2:	6078      	str	r0, [r7, #4]
  MODIFY_REG(FLASH->ACR, FLASH_ACR_LATENCY, Latency);
 80017b4:	4b06      	ldr	r3, [pc, #24]	; (80017d0 <LL_FLASH_SetLatency+0x24>)
 80017b6:	681b      	ldr	r3, [r3, #0]
 80017b8:	f023 0207 	bic.w	r2, r3, #7
 80017bc:	4904      	ldr	r1, [pc, #16]	; (80017d0 <LL_FLASH_SetLatency+0x24>)
 80017be:	687b      	ldr	r3, [r7, #4]
 80017c0:	4313      	orrs	r3, r2
 80017c2:	600b      	str	r3, [r1, #0]
}
 80017c4:	bf00      	nop
 80017c6:	370c      	adds	r7, #12
 80017c8:	46bd      	mov	sp, r7
 80017ca:	f85d 7b04 	ldr.w	r7, [sp], #4
 80017ce:	4770      	bx	lr
 80017d0:	40022000 	.word	0x40022000

080017d4 <LL_FLASH_GetLatency>:
  *         @arg @ref LL_FLASH_LATENCY_0
  *         @arg @ref LL_FLASH_LATENCY_1
  *         @arg @ref LL_FLASH_LATENCY_2
  */
__STATIC_INLINE uint32_t LL_FLASH_GetLatency(void)
{
 80017d4:	b480      	push	{r7}
 80017d6:	af00      	add	r7, sp, #0
  return (uint32_t)(READ_BIT(FLASH->ACR, FLASH_ACR_LATENCY));
 80017d8:	4b04      	ldr	r3, [pc, #16]	; (80017ec <LL_FLASH_GetLatency+0x18>)
 80017da:	681b      	ldr	r3, [r3, #0]
 80017dc:	f003 0307 	and.w	r3, r3, #7
}
 80017e0:	4618      	mov	r0, r3
 80017e2:	46bd      	mov	sp, r7
 80017e4:	f85d 7b04 	ldr.w	r7, [sp], #4
 80017e8:	4770      	bx	lr
 80017ea:	bf00      	nop
 80017ec:	40022000 	.word	0x40022000

080017f0 <LL_SYSTICK_SetClkSource>:
  *         @arg @ref LL_SYSTICK_CLKSOURCE_HCLK_DIV8
  *         @arg @ref LL_SYSTICK_CLKSOURCE_HCLK
  * @retval None
  */
__STATIC_INLINE void LL_SYSTICK_SetClkSource(uint32_t Source)
{
 80017f0:	b480      	push	{r7}
 80017f2:	b083      	sub	sp, #12
 80017f4:	af00      	add	r7, sp, #0
 80017f6:	6078      	str	r0, [r7, #4]
  if (Source == LL_SYSTICK_CLKSOURCE_HCLK)
 80017f8:	687b      	ldr	r3, [r7, #4]
 80017fa:	2b04      	cmp	r3, #4
 80017fc:	d106      	bne.n	800180c <LL_SYSTICK_SetClkSource+0x1c>
  {
    SET_BIT(SysTick->CTRL, LL_SYSTICK_CLKSOURCE_HCLK);
 80017fe:	4b09      	ldr	r3, [pc, #36]	; (8001824 <LL_SYSTICK_SetClkSource+0x34>)
 8001800:	681b      	ldr	r3, [r3, #0]
 8001802:	4a08      	ldr	r2, [pc, #32]	; (8001824 <LL_SYSTICK_SetClkSource+0x34>)
 8001804:	f043 0304 	orr.w	r3, r3, #4
 8001808:	6013      	str	r3, [r2, #0]
  }
  else
  {
    CLEAR_BIT(SysTick->CTRL, LL_SYSTICK_CLKSOURCE_HCLK);
  }
}
 800180a:	e005      	b.n	8001818 <LL_SYSTICK_SetClkSource+0x28>
    CLEAR_BIT(SysTick->CTRL, LL_SYSTICK_CLKSOURCE_HCLK);
 800180c:	4b05      	ldr	r3, [pc, #20]	; (8001824 <LL_SYSTICK_SetClkSource+0x34>)
 800180e:	681b      	ldr	r3, [r3, #0]
 8001810:	4a04      	ldr	r2, [pc, #16]	; (8001824 <LL_SYSTICK_SetClkSource+0x34>)
 8001812:	f023 0304 	bic.w	r3, r3, #4
 8001816:	6013      	str	r3, [r2, #0]
}
 8001818:	bf00      	nop
 800181a:	370c      	adds	r7, #12
 800181c:	46bd      	mov	sp, r7
 800181e:	f85d 7b04 	ldr.w	r7, [sp], #4
 8001822:	4770      	bx	lr
 8001824:	e000e010 	.word	0xe000e010

08001828 <main>:
letter_count_ LetterCount;
uint8_t SignStartDet = 0;
uint8_t SignEndDet = 0;
extern buffer_capacity_ BufferCapacity;

int main(void) {
 8001828:	b5b0      	push	{r4, r5, r7, lr}
 800182a:	b0b6      	sub	sp, #216	; 0xd8
 800182c:	af02      	add	r7, sp, #8
	/* MCU Configuration--------------------------------------------------------*/

	/* Reset of all peripherals, Initializes the Flash interface and the Systick. */
	LL_APB2_GRP1_EnableClock(LL_APB2_GRP1_PERIPH_SYSCFG);
 800182e:	2001      	movs	r0, #1
 8001830:	f7ff ffa4 	bl	800177c <LL_APB2_GRP1_EnableClock>
	LL_APB1_GRP1_EnableClock(LL_APB1_GRP1_PERIPH_PWR);
 8001834:	f04f 5080 	mov.w	r0, #268435456	; 0x10000000
 8001838:	f7ff ff88 	bl	800174c <LL_APB1_GRP1_EnableClock>
	NVIC_SetPriorityGrouping(NVIC_PRIORITYGROUP_4);
 800183c:	2003      	movs	r0, #3
 800183e:	f7ff fecb 	bl	80015d8 <NVIC_SetPriorityGrouping>

	/* Configure the system clock */
	SystemClock_Config();
 8001842:	f000 f85d 	bl	8001900 <SystemClock_Config>
	/* Initialize all configured peripherals */
	MX_GPIO_Init();
 8001846:	f7ff fe9b 	bl	8001580 <MX_GPIO_Init>
	MX_DMA_Init();
 800184a:	f7ff fe5d 	bl	8001508 <MX_DMA_Init>
	MX_USART2_UART_Init();
 800184e:	f000 fec1 	bl	80025d4 <MX_USART2_UART_Init>

	/* Space for your local variables, callback registration ...*/

	//type your code here:
	BufferCapacity.capacity = DMA_USART2_BUFFER_SIZE;
 8001852:	4b27      	ldr	r3, [pc, #156]	; (80018f0 <main+0xc8>)
 8001854:	f44f 7280 	mov.w	r2, #256	; 0x100
 8001858:	801a      	strh	r2, [r3, #0]
	BufferCapacity.reserved = 0;
 800185a:	4b25      	ldr	r3, [pc, #148]	; (80018f0 <main+0xc8>)
 800185c:	2200      	movs	r2, #0
 800185e:	805a      	strh	r2, [r3, #2]

	USART2_RegisterCallback(proccesDmaData);
 8001860:	4824      	ldr	r0, [pc, #144]	; (80018f4 <main+0xcc>)
 8001862:	f000 fea5 	bl	80025b0 <USART2_RegisterCallback>
	uint8_t tx_message[] =
 8001866:	4a24      	ldr	r2, [pc, #144]	; (80018f8 <main+0xd0>)
 8001868:	f107 0378 	add.w	r3, r7, #120	; 0x78
 800186c:	4611      	mov	r1, r2
 800186e:	2250      	movs	r2, #80	; 0x50
 8001870:	4618      	mov	r0, r3
 8001872:	f001 f86d 	bl	8002950 <memcpy>
		 * Example message (what I wish to see in terminal) - Buffer capacity: 1000 bytes, occupied memory: 231 bytes, load [in %]: 23.1%
		 */

		//type your code here:
		float usage =
				((float)BufferCapacity.reserved / (float)BufferCapacity.capacity)
 8001876:	4b1e      	ldr	r3, [pc, #120]	; (80018f0 <main+0xc8>)
 8001878:	885b      	ldrh	r3, [r3, #2]
 800187a:	ee07 3a90 	vmov	s15, r3
 800187e:	eef8 6a67 	vcvt.f32.u32	s13, s15
 8001882:	4b1b      	ldr	r3, [pc, #108]	; (80018f0 <main+0xc8>)
 8001884:	881b      	ldrh	r3, [r3, #0]
 8001886:	ee07 3a90 	vmov	s15, r3
 800188a:	eeb8 7a67 	vcvt.f32.u32	s14, s15
 800188e:	eec6 7a87 	vdiv.f32	s15, s13, s14
		float usage =
 8001892:	ed9f 7a1a 	vldr	s14, [pc, #104]	; 80018fc <main+0xd4>
 8001896:	ee67 7a87 	vmul.f32	s15, s15, s14
 800189a:	edc7 7a33 	vstr	s15, [r7, #204]	; 0xcc
						* 100.0;
		sprintf((char*) tx_data, (char*) tx_message, BufferCapacity.capacity,
 800189e:	4b14      	ldr	r3, [pc, #80]	; (80018f0 <main+0xc8>)
 80018a0:	881b      	ldrh	r3, [r3, #0]
 80018a2:	461c      	mov	r4, r3
				BufferCapacity.reserved,
 80018a4:	4b12      	ldr	r3, [pc, #72]	; (80018f0 <main+0xc8>)
 80018a6:	885b      	ldrh	r3, [r3, #2]
		sprintf((char*) tx_data, (char*) tx_message, BufferCapacity.capacity,
 80018a8:	461d      	mov	r5, r3
 80018aa:	f8d7 00cc 	ldr.w	r0, [r7, #204]	; 0xcc
 80018ae:	f7fe fe4b 	bl	8000548 <__aeabi_f2d>
 80018b2:	4602      	mov	r2, r0
 80018b4:	460b      	mov	r3, r1
 80018b6:	f107 0178 	add.w	r1, r7, #120	; 0x78
 80018ba:	4638      	mov	r0, r7
 80018bc:	e9cd 2300 	strd	r2, r3, [sp]
 80018c0:	462b      	mov	r3, r5
 80018c2:	4622      	mov	r2, r4
 80018c4:	f001 fcc4 	bl	8003250 <siprintf>
				usage);
		uint8_t tx_data_len = (uint8_t) strlen((char*) tx_data);
 80018c8:	463b      	mov	r3, r7
 80018ca:	4618      	mov	r0, r3
 80018cc:	f7fe fc80 	bl	80001d0 <strlen>
 80018d0:	4603      	mov	r3, r0
 80018d2:	f887 30cb 	strb.w	r3, [r7, #203]	; 0xcb
		USART2_PutBuffer(tx_data, tx_data_len);
 80018d6:	f897 20cb 	ldrb.w	r2, [r7, #203]	; 0xcb
 80018da:	463b      	mov	r3, r7
 80018dc:	4611      	mov	r1, r2
 80018de:	4618      	mov	r0, r3
 80018e0:	f000 ff5a 	bl	8002798 <USART2_PutBuffer>
		LL_mDelay(1000);
 80018e4:	f44f 707a 	mov.w	r0, #1000	; 0x3e8
 80018e8:	f7ff fd7c 	bl	80013e4 <LL_mDelay>
	while (1) {
 80018ec:	e7c3      	b.n	8001876 <main+0x4e>
 80018ee:	bf00      	nop
 80018f0:	2000020c 	.word	0x2000020c
 80018f4:	0800196d 	.word	0x0800196d
 80018f8:	080056a0 	.word	0x080056a0
 80018fc:	42c80000 	.word	0x42c80000

08001900 <SystemClock_Config>:
	}
	/* USER CODE END 3 */
}

void SystemClock_Config(void) {
 8001900:	b580      	push	{r7, lr}
 8001902:	af00      	add	r7, sp, #0
	LL_FLASH_SetLatency(LL_FLASH_LATENCY_0);
 8001904:	2000      	movs	r0, #0
 8001906:	f7ff ff51 	bl	80017ac <LL_FLASH_SetLatency>

	if (LL_FLASH_GetLatency() != LL_FLASH_LATENCY_0) {
 800190a:	f7ff ff63 	bl	80017d4 <LL_FLASH_GetLatency>
 800190e:	4603      	mov	r3, r0
 8001910:	2b00      	cmp	r3, #0
 8001912:	d001      	beq.n	8001918 <SystemClock_Config+0x18>
		Error_Handler();
 8001914:	f000 f896 	bl	8001a44 <Error_Handler>
	}
	LL_RCC_HSI_Enable();
 8001918:	f7ff fe82 	bl	8001620 <LL_RCC_HSI_Enable>

	/* Wait till HSI is ready */
	while (LL_RCC_HSI_IsReady() != 1) {
 800191c:	bf00      	nop
 800191e:	f7ff fe8f 	bl	8001640 <LL_RCC_HSI_IsReady>
 8001922:	4603      	mov	r3, r0
 8001924:	2b01      	cmp	r3, #1
 8001926:	d1fa      	bne.n	800191e <SystemClock_Config+0x1e>

	}
	LL_RCC_HSI_SetCalibTrimming(16);
 8001928:	2010      	movs	r0, #16
 800192a:	f7ff fe9b 	bl	8001664 <LL_RCC_HSI_SetCalibTrimming>
	LL_RCC_SetAHBPrescaler(LL_RCC_SYSCLK_DIV_1);
 800192e:	2000      	movs	r0, #0
 8001930:	f7ff fed0 	bl	80016d4 <LL_RCC_SetAHBPrescaler>
	LL_RCC_SetAPB1Prescaler(LL_RCC_APB1_DIV_1);
 8001934:	2000      	movs	r0, #0
 8001936:	f7ff fee1 	bl	80016fc <LL_RCC_SetAPB1Prescaler>
	LL_RCC_SetAPB2Prescaler(LL_RCC_APB1_DIV_1);
 800193a:	2000      	movs	r0, #0
 800193c:	f7ff fef2 	bl	8001724 <LL_RCC_SetAPB2Prescaler>
	LL_RCC_SetSysClkSource(LL_RCC_SYS_CLKSOURCE_HSI);
 8001940:	2000      	movs	r0, #0
 8001942:	f7ff fea5 	bl	8001690 <LL_RCC_SetSysClkSource>

	/* Wait till System clock is ready */
	while (LL_RCC_GetSysClkSource() != LL_RCC_SYS_CLKSOURCE_STATUS_HSI) {
 8001946:	bf00      	nop
 8001948:	f7ff feb6 	bl	80016b8 <LL_RCC_GetSysClkSource>
 800194c:	4603      	mov	r3, r0
 800194e:	2b00      	cmp	r3, #0
 8001950:	d1fa      	bne.n	8001948 <SystemClock_Config+0x48>

	}
	LL_Init1msTick(8000000);
 8001952:	4805      	ldr	r0, [pc, #20]	; (8001968 <SystemClock_Config+0x68>)
 8001954:	f7ff fd38 	bl	80013c8 <LL_Init1msTick>
	LL_SYSTICK_SetClkSource(LL_SYSTICK_CLKSOURCE_HCLK);
 8001958:	2004      	movs	r0, #4
 800195a:	f7ff ff49 	bl	80017f0 <LL_SYSTICK_SetClkSource>
	LL_SetSystemCoreClock(8000000);
 800195e:	4802      	ldr	r0, [pc, #8]	; (8001968 <SystemClock_Config+0x68>)
 8001960:	f7ff fd66 	bl	8001430 <LL_SetSystemCoreClock>
}
 8001964:	bf00      	nop
 8001966:	bd80      	pop	{r7, pc}
 8001968:	007a1200 	.word	0x007a1200

0800196c <proccesDmaData>:

/*
 * Implementation of function processing data received via USART.
 */
void proccesDmaData(uint8_t sign) {
 800196c:	b480      	push	{r7}
 800196e:	b083      	sub	sp, #12
 8001970:	af00      	add	r7, sp, #0
 8001972:	4603      	mov	r3, r0
 8001974:	71fb      	strb	r3, [r7, #7]
	/* Process received data */
	static uint8_t smallLetters = 0;
	static uint8_t capitalLetters = 0;
	static uint8_t receivedLetters = 0;
	if (sign == SIGN_FILE_START) {
 8001976:	79fb      	ldrb	r3, [r7, #7]
 8001978:	2b23      	cmp	r3, #35	; 0x23
 800197a:	d10e      	bne.n	800199a <proccesDmaData+0x2e>
		SignStartDet = 1;
 800197c:	4b2b      	ldr	r3, [pc, #172]	; (8001a2c <proccesDmaData+0xc0>)
 800197e:	2201      	movs	r2, #1
 8001980:	701a      	strb	r2, [r3, #0]
		SignEndDet = 0;
 8001982:	4b2b      	ldr	r3, [pc, #172]	; (8001a30 <proccesDmaData+0xc4>)
 8001984:	2200      	movs	r2, #0
 8001986:	701a      	strb	r2, [r3, #0]
		capitalLetters = 0;
 8001988:	4b2a      	ldr	r3, [pc, #168]	; (8001a34 <proccesDmaData+0xc8>)
 800198a:	2200      	movs	r2, #0
 800198c:	701a      	strb	r2, [r3, #0]
		smallLetters = 0;
 800198e:	4b2a      	ldr	r3, [pc, #168]	; (8001a38 <proccesDmaData+0xcc>)
 8001990:	2200      	movs	r2, #0
 8001992:	701a      	strb	r2, [r3, #0]
		receivedLetters = 0;
 8001994:	4b29      	ldr	r3, [pc, #164]	; (8001a3c <proccesDmaData+0xd0>)
 8001996:	2200      	movs	r2, #0
 8001998:	701a      	strb	r2, [r3, #0]
	}
	if (SignStartDet == 1 && receivedLetters < SIGN_RECEIVED_MAX_COUNT) {
 800199a:	4b24      	ldr	r3, [pc, #144]	; (8001a2c <proccesDmaData+0xc0>)
 800199c:	781b      	ldrb	r3, [r3, #0]
 800199e:	2b01      	cmp	r3, #1
 80019a0:	d127      	bne.n	80019f2 <proccesDmaData+0x86>
 80019a2:	4b26      	ldr	r3, [pc, #152]	; (8001a3c <proccesDmaData+0xd0>)
 80019a4:	781b      	ldrb	r3, [r3, #0]
 80019a6:	2b23      	cmp	r3, #35	; 0x23
 80019a8:	d823      	bhi.n	80019f2 <proccesDmaData+0x86>
		if (sign >= 'a' && sign <= 'z') {
 80019aa:	79fb      	ldrb	r3, [r7, #7]
 80019ac:	2b60      	cmp	r3, #96	; 0x60
 80019ae:	d908      	bls.n	80019c2 <proccesDmaData+0x56>
 80019b0:	79fb      	ldrb	r3, [r7, #7]
 80019b2:	2b7a      	cmp	r3, #122	; 0x7a
 80019b4:	d805      	bhi.n	80019c2 <proccesDmaData+0x56>
			smallLetters++;
 80019b6:	4b20      	ldr	r3, [pc, #128]	; (8001a38 <proccesDmaData+0xcc>)
 80019b8:	781b      	ldrb	r3, [r3, #0]
 80019ba:	3301      	adds	r3, #1
 80019bc:	b2da      	uxtb	r2, r3
 80019be:	4b1e      	ldr	r3, [pc, #120]	; (8001a38 <proccesDmaData+0xcc>)
 80019c0:	701a      	strb	r2, [r3, #0]
		}
		if (sign >= 'A' && sign <= 'Z') {
 80019c2:	79fb      	ldrb	r3, [r7, #7]
 80019c4:	2b40      	cmp	r3, #64	; 0x40
 80019c6:	d908      	bls.n	80019da <proccesDmaData+0x6e>
 80019c8:	79fb      	ldrb	r3, [r7, #7]
 80019ca:	2b5a      	cmp	r3, #90	; 0x5a
 80019cc:	d805      	bhi.n	80019da <proccesDmaData+0x6e>
			capitalLetters++;
 80019ce:	4b19      	ldr	r3, [pc, #100]	; (8001a34 <proccesDmaData+0xc8>)
 80019d0:	781b      	ldrb	r3, [r3, #0]
 80019d2:	3301      	adds	r3, #1
 80019d4:	b2da      	uxtb	r2, r3
 80019d6:	4b17      	ldr	r3, [pc, #92]	; (8001a34 <proccesDmaData+0xc8>)
 80019d8:	701a      	strb	r2, [r3, #0]
		}
		if (sign == SIGN_FILE_END) {
 80019da:	79fb      	ldrb	r3, [r7, #7]
 80019dc:	2b24      	cmp	r3, #36	; 0x24
 80019de:	d102      	bne.n	80019e6 <proccesDmaData+0x7a>
			SignEndDet = 1;
 80019e0:	4b13      	ldr	r3, [pc, #76]	; (8001a30 <proccesDmaData+0xc4>)
 80019e2:	2201      	movs	r2, #1
 80019e4:	701a      	strb	r2, [r3, #0]
		}
		receivedLetters++;
 80019e6:	4b15      	ldr	r3, [pc, #84]	; (8001a3c <proccesDmaData+0xd0>)
 80019e8:	781b      	ldrb	r3, [r3, #0]
 80019ea:	3301      	adds	r3, #1
 80019ec:	b2da      	uxtb	r2, r3
 80019ee:	4b13      	ldr	r3, [pc, #76]	; (8001a3c <proccesDmaData+0xd0>)
 80019f0:	701a      	strb	r2, [r3, #0]
	}
	if (SignStartDet
			== 1&& SignEndDet == 1 && receivedLetters <= SIGN_RECEIVED_MAX_COUNT) {
 80019f2:	4b0e      	ldr	r3, [pc, #56]	; (8001a2c <proccesDmaData+0xc0>)
 80019f4:	781b      	ldrb	r3, [r3, #0]
	if (SignStartDet
 80019f6:	2b01      	cmp	r3, #1
 80019f8:	d112      	bne.n	8001a20 <proccesDmaData+0xb4>
			== 1&& SignEndDet == 1 && receivedLetters <= SIGN_RECEIVED_MAX_COUNT) {
 80019fa:	4b0d      	ldr	r3, [pc, #52]	; (8001a30 <proccesDmaData+0xc4>)
 80019fc:	781b      	ldrb	r3, [r3, #0]
 80019fe:	2b01      	cmp	r3, #1
 8001a00:	d10e      	bne.n	8001a20 <proccesDmaData+0xb4>
 8001a02:	4b0e      	ldr	r3, [pc, #56]	; (8001a3c <proccesDmaData+0xd0>)
 8001a04:	781b      	ldrb	r3, [r3, #0]
 8001a06:	2b24      	cmp	r3, #36	; 0x24
 8001a08:	d80a      	bhi.n	8001a20 <proccesDmaData+0xb4>
		LetterCount.capital_letter = capitalLetters;
 8001a0a:	4b0a      	ldr	r3, [pc, #40]	; (8001a34 <proccesDmaData+0xc8>)
 8001a0c:	781a      	ldrb	r2, [r3, #0]
 8001a0e:	4b0c      	ldr	r3, [pc, #48]	; (8001a40 <proccesDmaData+0xd4>)
 8001a10:	705a      	strb	r2, [r3, #1]
		LetterCount.small_letter = smallLetters;
 8001a12:	4b09      	ldr	r3, [pc, #36]	; (8001a38 <proccesDmaData+0xcc>)
 8001a14:	781a      	ldrb	r2, [r3, #0]
 8001a16:	4b0a      	ldr	r3, [pc, #40]	; (8001a40 <proccesDmaData+0xd4>)
 8001a18:	701a      	strb	r2, [r3, #0]
		SignStartDet = 0;
 8001a1a:	4b04      	ldr	r3, [pc, #16]	; (8001a2c <proccesDmaData+0xc0>)
 8001a1c:	2200      	movs	r2, #0
 8001a1e:	701a      	strb	r2, [r3, #0]
	}
}
 8001a20:	bf00      	nop
 8001a22:	370c      	adds	r7, #12
 8001a24:	46bd      	mov	sp, r7
 8001a26:	f85d 7b04 	ldr.w	r7, [sp], #4
 8001a2a:	4770      	bx	lr
 8001a2c:	200001f0 	.word	0x200001f0
 8001a30:	200001f1 	.word	0x200001f1
 8001a34:	200001f2 	.word	0x200001f2
 8001a38:	200001f3 	.word	0x200001f3
 8001a3c:	200001f4 	.word	0x200001f4
 8001a40:	20000210 	.word	0x20000210

08001a44 <Error_Handler>:

void Error_Handler(void) {
 8001a44:	b480      	push	{r7}
 8001a46:	af00      	add	r7, sp, #0

}
 8001a48:	bf00      	nop
 8001a4a:	46bd      	mov	sp, r7
 8001a4c:	f85d 7b04 	ldr.w	r7, [sp], #4
 8001a50:	4770      	bx	lr
	...

08001a54 <LL_DMA_DisableChannel>:
  *         @arg @ref LL_DMA_CHANNEL_6
  *         @arg @ref LL_DMA_CHANNEL_7
  * @retval None
  */
__STATIC_INLINE void LL_DMA_DisableChannel(DMA_TypeDef *DMAx, uint32_t Channel)
{
 8001a54:	b480      	push	{r7}
 8001a56:	b083      	sub	sp, #12
 8001a58:	af00      	add	r7, sp, #0
 8001a5a:	6078      	str	r0, [r7, #4]
 8001a5c:	6039      	str	r1, [r7, #0]
  CLEAR_BIT(((DMA_Channel_TypeDef *)((uint32_t)((uint32_t)DMAx + CHANNEL_OFFSET_TAB[Channel - 1U])))->CCR, DMA_CCR_EN);
 8001a5e:	683b      	ldr	r3, [r7, #0]
 8001a60:	3b01      	subs	r3, #1
 8001a62:	4a0b      	ldr	r2, [pc, #44]	; (8001a90 <LL_DMA_DisableChannel+0x3c>)
 8001a64:	5cd3      	ldrb	r3, [r2, r3]
 8001a66:	461a      	mov	r2, r3
 8001a68:	687b      	ldr	r3, [r7, #4]
 8001a6a:	4413      	add	r3, r2
 8001a6c:	681b      	ldr	r3, [r3, #0]
 8001a6e:	683a      	ldr	r2, [r7, #0]
 8001a70:	3a01      	subs	r2, #1
 8001a72:	4907      	ldr	r1, [pc, #28]	; (8001a90 <LL_DMA_DisableChannel+0x3c>)
 8001a74:	5c8a      	ldrb	r2, [r1, r2]
 8001a76:	4611      	mov	r1, r2
 8001a78:	687a      	ldr	r2, [r7, #4]
 8001a7a:	440a      	add	r2, r1
 8001a7c:	f023 0301 	bic.w	r3, r3, #1
 8001a80:	6013      	str	r3, [r2, #0]
}
 8001a82:	bf00      	nop
 8001a84:	370c      	adds	r7, #12
 8001a86:	46bd      	mov	sp, r7
 8001a88:	f85d 7b04 	ldr.w	r7, [sp], #4
 8001a8c:	4770      	bx	lr
 8001a8e:	bf00      	nop
 8001a90:	080056f0 	.word	0x080056f0

08001a94 <LL_DMA_IsActiveFlag_TC6>:
  * @rmtoll ISR          TCIF6         LL_DMA_IsActiveFlag_TC6
  * @param  DMAx DMAx Instance
  * @retval State of bit (1 or 0).
  */
__STATIC_INLINE uint32_t LL_DMA_IsActiveFlag_TC6(DMA_TypeDef *DMAx)
{
 8001a94:	b480      	push	{r7}
 8001a96:	b083      	sub	sp, #12
 8001a98:	af00      	add	r7, sp, #0
 8001a9a:	6078      	str	r0, [r7, #4]
  return (READ_BIT(DMAx->ISR, DMA_ISR_TCIF6) == (DMA_ISR_TCIF6));
 8001a9c:	687b      	ldr	r3, [r7, #4]
 8001a9e:	681b      	ldr	r3, [r3, #0]
 8001aa0:	f403 1300 	and.w	r3, r3, #2097152	; 0x200000
 8001aa4:	f5b3 1f00 	cmp.w	r3, #2097152	; 0x200000
 8001aa8:	bf0c      	ite	eq
 8001aaa:	2301      	moveq	r3, #1
 8001aac:	2300      	movne	r3, #0
 8001aae:	b2db      	uxtb	r3, r3
}
 8001ab0:	4618      	mov	r0, r3
 8001ab2:	370c      	adds	r7, #12
 8001ab4:	46bd      	mov	sp, r7
 8001ab6:	f85d 7b04 	ldr.w	r7, [sp], #4
 8001aba:	4770      	bx	lr

08001abc <LL_DMA_IsActiveFlag_TC7>:
  * @rmtoll ISR          TCIF7         LL_DMA_IsActiveFlag_TC7
  * @param  DMAx DMAx Instance
  * @retval State of bit (1 or 0).
  */
__STATIC_INLINE uint32_t LL_DMA_IsActiveFlag_TC7(DMA_TypeDef *DMAx)
{
 8001abc:	b480      	push	{r7}
 8001abe:	b083      	sub	sp, #12
 8001ac0:	af00      	add	r7, sp, #0
 8001ac2:	6078      	str	r0, [r7, #4]
  return (READ_BIT(DMAx->ISR, DMA_ISR_TCIF7) == (DMA_ISR_TCIF7));
 8001ac4:	687b      	ldr	r3, [r7, #4]
 8001ac6:	681b      	ldr	r3, [r3, #0]
 8001ac8:	f003 7300 	and.w	r3, r3, #33554432	; 0x2000000
 8001acc:	f1b3 7f00 	cmp.w	r3, #33554432	; 0x2000000
 8001ad0:	bf0c      	ite	eq
 8001ad2:	2301      	moveq	r3, #1
 8001ad4:	2300      	movne	r3, #0
 8001ad6:	b2db      	uxtb	r3, r3
}
 8001ad8:	4618      	mov	r0, r3
 8001ada:	370c      	adds	r7, #12
 8001adc:	46bd      	mov	sp, r7
 8001ade:	f85d 7b04 	ldr.w	r7, [sp], #4
 8001ae2:	4770      	bx	lr

08001ae4 <LL_DMA_IsActiveFlag_HT6>:
  * @rmtoll ISR          HTIF6         LL_DMA_IsActiveFlag_HT6
  * @param  DMAx DMAx Instance
  * @retval State of bit (1 or 0).
  */
__STATIC_INLINE uint32_t LL_DMA_IsActiveFlag_HT6(DMA_TypeDef *DMAx)
{
 8001ae4:	b480      	push	{r7}
 8001ae6:	b083      	sub	sp, #12
 8001ae8:	af00      	add	r7, sp, #0
 8001aea:	6078      	str	r0, [r7, #4]
  return (READ_BIT(DMAx->ISR, DMA_ISR_HTIF6) == (DMA_ISR_HTIF6));
 8001aec:	687b      	ldr	r3, [r7, #4]
 8001aee:	681b      	ldr	r3, [r3, #0]
 8001af0:	f403 0380 	and.w	r3, r3, #4194304	; 0x400000
 8001af4:	f5b3 0f80 	cmp.w	r3, #4194304	; 0x400000
 8001af8:	bf0c      	ite	eq
 8001afa:	2301      	moveq	r3, #1
 8001afc:	2300      	movne	r3, #0
 8001afe:	b2db      	uxtb	r3, r3
}
 8001b00:	4618      	mov	r0, r3
 8001b02:	370c      	adds	r7, #12
 8001b04:	46bd      	mov	sp, r7
 8001b06:	f85d 7b04 	ldr.w	r7, [sp], #4
 8001b0a:	4770      	bx	lr

08001b0c <LL_DMA_ClearFlag_TC6>:
  * @rmtoll IFCR         CTCIF6        LL_DMA_ClearFlag_TC6
  * @param  DMAx DMAx Instance
  * @retval None
  */
__STATIC_INLINE void LL_DMA_ClearFlag_TC6(DMA_TypeDef *DMAx)
{
 8001b0c:	b480      	push	{r7}
 8001b0e:	b083      	sub	sp, #12
 8001b10:	af00      	add	r7, sp, #0
 8001b12:	6078      	str	r0, [r7, #4]
  WRITE_REG(DMAx->IFCR, DMA_IFCR_CTCIF6);
 8001b14:	687b      	ldr	r3, [r7, #4]
 8001b16:	f44f 1200 	mov.w	r2, #2097152	; 0x200000
 8001b1a:	605a      	str	r2, [r3, #4]
}
 8001b1c:	bf00      	nop
 8001b1e:	370c      	adds	r7, #12
 8001b20:	46bd      	mov	sp, r7
 8001b22:	f85d 7b04 	ldr.w	r7, [sp], #4
 8001b26:	4770      	bx	lr

08001b28 <LL_DMA_ClearFlag_TC7>:
  * @rmtoll IFCR         CTCIF7        LL_DMA_ClearFlag_TC7
  * @param  DMAx DMAx Instance
  * @retval None
  */
__STATIC_INLINE void LL_DMA_ClearFlag_TC7(DMA_TypeDef *DMAx)
{
 8001b28:	b480      	push	{r7}
 8001b2a:	b083      	sub	sp, #12
 8001b2c:	af00      	add	r7, sp, #0
 8001b2e:	6078      	str	r0, [r7, #4]
  WRITE_REG(DMAx->IFCR, DMA_IFCR_CTCIF7);
 8001b30:	687b      	ldr	r3, [r7, #4]
 8001b32:	f04f 7200 	mov.w	r2, #33554432	; 0x2000000
 8001b36:	605a      	str	r2, [r3, #4]
}
 8001b38:	bf00      	nop
 8001b3a:	370c      	adds	r7, #12
 8001b3c:	46bd      	mov	sp, r7
 8001b3e:	f85d 7b04 	ldr.w	r7, [sp], #4
 8001b42:	4770      	bx	lr

08001b44 <LL_DMA_ClearFlag_HT6>:
  * @rmtoll IFCR         CHTIF6        LL_DMA_ClearFlag_HT6
  * @param  DMAx DMAx Instance
  * @retval None
  */
__STATIC_INLINE void LL_DMA_ClearFlag_HT6(DMA_TypeDef *DMAx)
{
 8001b44:	b480      	push	{r7}
 8001b46:	b083      	sub	sp, #12
 8001b48:	af00      	add	r7, sp, #0
 8001b4a:	6078      	str	r0, [r7, #4]
  WRITE_REG(DMAx->IFCR, DMA_IFCR_CHTIF6);
 8001b4c:	687b      	ldr	r3, [r7, #4]
 8001b4e:	f44f 0280 	mov.w	r2, #4194304	; 0x400000
 8001b52:	605a      	str	r2, [r3, #4]
}
 8001b54:	bf00      	nop
 8001b56:	370c      	adds	r7, #12
 8001b58:	46bd      	mov	sp, r7
 8001b5a:	f85d 7b04 	ldr.w	r7, [sp], #4
 8001b5e:	4770      	bx	lr

08001b60 <LL_USART_IsActiveFlag_IDLE>:
  * @rmtoll ISR          IDLE          LL_USART_IsActiveFlag_IDLE
  * @param  USARTx USART Instance
  * @retval State of bit (1 or 0).
  */
__STATIC_INLINE uint32_t LL_USART_IsActiveFlag_IDLE(USART_TypeDef *USARTx)
{
 8001b60:	b480      	push	{r7}
 8001b62:	b083      	sub	sp, #12
 8001b64:	af00      	add	r7, sp, #0
 8001b66:	6078      	str	r0, [r7, #4]
  return (READ_BIT(USARTx->ISR, USART_ISR_IDLE) == (USART_ISR_IDLE));
 8001b68:	687b      	ldr	r3, [r7, #4]
 8001b6a:	69db      	ldr	r3, [r3, #28]
 8001b6c:	f003 0310 	and.w	r3, r3, #16
 8001b70:	2b10      	cmp	r3, #16
 8001b72:	bf0c      	ite	eq
 8001b74:	2301      	moveq	r3, #1
 8001b76:	2300      	movne	r3, #0
 8001b78:	b2db      	uxtb	r3, r3
}
 8001b7a:	4618      	mov	r0, r3
 8001b7c:	370c      	adds	r7, #12
 8001b7e:	46bd      	mov	sp, r7
 8001b80:	f85d 7b04 	ldr.w	r7, [sp], #4
 8001b84:	4770      	bx	lr

08001b86 <LL_USART_IsActiveFlag_TC>:
  * @rmtoll ISR          TC            LL_USART_IsActiveFlag_TC
  * @param  USARTx USART Instance
  * @retval State of bit (1 or 0).
  */
__STATIC_INLINE uint32_t LL_USART_IsActiveFlag_TC(USART_TypeDef *USARTx)
{
 8001b86:	b480      	push	{r7}
 8001b88:	b083      	sub	sp, #12
 8001b8a:	af00      	add	r7, sp, #0
 8001b8c:	6078      	str	r0, [r7, #4]
  return (READ_BIT(USARTx->ISR, USART_ISR_TC) == (USART_ISR_TC));
 8001b8e:	687b      	ldr	r3, [r7, #4]
 8001b90:	69db      	ldr	r3, [r3, #28]
 8001b92:	f003 0340 	and.w	r3, r3, #64	; 0x40
 8001b96:	2b40      	cmp	r3, #64	; 0x40
 8001b98:	bf0c      	ite	eq
 8001b9a:	2301      	moveq	r3, #1
 8001b9c:	2300      	movne	r3, #0
 8001b9e:	b2db      	uxtb	r3, r3
}
 8001ba0:	4618      	mov	r0, r3
 8001ba2:	370c      	adds	r7, #12
 8001ba4:	46bd      	mov	sp, r7
 8001ba6:	f85d 7b04 	ldr.w	r7, [sp], #4
 8001baa:	4770      	bx	lr

08001bac <LL_USART_ClearFlag_IDLE>:
  * @rmtoll ICR          IDLECF        LL_USART_ClearFlag_IDLE
  * @param  USARTx USART Instance
  * @retval None
  */
__STATIC_INLINE void LL_USART_ClearFlag_IDLE(USART_TypeDef *USARTx)
{
 8001bac:	b480      	push	{r7}
 8001bae:	b083      	sub	sp, #12
 8001bb0:	af00      	add	r7, sp, #0
 8001bb2:	6078      	str	r0, [r7, #4]
  WRITE_REG(USARTx->ICR, USART_ICR_IDLECF);
 8001bb4:	687b      	ldr	r3, [r7, #4]
 8001bb6:	2210      	movs	r2, #16
 8001bb8:	621a      	str	r2, [r3, #32]
}
 8001bba:	bf00      	nop
 8001bbc:	370c      	adds	r7, #12
 8001bbe:	46bd      	mov	sp, r7
 8001bc0:	f85d 7b04 	ldr.w	r7, [sp], #4
 8001bc4:	4770      	bx	lr

08001bc6 <NMI_Handler>:
/******************************************************************************/
/**
  * @brief This function handles Non maskable interrupt.
  */
void NMI_Handler(void)
{
 8001bc6:	b480      	push	{r7}
 8001bc8:	af00      	add	r7, sp, #0

  /* USER CODE END NonMaskableInt_IRQn 0 */
  /* USER CODE BEGIN NonMaskableInt_IRQn 1 */

  /* USER CODE END NonMaskableInt_IRQn 1 */
}
 8001bca:	bf00      	nop
 8001bcc:	46bd      	mov	sp, r7
 8001bce:	f85d 7b04 	ldr.w	r7, [sp], #4
 8001bd2:	4770      	bx	lr

08001bd4 <HardFault_Handler>:

/**
  * @brief This function handles Hard fault interrupt.
  */
void HardFault_Handler(void)
{
 8001bd4:	b480      	push	{r7}
 8001bd6:	af00      	add	r7, sp, #0
  /* USER CODE BEGIN HardFault_IRQn 0 */

  /* USER CODE END HardFault_IRQn 0 */
  while (1)
 8001bd8:	e7fe      	b.n	8001bd8 <HardFault_Handler+0x4>

08001bda <MemManage_Handler>:

/**
  * @brief This function handles Memory management fault.
  */
void MemManage_Handler(void)
{
 8001bda:	b480      	push	{r7}
 8001bdc:	af00      	add	r7, sp, #0
  /* USER CODE BEGIN MemoryManagement_IRQn 0 */

  /* USER CODE END MemoryManagement_IRQn 0 */
  while (1)
 8001bde:	e7fe      	b.n	8001bde <MemManage_Handler+0x4>

08001be0 <BusFault_Handler>:

/**
  * @brief This function handles Pre-fetch fault, memory access fault.
  */
void BusFault_Handler(void)
{
 8001be0:	b480      	push	{r7}
 8001be2:	af00      	add	r7, sp, #0
  /* USER CODE BEGIN BusFault_IRQn 0 */

  /* USER CODE END BusFault_IRQn 0 */
  while (1)
 8001be4:	e7fe      	b.n	8001be4 <BusFault_Handler+0x4>

08001be6 <UsageFault_Handler>:

/**
  * @brief This function handles Undefined instruction or illegal state.
  */
void UsageFault_Handler(void)
{
 8001be6:	b480      	push	{r7}
 8001be8:	af00      	add	r7, sp, #0
  /* USER CODE BEGIN UsageFault_IRQn 0 */

  /* USER CODE END UsageFault_IRQn 0 */
  while (1)
 8001bea:	e7fe      	b.n	8001bea <UsageFault_Handler+0x4>

08001bec <SVC_Handler>:

/**
  * @brief This function handles System service call via SWI instruction.
  */
void SVC_Handler(void)
{
 8001bec:	b480      	push	{r7}
 8001bee:	af00      	add	r7, sp, #0

  /* USER CODE END SVCall_IRQn 0 */
  /* USER CODE BEGIN SVCall_IRQn 1 */

  /* USER CODE END SVCall_IRQn 1 */
}
 8001bf0:	bf00      	nop
 8001bf2:	46bd      	mov	sp, r7
 8001bf4:	f85d 7b04 	ldr.w	r7, [sp], #4
 8001bf8:	4770      	bx	lr

08001bfa <DebugMon_Handler>:

/**
  * @brief This function handles Debug monitor.
  */
void DebugMon_Handler(void)
{
 8001bfa:	b480      	push	{r7}
 8001bfc:	af00      	add	r7, sp, #0

  /* USER CODE END DebugMonitor_IRQn 0 */
  /* USER CODE BEGIN DebugMonitor_IRQn 1 */

  /* USER CODE END DebugMonitor_IRQn 1 */
}
 8001bfe:	bf00      	nop
 8001c00:	46bd      	mov	sp, r7
 8001c02:	f85d 7b04 	ldr.w	r7, [sp], #4
 8001c06:	4770      	bx	lr

08001c08 <PendSV_Handler>:

/**
  * @brief This function handles Pendable request for system service.
  */
void PendSV_Handler(void)
{
 8001c08:	b480      	push	{r7}
 8001c0a:	af00      	add	r7, sp, #0

  /* USER CODE END PendSV_IRQn 0 */
  /* USER CODE BEGIN PendSV_IRQn 1 */

  /* USER CODE END PendSV_IRQn 1 */
}
 8001c0c:	bf00      	nop
 8001c0e:	46bd      	mov	sp, r7
 8001c10:	f85d 7b04 	ldr.w	r7, [sp], #4
 8001c14:	4770      	bx	lr

08001c16 <SysTick_Handler>:

/**
  * @brief This function handles System tick timer.
  */
void SysTick_Handler(void)
{
 8001c16:	b480      	push	{r7}
 8001c18:	af00      	add	r7, sp, #0
  /* USER CODE END SysTick_IRQn 0 */
  
  /* USER CODE BEGIN SysTick_IRQn 1 */

  /* USER CODE END SysTick_IRQn 1 */
}
 8001c1a:	bf00      	nop
 8001c1c:	46bd      	mov	sp, r7
 8001c1e:	f85d 7b04 	ldr.w	r7, [sp], #4
 8001c22:	4770      	bx	lr

08001c24 <DMA1_Channel6_IRQHandler>:

/**
  * @brief This function handles DMA1 channel6 global interrupt.
  */
void DMA1_Channel6_IRQHandler(void)
{
 8001c24:	b580      	push	{r7, lr}
 8001c26:	af00      	add	r7, sp, #0
	if(LL_DMA_IsActiveFlag_TC6(DMA1) == SET)
 8001c28:	480c      	ldr	r0, [pc, #48]	; (8001c5c <DMA1_Channel6_IRQHandler+0x38>)
 8001c2a:	f7ff ff33 	bl	8001a94 <LL_DMA_IsActiveFlag_TC6>
 8001c2e:	4603      	mov	r3, r0
 8001c30:	2b01      	cmp	r3, #1
 8001c32:	d105      	bne.n	8001c40 <DMA1_Channel6_IRQHandler+0x1c>
	{
		USART2_CheckDmaReception();
 8001c34:	f000 fdd0 	bl	80027d8 <USART2_CheckDmaReception>
		LL_DMA_ClearFlag_TC6(DMA1);
 8001c38:	4808      	ldr	r0, [pc, #32]	; (8001c5c <DMA1_Channel6_IRQHandler+0x38>)
 8001c3a:	f7ff ff67 	bl	8001b0c <LL_DMA_ClearFlag_TC6>
	else if(LL_DMA_IsActiveFlag_HT6(DMA1) == SET)
	{
		USART2_CheckDmaReception();
		LL_DMA_ClearFlag_HT6(DMA1);
	}
}
 8001c3e:	e00a      	b.n	8001c56 <DMA1_Channel6_IRQHandler+0x32>
	else if(LL_DMA_IsActiveFlag_HT6(DMA1) == SET)
 8001c40:	4806      	ldr	r0, [pc, #24]	; (8001c5c <DMA1_Channel6_IRQHandler+0x38>)
 8001c42:	f7ff ff4f 	bl	8001ae4 <LL_DMA_IsActiveFlag_HT6>
 8001c46:	4603      	mov	r3, r0
 8001c48:	2b01      	cmp	r3, #1
 8001c4a:	d104      	bne.n	8001c56 <DMA1_Channel6_IRQHandler+0x32>
		USART2_CheckDmaReception();
 8001c4c:	f000 fdc4 	bl	80027d8 <USART2_CheckDmaReception>
		LL_DMA_ClearFlag_HT6(DMA1);
 8001c50:	4802      	ldr	r0, [pc, #8]	; (8001c5c <DMA1_Channel6_IRQHandler+0x38>)
 8001c52:	f7ff ff77 	bl	8001b44 <LL_DMA_ClearFlag_HT6>
}
 8001c56:	bf00      	nop
 8001c58:	bd80      	pop	{r7, pc}
 8001c5a:	bf00      	nop
 8001c5c:	40020000 	.word	0x40020000

08001c60 <DMA1_Channel7_IRQHandler>:

/**
  * @brief This function handles DMA1 channel7 global interrupt.
  */
void DMA1_Channel7_IRQHandler(void)
{
 8001c60:	b580      	push	{r7, lr}
 8001c62:	af00      	add	r7, sp, #0
	if(LL_DMA_IsActiveFlag_TC7(DMA1) == SET)
 8001c64:	480a      	ldr	r0, [pc, #40]	; (8001c90 <DMA1_Channel7_IRQHandler+0x30>)
 8001c66:	f7ff ff29 	bl	8001abc <LL_DMA_IsActiveFlag_TC7>
 8001c6a:	4603      	mov	r3, r0
 8001c6c:	2b01      	cmp	r3, #1
 8001c6e:	d10d      	bne.n	8001c8c <DMA1_Channel7_IRQHandler+0x2c>
	{
		LL_DMA_ClearFlag_TC7(DMA1);
 8001c70:	4807      	ldr	r0, [pc, #28]	; (8001c90 <DMA1_Channel7_IRQHandler+0x30>)
 8001c72:	f7ff ff59 	bl	8001b28 <LL_DMA_ClearFlag_TC7>

		while(LL_USART_IsActiveFlag_TC(USART2) == RESET);
 8001c76:	bf00      	nop
 8001c78:	4806      	ldr	r0, [pc, #24]	; (8001c94 <DMA1_Channel7_IRQHandler+0x34>)
 8001c7a:	f7ff ff84 	bl	8001b86 <LL_USART_IsActiveFlag_TC>
 8001c7e:	4603      	mov	r3, r0
 8001c80:	2b00      	cmp	r3, #0
 8001c82:	d0f9      	beq.n	8001c78 <DMA1_Channel7_IRQHandler+0x18>
		LL_DMA_DisableChannel(DMA1, LL_DMA_CHANNEL_7);
 8001c84:	2107      	movs	r1, #7
 8001c86:	4802      	ldr	r0, [pc, #8]	; (8001c90 <DMA1_Channel7_IRQHandler+0x30>)
 8001c88:	f7ff fee4 	bl	8001a54 <LL_DMA_DisableChannel>
	}
}
 8001c8c:	bf00      	nop
 8001c8e:	bd80      	pop	{r7, pc}
 8001c90:	40020000 	.word	0x40020000
 8001c94:	40004400 	.word	0x40004400

08001c98 <USART2_IRQHandler>:

/**
  * @brief This function handles USART2 global interrupt.
  */
void USART2_IRQHandler(void)
{
 8001c98:	b580      	push	{r7, lr}
 8001c9a:	af00      	add	r7, sp, #0
	if(LL_USART_IsActiveFlag_IDLE(USART2))
 8001c9c:	4806      	ldr	r0, [pc, #24]	; (8001cb8 <USART2_IRQHandler+0x20>)
 8001c9e:	f7ff ff5f 	bl	8001b60 <LL_USART_IsActiveFlag_IDLE>
 8001ca2:	4603      	mov	r3, r0
 8001ca4:	2b00      	cmp	r3, #0
 8001ca6:	d004      	beq.n	8001cb2 <USART2_IRQHandler+0x1a>
	{
		USART2_CheckDmaReception();
 8001ca8:	f000 fd96 	bl	80027d8 <USART2_CheckDmaReception>
		LL_USART_ClearFlag_IDLE(USART2);
 8001cac:	4802      	ldr	r0, [pc, #8]	; (8001cb8 <USART2_IRQHandler+0x20>)
 8001cae:	f7ff ff7d 	bl	8001bac <LL_USART_ClearFlag_IDLE>
	}
}
 8001cb2:	bf00      	nop
 8001cb4:	bd80      	pop	{r7, pc}
 8001cb6:	bf00      	nop
 8001cb8:	40004400 	.word	0x40004400

08001cbc <_getpid>:
void initialise_monitor_handles()
{
}

int _getpid(void)
{
 8001cbc:	b480      	push	{r7}
 8001cbe:	af00      	add	r7, sp, #0
	return 1;
 8001cc0:	2301      	movs	r3, #1
}
 8001cc2:	4618      	mov	r0, r3
 8001cc4:	46bd      	mov	sp, r7
 8001cc6:	f85d 7b04 	ldr.w	r7, [sp], #4
 8001cca:	4770      	bx	lr

08001ccc <_kill>:

int _kill(int pid, int sig)
{
 8001ccc:	b580      	push	{r7, lr}
 8001cce:	b082      	sub	sp, #8
 8001cd0:	af00      	add	r7, sp, #0
 8001cd2:	6078      	str	r0, [r7, #4]
 8001cd4:	6039      	str	r1, [r7, #0]
	errno = EINVAL;
 8001cd6:	f000 fe11 	bl	80028fc <__errno>
 8001cda:	4603      	mov	r3, r0
 8001cdc:	2216      	movs	r2, #22
 8001cde:	601a      	str	r2, [r3, #0]
	return -1;
 8001ce0:	f04f 33ff 	mov.w	r3, #4294967295
}
 8001ce4:	4618      	mov	r0, r3
 8001ce6:	3708      	adds	r7, #8
 8001ce8:	46bd      	mov	sp, r7
 8001cea:	bd80      	pop	{r7, pc}

08001cec <_exit>:

void _exit (int status)
{
 8001cec:	b580      	push	{r7, lr}
 8001cee:	b082      	sub	sp, #8
 8001cf0:	af00      	add	r7, sp, #0
 8001cf2:	6078      	str	r0, [r7, #4]
	_kill(status, -1);
 8001cf4:	f04f 31ff 	mov.w	r1, #4294967295
 8001cf8:	6878      	ldr	r0, [r7, #4]
 8001cfa:	f7ff ffe7 	bl	8001ccc <_kill>
	while (1) {}		/* Make sure we hang here */
 8001cfe:	e7fe      	b.n	8001cfe <_exit+0x12>

08001d00 <_read>:
}

__attribute__((weak)) int _read(int file, char *ptr, int len)
{
 8001d00:	b580      	push	{r7, lr}
 8001d02:	b086      	sub	sp, #24
 8001d04:	af00      	add	r7, sp, #0
 8001d06:	60f8      	str	r0, [r7, #12]
 8001d08:	60b9      	str	r1, [r7, #8]
 8001d0a:	607a      	str	r2, [r7, #4]
	int DataIdx;

	for (DataIdx = 0; DataIdx < len; DataIdx++)
 8001d0c:	2300      	movs	r3, #0
 8001d0e:	617b      	str	r3, [r7, #20]
 8001d10:	e00a      	b.n	8001d28 <_read+0x28>
	{
		*ptr++ = __io_getchar();
 8001d12:	f3af 8000 	nop.w
 8001d16:	4601      	mov	r1, r0
 8001d18:	68bb      	ldr	r3, [r7, #8]
 8001d1a:	1c5a      	adds	r2, r3, #1
 8001d1c:	60ba      	str	r2, [r7, #8]
 8001d1e:	b2ca      	uxtb	r2, r1
 8001d20:	701a      	strb	r2, [r3, #0]
	for (DataIdx = 0; DataIdx < len; DataIdx++)
 8001d22:	697b      	ldr	r3, [r7, #20]
 8001d24:	3301      	adds	r3, #1
 8001d26:	617b      	str	r3, [r7, #20]
 8001d28:	697a      	ldr	r2, [r7, #20]
 8001d2a:	687b      	ldr	r3, [r7, #4]
 8001d2c:	429a      	cmp	r2, r3
 8001d2e:	dbf0      	blt.n	8001d12 <_read+0x12>
	}

return len;
 8001d30:	687b      	ldr	r3, [r7, #4]
}
 8001d32:	4618      	mov	r0, r3
 8001d34:	3718      	adds	r7, #24
 8001d36:	46bd      	mov	sp, r7
 8001d38:	bd80      	pop	{r7, pc}

08001d3a <_write>:

__attribute__((weak)) int _write(int file, char *ptr, int len)
{
 8001d3a:	b580      	push	{r7, lr}
 8001d3c:	b086      	sub	sp, #24
 8001d3e:	af00      	add	r7, sp, #0
 8001d40:	60f8      	str	r0, [r7, #12]
 8001d42:	60b9      	str	r1, [r7, #8]
 8001d44:	607a      	str	r2, [r7, #4]
	int DataIdx;

	for (DataIdx = 0; DataIdx < len; DataIdx++)
 8001d46:	2300      	movs	r3, #0
 8001d48:	617b      	str	r3, [r7, #20]
 8001d4a:	e009      	b.n	8001d60 <_write+0x26>
	{
		__io_putchar(*ptr++);
 8001d4c:	68bb      	ldr	r3, [r7, #8]
 8001d4e:	1c5a      	adds	r2, r3, #1
 8001d50:	60ba      	str	r2, [r7, #8]
 8001d52:	781b      	ldrb	r3, [r3, #0]
 8001d54:	4618      	mov	r0, r3
 8001d56:	f3af 8000 	nop.w
	for (DataIdx = 0; DataIdx < len; DataIdx++)
 8001d5a:	697b      	ldr	r3, [r7, #20]
 8001d5c:	3301      	adds	r3, #1
 8001d5e:	617b      	str	r3, [r7, #20]
 8001d60:	697a      	ldr	r2, [r7, #20]
 8001d62:	687b      	ldr	r3, [r7, #4]
 8001d64:	429a      	cmp	r2, r3
 8001d66:	dbf1      	blt.n	8001d4c <_write+0x12>
	}
	return len;
 8001d68:	687b      	ldr	r3, [r7, #4]
}
 8001d6a:	4618      	mov	r0, r3
 8001d6c:	3718      	adds	r7, #24
 8001d6e:	46bd      	mov	sp, r7
 8001d70:	bd80      	pop	{r7, pc}

08001d72 <_close>:

int _close(int file)
{
 8001d72:	b480      	push	{r7}
 8001d74:	b083      	sub	sp, #12
 8001d76:	af00      	add	r7, sp, #0
 8001d78:	6078      	str	r0, [r7, #4]
	return -1;
 8001d7a:	f04f 33ff 	mov.w	r3, #4294967295
}
 8001d7e:	4618      	mov	r0, r3
 8001d80:	370c      	adds	r7, #12
 8001d82:	46bd      	mov	sp, r7
 8001d84:	f85d 7b04 	ldr.w	r7, [sp], #4
 8001d88:	4770      	bx	lr

08001d8a <_fstat>:


int _fstat(int file, struct stat *st)
{
 8001d8a:	b480      	push	{r7}
 8001d8c:	b083      	sub	sp, #12
 8001d8e:	af00      	add	r7, sp, #0
 8001d90:	6078      	str	r0, [r7, #4]
 8001d92:	6039      	str	r1, [r7, #0]
	st->st_mode = S_IFCHR;
 8001d94:	683b      	ldr	r3, [r7, #0]
 8001d96:	f44f 5200 	mov.w	r2, #8192	; 0x2000
 8001d9a:	605a      	str	r2, [r3, #4]
	return 0;
 8001d9c:	2300      	movs	r3, #0
}
 8001d9e:	4618      	mov	r0, r3
 8001da0:	370c      	adds	r7, #12
 8001da2:	46bd      	mov	sp, r7
 8001da4:	f85d 7b04 	ldr.w	r7, [sp], #4
 8001da8:	4770      	bx	lr

08001daa <_isatty>:

int _isatty(int file)
{
 8001daa:	b480      	push	{r7}
 8001dac:	b083      	sub	sp, #12
 8001dae:	af00      	add	r7, sp, #0
 8001db0:	6078      	str	r0, [r7, #4]
	return 1;
 8001db2:	2301      	movs	r3, #1
}
 8001db4:	4618      	mov	r0, r3
 8001db6:	370c      	adds	r7, #12
 8001db8:	46bd      	mov	sp, r7
 8001dba:	f85d 7b04 	ldr.w	r7, [sp], #4
 8001dbe:	4770      	bx	lr

08001dc0 <_lseek>:

int _lseek(int file, int ptr, int dir)
{
 8001dc0:	b480      	push	{r7}
 8001dc2:	b085      	sub	sp, #20
 8001dc4:	af00      	add	r7, sp, #0
 8001dc6:	60f8      	str	r0, [r7, #12]
 8001dc8:	60b9      	str	r1, [r7, #8]
 8001dca:	607a      	str	r2, [r7, #4]
	return 0;
 8001dcc:	2300      	movs	r3, #0
}
 8001dce:	4618      	mov	r0, r3
 8001dd0:	3714      	adds	r7, #20
 8001dd2:	46bd      	mov	sp, r7
 8001dd4:	f85d 7b04 	ldr.w	r7, [sp], #4
 8001dd8:	4770      	bx	lr
	...

08001ddc <_sbrk>:
/**
 _sbrk
 Increase program data space. Malloc and related functions depend on this
**/
caddr_t _sbrk(int incr)
{
 8001ddc:	b580      	push	{r7, lr}
 8001dde:	b084      	sub	sp, #16
 8001de0:	af00      	add	r7, sp, #0
 8001de2:	6078      	str	r0, [r7, #4]
	extern char end asm("end");
	static char *heap_end;
	char *prev_heap_end;

	if (heap_end == 0)
 8001de4:	4b11      	ldr	r3, [pc, #68]	; (8001e2c <_sbrk+0x50>)
 8001de6:	681b      	ldr	r3, [r3, #0]
 8001de8:	2b00      	cmp	r3, #0
 8001dea:	d102      	bne.n	8001df2 <_sbrk+0x16>
		heap_end = &end;
 8001dec:	4b0f      	ldr	r3, [pc, #60]	; (8001e2c <_sbrk+0x50>)
 8001dee:	4a10      	ldr	r2, [pc, #64]	; (8001e30 <_sbrk+0x54>)
 8001df0:	601a      	str	r2, [r3, #0]

	prev_heap_end = heap_end;
 8001df2:	4b0e      	ldr	r3, [pc, #56]	; (8001e2c <_sbrk+0x50>)
 8001df4:	681b      	ldr	r3, [r3, #0]
 8001df6:	60fb      	str	r3, [r7, #12]
	if (heap_end + incr > stack_ptr)
 8001df8:	4b0c      	ldr	r3, [pc, #48]	; (8001e2c <_sbrk+0x50>)
 8001dfa:	681a      	ldr	r2, [r3, #0]
 8001dfc:	687b      	ldr	r3, [r7, #4]
 8001dfe:	4413      	add	r3, r2
 8001e00:	466a      	mov	r2, sp
 8001e02:	4293      	cmp	r3, r2
 8001e04:	d907      	bls.n	8001e16 <_sbrk+0x3a>
	{
		errno = ENOMEM;
 8001e06:	f000 fd79 	bl	80028fc <__errno>
 8001e0a:	4603      	mov	r3, r0
 8001e0c:	220c      	movs	r2, #12
 8001e0e:	601a      	str	r2, [r3, #0]
		return (caddr_t) -1;
 8001e10:	f04f 33ff 	mov.w	r3, #4294967295
 8001e14:	e006      	b.n	8001e24 <_sbrk+0x48>
	}

	heap_end += incr;
 8001e16:	4b05      	ldr	r3, [pc, #20]	; (8001e2c <_sbrk+0x50>)
 8001e18:	681a      	ldr	r2, [r3, #0]
 8001e1a:	687b      	ldr	r3, [r7, #4]
 8001e1c:	4413      	add	r3, r2
 8001e1e:	4a03      	ldr	r2, [pc, #12]	; (8001e2c <_sbrk+0x50>)
 8001e20:	6013      	str	r3, [r2, #0]

	return (caddr_t) prev_heap_end;
 8001e22:	68fb      	ldr	r3, [r7, #12]
}
 8001e24:	4618      	mov	r0, r3
 8001e26:	3710      	adds	r7, #16
 8001e28:	46bd      	mov	sp, r7
 8001e2a:	bd80      	pop	{r7, pc}
 8001e2c:	200001f8 	.word	0x200001f8
 8001e30:	20000328 	.word	0x20000328

08001e34 <SystemInit>:
  *         Initialize the FPU setting, vector table location and the PLL configuration is reset.
  * @param  None
  * @retval None
  */
void SystemInit(void)
{
 8001e34:	b480      	push	{r7}
 8001e36:	af00      	add	r7, sp, #0
  /* FPU settings ------------------------------------------------------------*/
  #if (__FPU_PRESENT == 1) && (__FPU_USED == 1)
    SCB->CPACR |= ((3UL << 10*2)|(3UL << 11*2));  /* set CP10 and CP11 Full Access */
 8001e38:	4b1f      	ldr	r3, [pc, #124]	; (8001eb8 <SystemInit+0x84>)
 8001e3a:	f8d3 3088 	ldr.w	r3, [r3, #136]	; 0x88
 8001e3e:	4a1e      	ldr	r2, [pc, #120]	; (8001eb8 <SystemInit+0x84>)
 8001e40:	f443 0370 	orr.w	r3, r3, #15728640	; 0xf00000
 8001e44:	f8c2 3088 	str.w	r3, [r2, #136]	; 0x88
  #endif

  /* Reset the RCC clock configuration to the default reset state ------------*/
  /* Set HSION bit */
  RCC->CR |= 0x00000001U;
 8001e48:	4b1c      	ldr	r3, [pc, #112]	; (8001ebc <SystemInit+0x88>)
 8001e4a:	681b      	ldr	r3, [r3, #0]
 8001e4c:	4a1b      	ldr	r2, [pc, #108]	; (8001ebc <SystemInit+0x88>)
 8001e4e:	f043 0301 	orr.w	r3, r3, #1
 8001e52:	6013      	str	r3, [r2, #0]

  /* Reset CFGR register */
  RCC->CFGR &= 0xF87FC00CU;
 8001e54:	4b19      	ldr	r3, [pc, #100]	; (8001ebc <SystemInit+0x88>)
 8001e56:	685a      	ldr	r2, [r3, #4]
 8001e58:	4918      	ldr	r1, [pc, #96]	; (8001ebc <SystemInit+0x88>)
 8001e5a:	4b19      	ldr	r3, [pc, #100]	; (8001ec0 <SystemInit+0x8c>)
 8001e5c:	4013      	ands	r3, r2
 8001e5e:	604b      	str	r3, [r1, #4]

  /* Reset HSEON, CSSON and PLLON bits */
  RCC->CR &= 0xFEF6FFFFU;
 8001e60:	4b16      	ldr	r3, [pc, #88]	; (8001ebc <SystemInit+0x88>)
 8001e62:	681b      	ldr	r3, [r3, #0]
 8001e64:	4a15      	ldr	r2, [pc, #84]	; (8001ebc <SystemInit+0x88>)
 8001e66:	f023 7384 	bic.w	r3, r3, #17301504	; 0x1080000
 8001e6a:	f423 3380 	bic.w	r3, r3, #65536	; 0x10000
 8001e6e:	6013      	str	r3, [r2, #0]

  /* Reset HSEBYP bit */
  RCC->CR &= 0xFFFBFFFFU;
 8001e70:	4b12      	ldr	r3, [pc, #72]	; (8001ebc <SystemInit+0x88>)
 8001e72:	681b      	ldr	r3, [r3, #0]
 8001e74:	4a11      	ldr	r2, [pc, #68]	; (8001ebc <SystemInit+0x88>)
 8001e76:	f423 2380 	bic.w	r3, r3, #262144	; 0x40000
 8001e7a:	6013      	str	r3, [r2, #0]

  /* Reset PLLSRC, PLLXTPRE, PLLMUL and USBPRE bits */
  RCC->CFGR &= 0xFF80FFFFU;
 8001e7c:	4b0f      	ldr	r3, [pc, #60]	; (8001ebc <SystemInit+0x88>)
 8001e7e:	685b      	ldr	r3, [r3, #4]
 8001e80:	4a0e      	ldr	r2, [pc, #56]	; (8001ebc <SystemInit+0x88>)
 8001e82:	f423 03fe 	bic.w	r3, r3, #8323072	; 0x7f0000
 8001e86:	6053      	str	r3, [r2, #4]

  /* Reset PREDIV1[3:0] bits */
  RCC->CFGR2 &= 0xFFFFFFF0U;
 8001e88:	4b0c      	ldr	r3, [pc, #48]	; (8001ebc <SystemInit+0x88>)
 8001e8a:	6adb      	ldr	r3, [r3, #44]	; 0x2c
 8001e8c:	4a0b      	ldr	r2, [pc, #44]	; (8001ebc <SystemInit+0x88>)
 8001e8e:	f023 030f 	bic.w	r3, r3, #15
 8001e92:	62d3      	str	r3, [r2, #44]	; 0x2c

  /* Reset USARTSW[1:0], I2CSW and TIMs bits */
  RCC->CFGR3 &= 0xFF00FCCCU;
 8001e94:	4b09      	ldr	r3, [pc, #36]	; (8001ebc <SystemInit+0x88>)
 8001e96:	6b1a      	ldr	r2, [r3, #48]	; 0x30
 8001e98:	4908      	ldr	r1, [pc, #32]	; (8001ebc <SystemInit+0x88>)
 8001e9a:	4b0a      	ldr	r3, [pc, #40]	; (8001ec4 <SystemInit+0x90>)
 8001e9c:	4013      	ands	r3, r2
 8001e9e:	630b      	str	r3, [r1, #48]	; 0x30

  /* Disable all interrupts */
  RCC->CIR = 0x00000000U;
 8001ea0:	4b06      	ldr	r3, [pc, #24]	; (8001ebc <SystemInit+0x88>)
 8001ea2:	2200      	movs	r2, #0
 8001ea4:	609a      	str	r2, [r3, #8]

#ifdef VECT_TAB_SRAM
  SCB->VTOR = SRAM_BASE | VECT_TAB_OFFSET; /* Vector Table Relocation in Internal SRAM */
#else
  SCB->VTOR = FLASH_BASE | VECT_TAB_OFFSET; /* Vector Table Relocation in Internal FLASH */
 8001ea6:	4b04      	ldr	r3, [pc, #16]	; (8001eb8 <SystemInit+0x84>)
 8001ea8:	f04f 6200 	mov.w	r2, #134217728	; 0x8000000
 8001eac:	609a      	str	r2, [r3, #8]
#endif
}
 8001eae:	bf00      	nop
 8001eb0:	46bd      	mov	sp, r7
 8001eb2:	f85d 7b04 	ldr.w	r7, [sp], #4
 8001eb6:	4770      	bx	lr
 8001eb8:	e000ed00 	.word	0xe000ed00
 8001ebc:	40021000 	.word	0x40021000
 8001ec0:	f87fc00c 	.word	0xf87fc00c
 8001ec4:	ff00fccc 	.word	0xff00fccc

08001ec8 <NVIC_EnableIRQ>:
{
 8001ec8:	b480      	push	{r7}
 8001eca:	b083      	sub	sp, #12
 8001ecc:	af00      	add	r7, sp, #0
 8001ece:	4603      	mov	r3, r0
 8001ed0:	71fb      	strb	r3, [r7, #7]
  NVIC->ISER[(((uint32_t)(int32_t)IRQn) >> 5UL)] = (uint32_t)(1UL << (((uint32_t)(int32_t)IRQn) & 0x1FUL));
 8001ed2:	79fb      	ldrb	r3, [r7, #7]
 8001ed4:	f003 021f 	and.w	r2, r3, #31
 8001ed8:	4907      	ldr	r1, [pc, #28]	; (8001ef8 <NVIC_EnableIRQ+0x30>)
 8001eda:	f997 3007 	ldrsb.w	r3, [r7, #7]
 8001ede:	095b      	lsrs	r3, r3, #5
 8001ee0:	2001      	movs	r0, #1
 8001ee2:	fa00 f202 	lsl.w	r2, r0, r2
 8001ee6:	f841 2023 	str.w	r2, [r1, r3, lsl #2]
}
 8001eea:	bf00      	nop
 8001eec:	370c      	adds	r7, #12
 8001eee:	46bd      	mov	sp, r7
 8001ef0:	f85d 7b04 	ldr.w	r7, [sp], #4
 8001ef4:	4770      	bx	lr
 8001ef6:	bf00      	nop
 8001ef8:	e000e100 	.word	0xe000e100

08001efc <NVIC_SetPriority>:
{
 8001efc:	b480      	push	{r7}
 8001efe:	b083      	sub	sp, #12
 8001f00:	af00      	add	r7, sp, #0
 8001f02:	4603      	mov	r3, r0
 8001f04:	6039      	str	r1, [r7, #0]
 8001f06:	71fb      	strb	r3, [r7, #7]
  if ((int32_t)(IRQn) < 0)
 8001f08:	f997 3007 	ldrsb.w	r3, [r7, #7]
 8001f0c:	2b00      	cmp	r3, #0
 8001f0e:	da0b      	bge.n	8001f28 <NVIC_SetPriority+0x2c>
    SCB->SHP[(((uint32_t)(int32_t)IRQn) & 0xFUL)-4UL] = (uint8_t)((priority << (8U - __NVIC_PRIO_BITS)) & (uint32_t)0xFFUL);
 8001f10:	683b      	ldr	r3, [r7, #0]
 8001f12:	b2da      	uxtb	r2, r3
 8001f14:	490c      	ldr	r1, [pc, #48]	; (8001f48 <NVIC_SetPriority+0x4c>)
 8001f16:	79fb      	ldrb	r3, [r7, #7]
 8001f18:	f003 030f 	and.w	r3, r3, #15
 8001f1c:	3b04      	subs	r3, #4
 8001f1e:	0112      	lsls	r2, r2, #4
 8001f20:	b2d2      	uxtb	r2, r2
 8001f22:	440b      	add	r3, r1
 8001f24:	761a      	strb	r2, [r3, #24]
}
 8001f26:	e009      	b.n	8001f3c <NVIC_SetPriority+0x40>
    NVIC->IP[((uint32_t)(int32_t)IRQn)]               = (uint8_t)((priority << (8U - __NVIC_PRIO_BITS)) & (uint32_t)0xFFUL);
 8001f28:	683b      	ldr	r3, [r7, #0]
 8001f2a:	b2da      	uxtb	r2, r3
 8001f2c:	4907      	ldr	r1, [pc, #28]	; (8001f4c <NVIC_SetPriority+0x50>)
 8001f2e:	f997 3007 	ldrsb.w	r3, [r7, #7]
 8001f32:	0112      	lsls	r2, r2, #4
 8001f34:	b2d2      	uxtb	r2, r2
 8001f36:	440b      	add	r3, r1
 8001f38:	f883 2300 	strb.w	r2, [r3, #768]	; 0x300
}
 8001f3c:	bf00      	nop
 8001f3e:	370c      	adds	r7, #12
 8001f40:	46bd      	mov	sp, r7
 8001f42:	f85d 7b04 	ldr.w	r7, [sp], #4
 8001f46:	4770      	bx	lr
 8001f48:	e000ed00 	.word	0xe000ed00
 8001f4c:	e000e100 	.word	0xe000e100

08001f50 <LL_DMA_EnableChannel>:
{
 8001f50:	b480      	push	{r7}
 8001f52:	b083      	sub	sp, #12
 8001f54:	af00      	add	r7, sp, #0
 8001f56:	6078      	str	r0, [r7, #4]
 8001f58:	6039      	str	r1, [r7, #0]
  SET_BIT(((DMA_Channel_TypeDef *)((uint32_t)((uint32_t)DMAx + CHANNEL_OFFSET_TAB[Channel - 1U])))->CCR, DMA_CCR_EN);
 8001f5a:	683b      	ldr	r3, [r7, #0]
 8001f5c:	3b01      	subs	r3, #1
 8001f5e:	4a0b      	ldr	r2, [pc, #44]	; (8001f8c <LL_DMA_EnableChannel+0x3c>)
 8001f60:	5cd3      	ldrb	r3, [r2, r3]
 8001f62:	461a      	mov	r2, r3
 8001f64:	687b      	ldr	r3, [r7, #4]
 8001f66:	4413      	add	r3, r2
 8001f68:	681b      	ldr	r3, [r3, #0]
 8001f6a:	683a      	ldr	r2, [r7, #0]
 8001f6c:	3a01      	subs	r2, #1
 8001f6e:	4907      	ldr	r1, [pc, #28]	; (8001f8c <LL_DMA_EnableChannel+0x3c>)
 8001f70:	5c8a      	ldrb	r2, [r1, r2]
 8001f72:	4611      	mov	r1, r2
 8001f74:	687a      	ldr	r2, [r7, #4]
 8001f76:	440a      	add	r2, r1
 8001f78:	f043 0301 	orr.w	r3, r3, #1
 8001f7c:	6013      	str	r3, [r2, #0]
}
 8001f7e:	bf00      	nop
 8001f80:	370c      	adds	r7, #12
 8001f82:	46bd      	mov	sp, r7
 8001f84:	f85d 7b04 	ldr.w	r7, [sp], #4
 8001f88:	4770      	bx	lr
 8001f8a:	bf00      	nop
 8001f8c:	08005710 	.word	0x08005710

08001f90 <LL_DMA_DisableChannel>:
{
 8001f90:	b480      	push	{r7}
 8001f92:	b083      	sub	sp, #12
 8001f94:	af00      	add	r7, sp, #0
 8001f96:	6078      	str	r0, [r7, #4]
 8001f98:	6039      	str	r1, [r7, #0]
  CLEAR_BIT(((DMA_Channel_TypeDef *)((uint32_t)((uint32_t)DMAx + CHANNEL_OFFSET_TAB[Channel - 1U])))->CCR, DMA_CCR_EN);
 8001f9a:	683b      	ldr	r3, [r7, #0]
 8001f9c:	3b01      	subs	r3, #1
 8001f9e:	4a0b      	ldr	r2, [pc, #44]	; (8001fcc <LL_DMA_DisableChannel+0x3c>)
 8001fa0:	5cd3      	ldrb	r3, [r2, r3]
 8001fa2:	461a      	mov	r2, r3
 8001fa4:	687b      	ldr	r3, [r7, #4]
 8001fa6:	4413      	add	r3, r2
 8001fa8:	681b      	ldr	r3, [r3, #0]
 8001faa:	683a      	ldr	r2, [r7, #0]
 8001fac:	3a01      	subs	r2, #1
 8001fae:	4907      	ldr	r1, [pc, #28]	; (8001fcc <LL_DMA_DisableChannel+0x3c>)
 8001fb0:	5c8a      	ldrb	r2, [r1, r2]
 8001fb2:	4611      	mov	r1, r2
 8001fb4:	687a      	ldr	r2, [r7, #4]
 8001fb6:	440a      	add	r2, r1
 8001fb8:	f023 0301 	bic.w	r3, r3, #1
 8001fbc:	6013      	str	r3, [r2, #0]
}
 8001fbe:	bf00      	nop
 8001fc0:	370c      	adds	r7, #12
 8001fc2:	46bd      	mov	sp, r7
 8001fc4:	f85d 7b04 	ldr.w	r7, [sp], #4
 8001fc8:	4770      	bx	lr
 8001fca:	bf00      	nop
 8001fcc:	08005710 	.word	0x08005710

08001fd0 <LL_DMA_SetDataTransferDirection>:
{
 8001fd0:	b480      	push	{r7}
 8001fd2:	b085      	sub	sp, #20
 8001fd4:	af00      	add	r7, sp, #0
 8001fd6:	60f8      	str	r0, [r7, #12]
 8001fd8:	60b9      	str	r1, [r7, #8]
 8001fda:	607a      	str	r2, [r7, #4]
  MODIFY_REG(((DMA_Channel_TypeDef *)((uint32_t)((uint32_t)DMAx + CHANNEL_OFFSET_TAB[Channel - 1U])))->CCR,
 8001fdc:	68bb      	ldr	r3, [r7, #8]
 8001fde:	3b01      	subs	r3, #1
 8001fe0:	4a0d      	ldr	r2, [pc, #52]	; (8002018 <LL_DMA_SetDataTransferDirection+0x48>)
 8001fe2:	5cd3      	ldrb	r3, [r2, r3]
 8001fe4:	461a      	mov	r2, r3
 8001fe6:	68fb      	ldr	r3, [r7, #12]
 8001fe8:	4413      	add	r3, r2
 8001fea:	681b      	ldr	r3, [r3, #0]
 8001fec:	f423 4380 	bic.w	r3, r3, #16384	; 0x4000
 8001ff0:	f023 0310 	bic.w	r3, r3, #16
 8001ff4:	68ba      	ldr	r2, [r7, #8]
 8001ff6:	3a01      	subs	r2, #1
 8001ff8:	4907      	ldr	r1, [pc, #28]	; (8002018 <LL_DMA_SetDataTransferDirection+0x48>)
 8001ffa:	5c8a      	ldrb	r2, [r1, r2]
 8001ffc:	4611      	mov	r1, r2
 8001ffe:	68fa      	ldr	r2, [r7, #12]
 8002000:	440a      	add	r2, r1
 8002002:	4611      	mov	r1, r2
 8002004:	687a      	ldr	r2, [r7, #4]
 8002006:	4313      	orrs	r3, r2
 8002008:	600b      	str	r3, [r1, #0]
}
 800200a:	bf00      	nop
 800200c:	3714      	adds	r7, #20
 800200e:	46bd      	mov	sp, r7
 8002010:	f85d 7b04 	ldr.w	r7, [sp], #4
 8002014:	4770      	bx	lr
 8002016:	bf00      	nop
 8002018:	08005710 	.word	0x08005710

0800201c <LL_DMA_GetDataTransferDirection>:
{
 800201c:	b480      	push	{r7}
 800201e:	b083      	sub	sp, #12
 8002020:	af00      	add	r7, sp, #0
 8002022:	6078      	str	r0, [r7, #4]
 8002024:	6039      	str	r1, [r7, #0]
  return (READ_BIT(((DMA_Channel_TypeDef *)((uint32_t)((uint32_t)DMAx + CHANNEL_OFFSET_TAB[Channel - 1U])))->CCR,
 8002026:	683b      	ldr	r3, [r7, #0]
 8002028:	3b01      	subs	r3, #1
 800202a:	4a07      	ldr	r2, [pc, #28]	; (8002048 <LL_DMA_GetDataTransferDirection+0x2c>)
 800202c:	5cd3      	ldrb	r3, [r2, r3]
 800202e:	461a      	mov	r2, r3
 8002030:	687b      	ldr	r3, [r7, #4]
 8002032:	4413      	add	r3, r2
 8002034:	681a      	ldr	r2, [r3, #0]
 8002036:	f244 0310 	movw	r3, #16400	; 0x4010
 800203a:	4013      	ands	r3, r2
}
 800203c:	4618      	mov	r0, r3
 800203e:	370c      	adds	r7, #12
 8002040:	46bd      	mov	sp, r7
 8002042:	f85d 7b04 	ldr.w	r7, [sp], #4
 8002046:	4770      	bx	lr
 8002048:	08005710 	.word	0x08005710

0800204c <LL_DMA_SetMode>:
{
 800204c:	b480      	push	{r7}
 800204e:	b085      	sub	sp, #20
 8002050:	af00      	add	r7, sp, #0
 8002052:	60f8      	str	r0, [r7, #12]
 8002054:	60b9      	str	r1, [r7, #8]
 8002056:	607a      	str	r2, [r7, #4]
  MODIFY_REG(((DMA_Channel_TypeDef *)((uint32_t)((uint32_t)DMAx + CHANNEL_OFFSET_TAB[Channel - 1U])))->CCR, DMA_CCR_CIRC,
 8002058:	68bb      	ldr	r3, [r7, #8]
 800205a:	3b01      	subs	r3, #1
 800205c:	4a0c      	ldr	r2, [pc, #48]	; (8002090 <LL_DMA_SetMode+0x44>)
 800205e:	5cd3      	ldrb	r3, [r2, r3]
 8002060:	461a      	mov	r2, r3
 8002062:	68fb      	ldr	r3, [r7, #12]
 8002064:	4413      	add	r3, r2
 8002066:	681b      	ldr	r3, [r3, #0]
 8002068:	f023 0220 	bic.w	r2, r3, #32
 800206c:	68bb      	ldr	r3, [r7, #8]
 800206e:	3b01      	subs	r3, #1
 8002070:	4907      	ldr	r1, [pc, #28]	; (8002090 <LL_DMA_SetMode+0x44>)
 8002072:	5ccb      	ldrb	r3, [r1, r3]
 8002074:	4619      	mov	r1, r3
 8002076:	68fb      	ldr	r3, [r7, #12]
 8002078:	440b      	add	r3, r1
 800207a:	4619      	mov	r1, r3
 800207c:	687b      	ldr	r3, [r7, #4]
 800207e:	4313      	orrs	r3, r2
 8002080:	600b      	str	r3, [r1, #0]
}
 8002082:	bf00      	nop
 8002084:	3714      	adds	r7, #20
 8002086:	46bd      	mov	sp, r7
 8002088:	f85d 7b04 	ldr.w	r7, [sp], #4
 800208c:	4770      	bx	lr
 800208e:	bf00      	nop
 8002090:	08005710 	.word	0x08005710

08002094 <LL_DMA_SetPeriphIncMode>:
{
 8002094:	b480      	push	{r7}
 8002096:	b085      	sub	sp, #20
 8002098:	af00      	add	r7, sp, #0
 800209a:	60f8      	str	r0, [r7, #12]
 800209c:	60b9      	str	r1, [r7, #8]
 800209e:	607a      	str	r2, [r7, #4]
  MODIFY_REG(((DMA_Channel_TypeDef *)((uint32_t)((uint32_t)DMAx + CHANNEL_OFFSET_TAB[Channel - 1U])))->CCR, DMA_CCR_PINC,
 80020a0:	68bb      	ldr	r3, [r7, #8]
 80020a2:	3b01      	subs	r3, #1
 80020a4:	4a0c      	ldr	r2, [pc, #48]	; (80020d8 <LL_DMA_SetPeriphIncMode+0x44>)
 80020a6:	5cd3      	ldrb	r3, [r2, r3]
 80020a8:	461a      	mov	r2, r3
 80020aa:	68fb      	ldr	r3, [r7, #12]
 80020ac:	4413      	add	r3, r2
 80020ae:	681b      	ldr	r3, [r3, #0]
 80020b0:	f023 0240 	bic.w	r2, r3, #64	; 0x40
 80020b4:	68bb      	ldr	r3, [r7, #8]
 80020b6:	3b01      	subs	r3, #1
 80020b8:	4907      	ldr	r1, [pc, #28]	; (80020d8 <LL_DMA_SetPeriphIncMode+0x44>)
 80020ba:	5ccb      	ldrb	r3, [r1, r3]
 80020bc:	4619      	mov	r1, r3
 80020be:	68fb      	ldr	r3, [r7, #12]
 80020c0:	440b      	add	r3, r1
 80020c2:	4619      	mov	r1, r3
 80020c4:	687b      	ldr	r3, [r7, #4]
 80020c6:	4313      	orrs	r3, r2
 80020c8:	600b      	str	r3, [r1, #0]
}
 80020ca:	bf00      	nop
 80020cc:	3714      	adds	r7, #20
 80020ce:	46bd      	mov	sp, r7
 80020d0:	f85d 7b04 	ldr.w	r7, [sp], #4
 80020d4:	4770      	bx	lr
 80020d6:	bf00      	nop
 80020d8:	08005710 	.word	0x08005710

080020dc <LL_DMA_SetMemoryIncMode>:
{
 80020dc:	b480      	push	{r7}
 80020de:	b085      	sub	sp, #20
 80020e0:	af00      	add	r7, sp, #0
 80020e2:	60f8      	str	r0, [r7, #12]
 80020e4:	60b9      	str	r1, [r7, #8]
 80020e6:	607a      	str	r2, [r7, #4]
  MODIFY_REG(((DMA_Channel_TypeDef *)((uint32_t)((uint32_t)DMAx + CHANNEL_OFFSET_TAB[Channel - 1U])))->CCR, DMA_CCR_MINC,
 80020e8:	68bb      	ldr	r3, [r7, #8]
 80020ea:	3b01      	subs	r3, #1
 80020ec:	4a0c      	ldr	r2, [pc, #48]	; (8002120 <LL_DMA_SetMemoryIncMode+0x44>)
 80020ee:	5cd3      	ldrb	r3, [r2, r3]
 80020f0:	461a      	mov	r2, r3
 80020f2:	68fb      	ldr	r3, [r7, #12]
 80020f4:	4413      	add	r3, r2
 80020f6:	681b      	ldr	r3, [r3, #0]
 80020f8:	f023 0280 	bic.w	r2, r3, #128	; 0x80
 80020fc:	68bb      	ldr	r3, [r7, #8]
 80020fe:	3b01      	subs	r3, #1
 8002100:	4907      	ldr	r1, [pc, #28]	; (8002120 <LL_DMA_SetMemoryIncMode+0x44>)
 8002102:	5ccb      	ldrb	r3, [r1, r3]
 8002104:	4619      	mov	r1, r3
 8002106:	68fb      	ldr	r3, [r7, #12]
 8002108:	440b      	add	r3, r1
 800210a:	4619      	mov	r1, r3
 800210c:	687b      	ldr	r3, [r7, #4]
 800210e:	4313      	orrs	r3, r2
 8002110:	600b      	str	r3, [r1, #0]
}
 8002112:	bf00      	nop
 8002114:	3714      	adds	r7, #20
 8002116:	46bd      	mov	sp, r7
 8002118:	f85d 7b04 	ldr.w	r7, [sp], #4
 800211c:	4770      	bx	lr
 800211e:	bf00      	nop
 8002120:	08005710 	.word	0x08005710

08002124 <LL_DMA_SetPeriphSize>:
{
 8002124:	b480      	push	{r7}
 8002126:	b085      	sub	sp, #20
 8002128:	af00      	add	r7, sp, #0
 800212a:	60f8      	str	r0, [r7, #12]
 800212c:	60b9      	str	r1, [r7, #8]
 800212e:	607a      	str	r2, [r7, #4]
  MODIFY_REG(((DMA_Channel_TypeDef *)((uint32_t)((uint32_t)DMAx + CHANNEL_OFFSET_TAB[Channel - 1U])))->CCR, DMA_CCR_PSIZE,
 8002130:	68bb      	ldr	r3, [r7, #8]
 8002132:	3b01      	subs	r3, #1
 8002134:	4a0c      	ldr	r2, [pc, #48]	; (8002168 <LL_DMA_SetPeriphSize+0x44>)
 8002136:	5cd3      	ldrb	r3, [r2, r3]
 8002138:	461a      	mov	r2, r3
 800213a:	68fb      	ldr	r3, [r7, #12]
 800213c:	4413      	add	r3, r2
 800213e:	681b      	ldr	r3, [r3, #0]
 8002140:	f423 7240 	bic.w	r2, r3, #768	; 0x300
 8002144:	68bb      	ldr	r3, [r7, #8]
 8002146:	3b01      	subs	r3, #1
 8002148:	4907      	ldr	r1, [pc, #28]	; (8002168 <LL_DMA_SetPeriphSize+0x44>)
 800214a:	5ccb      	ldrb	r3, [r1, r3]
 800214c:	4619      	mov	r1, r3
 800214e:	68fb      	ldr	r3, [r7, #12]
 8002150:	440b      	add	r3, r1
 8002152:	4619      	mov	r1, r3
 8002154:	687b      	ldr	r3, [r7, #4]
 8002156:	4313      	orrs	r3, r2
 8002158:	600b      	str	r3, [r1, #0]
}
 800215a:	bf00      	nop
 800215c:	3714      	adds	r7, #20
 800215e:	46bd      	mov	sp, r7
 8002160:	f85d 7b04 	ldr.w	r7, [sp], #4
 8002164:	4770      	bx	lr
 8002166:	bf00      	nop
 8002168:	08005710 	.word	0x08005710

0800216c <LL_DMA_SetMemorySize>:
{
 800216c:	b480      	push	{r7}
 800216e:	b085      	sub	sp, #20
 8002170:	af00      	add	r7, sp, #0
 8002172:	60f8      	str	r0, [r7, #12]
 8002174:	60b9      	str	r1, [r7, #8]
 8002176:	607a      	str	r2, [r7, #4]
  MODIFY_REG(((DMA_Channel_TypeDef *)((uint32_t)((uint32_t)DMAx + CHANNEL_OFFSET_TAB[Channel - 1U])))->CCR, DMA_CCR_MSIZE,
 8002178:	68bb      	ldr	r3, [r7, #8]
 800217a:	3b01      	subs	r3, #1
 800217c:	4a0c      	ldr	r2, [pc, #48]	; (80021b0 <LL_DMA_SetMemorySize+0x44>)
 800217e:	5cd3      	ldrb	r3, [r2, r3]
 8002180:	461a      	mov	r2, r3
 8002182:	68fb      	ldr	r3, [r7, #12]
 8002184:	4413      	add	r3, r2
 8002186:	681b      	ldr	r3, [r3, #0]
 8002188:	f423 6240 	bic.w	r2, r3, #3072	; 0xc00
 800218c:	68bb      	ldr	r3, [r7, #8]
 800218e:	3b01      	subs	r3, #1
 8002190:	4907      	ldr	r1, [pc, #28]	; (80021b0 <LL_DMA_SetMemorySize+0x44>)
 8002192:	5ccb      	ldrb	r3, [r1, r3]
 8002194:	4619      	mov	r1, r3
 8002196:	68fb      	ldr	r3, [r7, #12]
 8002198:	440b      	add	r3, r1
 800219a:	4619      	mov	r1, r3
 800219c:	687b      	ldr	r3, [r7, #4]
 800219e:	4313      	orrs	r3, r2
 80021a0:	600b      	str	r3, [r1, #0]
}
 80021a2:	bf00      	nop
 80021a4:	3714      	adds	r7, #20
 80021a6:	46bd      	mov	sp, r7
 80021a8:	f85d 7b04 	ldr.w	r7, [sp], #4
 80021ac:	4770      	bx	lr
 80021ae:	bf00      	nop
 80021b0:	08005710 	.word	0x08005710

080021b4 <LL_DMA_SetChannelPriorityLevel>:
{
 80021b4:	b480      	push	{r7}
 80021b6:	b085      	sub	sp, #20
 80021b8:	af00      	add	r7, sp, #0
 80021ba:	60f8      	str	r0, [r7, #12]
 80021bc:	60b9      	str	r1, [r7, #8]
 80021be:	607a      	str	r2, [r7, #4]
  MODIFY_REG(((DMA_Channel_TypeDef *)((uint32_t)((uint32_t)DMAx + CHANNEL_OFFSET_TAB[Channel - 1U])))->CCR, DMA_CCR_PL,
 80021c0:	68bb      	ldr	r3, [r7, #8]
 80021c2:	3b01      	subs	r3, #1
 80021c4:	4a0c      	ldr	r2, [pc, #48]	; (80021f8 <LL_DMA_SetChannelPriorityLevel+0x44>)
 80021c6:	5cd3      	ldrb	r3, [r2, r3]
 80021c8:	461a      	mov	r2, r3
 80021ca:	68fb      	ldr	r3, [r7, #12]
 80021cc:	4413      	add	r3, r2
 80021ce:	681b      	ldr	r3, [r3, #0]
 80021d0:	f423 5240 	bic.w	r2, r3, #12288	; 0x3000
 80021d4:	68bb      	ldr	r3, [r7, #8]
 80021d6:	3b01      	subs	r3, #1
 80021d8:	4907      	ldr	r1, [pc, #28]	; (80021f8 <LL_DMA_SetChannelPriorityLevel+0x44>)
 80021da:	5ccb      	ldrb	r3, [r1, r3]
 80021dc:	4619      	mov	r1, r3
 80021de:	68fb      	ldr	r3, [r7, #12]
 80021e0:	440b      	add	r3, r1
 80021e2:	4619      	mov	r1, r3
 80021e4:	687b      	ldr	r3, [r7, #4]
 80021e6:	4313      	orrs	r3, r2
 80021e8:	600b      	str	r3, [r1, #0]
}
 80021ea:	bf00      	nop
 80021ec:	3714      	adds	r7, #20
 80021ee:	46bd      	mov	sp, r7
 80021f0:	f85d 7b04 	ldr.w	r7, [sp], #4
 80021f4:	4770      	bx	lr
 80021f6:	bf00      	nop
 80021f8:	08005710 	.word	0x08005710

080021fc <LL_DMA_SetDataLength>:
{
 80021fc:	b480      	push	{r7}
 80021fe:	b085      	sub	sp, #20
 8002200:	af00      	add	r7, sp, #0
 8002202:	60f8      	str	r0, [r7, #12]
 8002204:	60b9      	str	r1, [r7, #8]
 8002206:	607a      	str	r2, [r7, #4]
  MODIFY_REG(((DMA_Channel_TypeDef *)((uint32_t)((uint32_t)DMAx + CHANNEL_OFFSET_TAB[Channel - 1U])))->CNDTR,
 8002208:	68bb      	ldr	r3, [r7, #8]
 800220a:	3b01      	subs	r3, #1
 800220c:	4a0c      	ldr	r2, [pc, #48]	; (8002240 <LL_DMA_SetDataLength+0x44>)
 800220e:	5cd3      	ldrb	r3, [r2, r3]
 8002210:	461a      	mov	r2, r3
 8002212:	68fb      	ldr	r3, [r7, #12]
 8002214:	4413      	add	r3, r2
 8002216:	685b      	ldr	r3, [r3, #4]
 8002218:	0c1b      	lsrs	r3, r3, #16
 800221a:	041b      	lsls	r3, r3, #16
 800221c:	68ba      	ldr	r2, [r7, #8]
 800221e:	3a01      	subs	r2, #1
 8002220:	4907      	ldr	r1, [pc, #28]	; (8002240 <LL_DMA_SetDataLength+0x44>)
 8002222:	5c8a      	ldrb	r2, [r1, r2]
 8002224:	4611      	mov	r1, r2
 8002226:	68fa      	ldr	r2, [r7, #12]
 8002228:	440a      	add	r2, r1
 800222a:	4611      	mov	r1, r2
 800222c:	687a      	ldr	r2, [r7, #4]
 800222e:	4313      	orrs	r3, r2
 8002230:	604b      	str	r3, [r1, #4]
}
 8002232:	bf00      	nop
 8002234:	3714      	adds	r7, #20
 8002236:	46bd      	mov	sp, r7
 8002238:	f85d 7b04 	ldr.w	r7, [sp], #4
 800223c:	4770      	bx	lr
 800223e:	bf00      	nop
 8002240:	08005710 	.word	0x08005710

08002244 <LL_DMA_GetDataLength>:
{
 8002244:	b480      	push	{r7}
 8002246:	b083      	sub	sp, #12
 8002248:	af00      	add	r7, sp, #0
 800224a:	6078      	str	r0, [r7, #4]
 800224c:	6039      	str	r1, [r7, #0]
  return (READ_BIT(((DMA_Channel_TypeDef *)((uint32_t)((uint32_t)DMAx + CHANNEL_OFFSET_TAB[Channel - 1U])))->CNDTR,
 800224e:	683b      	ldr	r3, [r7, #0]
 8002250:	3b01      	subs	r3, #1
 8002252:	4a06      	ldr	r2, [pc, #24]	; (800226c <LL_DMA_GetDataLength+0x28>)
 8002254:	5cd3      	ldrb	r3, [r2, r3]
 8002256:	461a      	mov	r2, r3
 8002258:	687b      	ldr	r3, [r7, #4]
 800225a:	4413      	add	r3, r2
 800225c:	685b      	ldr	r3, [r3, #4]
 800225e:	b29b      	uxth	r3, r3
}
 8002260:	4618      	mov	r0, r3
 8002262:	370c      	adds	r7, #12
 8002264:	46bd      	mov	sp, r7
 8002266:	f85d 7b04 	ldr.w	r7, [sp], #4
 800226a:	4770      	bx	lr
 800226c:	08005710 	.word	0x08005710

08002270 <LL_DMA_ConfigAddresses>:
{
 8002270:	b480      	push	{r7}
 8002272:	b085      	sub	sp, #20
 8002274:	af00      	add	r7, sp, #0
 8002276:	60f8      	str	r0, [r7, #12]
 8002278:	60b9      	str	r1, [r7, #8]
 800227a:	607a      	str	r2, [r7, #4]
 800227c:	603b      	str	r3, [r7, #0]
  if (Direction == LL_DMA_DIRECTION_MEMORY_TO_PERIPH)
 800227e:	69bb      	ldr	r3, [r7, #24]
 8002280:	2b10      	cmp	r3, #16
 8002282:	d114      	bne.n	80022ae <LL_DMA_ConfigAddresses+0x3e>
    WRITE_REG(((DMA_Channel_TypeDef *)((uint32_t)((uint32_t)DMAx + CHANNEL_OFFSET_TAB[Channel - 1U])))->CMAR, SrcAddress);
 8002284:	68bb      	ldr	r3, [r7, #8]
 8002286:	3b01      	subs	r3, #1
 8002288:	4a16      	ldr	r2, [pc, #88]	; (80022e4 <LL_DMA_ConfigAddresses+0x74>)
 800228a:	5cd3      	ldrb	r3, [r2, r3]
 800228c:	461a      	mov	r2, r3
 800228e:	68fb      	ldr	r3, [r7, #12]
 8002290:	4413      	add	r3, r2
 8002292:	461a      	mov	r2, r3
 8002294:	687b      	ldr	r3, [r7, #4]
 8002296:	60d3      	str	r3, [r2, #12]
    WRITE_REG(((DMA_Channel_TypeDef *)((uint32_t)((uint32_t)DMAx + CHANNEL_OFFSET_TAB[Channel - 1U])))->CPAR, DstAddress);
 8002298:	68bb      	ldr	r3, [r7, #8]
 800229a:	3b01      	subs	r3, #1
 800229c:	4a11      	ldr	r2, [pc, #68]	; (80022e4 <LL_DMA_ConfigAddresses+0x74>)
 800229e:	5cd3      	ldrb	r3, [r2, r3]
 80022a0:	461a      	mov	r2, r3
 80022a2:	68fb      	ldr	r3, [r7, #12]
 80022a4:	4413      	add	r3, r2
 80022a6:	461a      	mov	r2, r3
 80022a8:	683b      	ldr	r3, [r7, #0]
 80022aa:	6093      	str	r3, [r2, #8]
}
 80022ac:	e013      	b.n	80022d6 <LL_DMA_ConfigAddresses+0x66>
    WRITE_REG(((DMA_Channel_TypeDef *)((uint32_t)((uint32_t)DMAx + CHANNEL_OFFSET_TAB[Channel - 1U])))->CPAR, SrcAddress);
 80022ae:	68bb      	ldr	r3, [r7, #8]
 80022b0:	3b01      	subs	r3, #1
 80022b2:	4a0c      	ldr	r2, [pc, #48]	; (80022e4 <LL_DMA_ConfigAddresses+0x74>)
 80022b4:	5cd3      	ldrb	r3, [r2, r3]
 80022b6:	461a      	mov	r2, r3
 80022b8:	68fb      	ldr	r3, [r7, #12]
 80022ba:	4413      	add	r3, r2
 80022bc:	461a      	mov	r2, r3
 80022be:	687b      	ldr	r3, [r7, #4]
 80022c0:	6093      	str	r3, [r2, #8]
    WRITE_REG(((DMA_Channel_TypeDef *)((uint32_t)((uint32_t)DMAx + CHANNEL_OFFSET_TAB[Channel - 1U])))->CMAR, DstAddress);
 80022c2:	68bb      	ldr	r3, [r7, #8]
 80022c4:	3b01      	subs	r3, #1
 80022c6:	4a07      	ldr	r2, [pc, #28]	; (80022e4 <LL_DMA_ConfigAddresses+0x74>)
 80022c8:	5cd3      	ldrb	r3, [r2, r3]
 80022ca:	461a      	mov	r2, r3
 80022cc:	68fb      	ldr	r3, [r7, #12]
 80022ce:	4413      	add	r3, r2
 80022d0:	461a      	mov	r2, r3
 80022d2:	683b      	ldr	r3, [r7, #0]
 80022d4:	60d3      	str	r3, [r2, #12]
}
 80022d6:	bf00      	nop
 80022d8:	3714      	adds	r7, #20
 80022da:	46bd      	mov	sp, r7
 80022dc:	f85d 7b04 	ldr.w	r7, [sp], #4
 80022e0:	4770      	bx	lr
 80022e2:	bf00      	nop
 80022e4:	08005710 	.word	0x08005710

080022e8 <LL_DMA_SetMemoryAddress>:
{
 80022e8:	b480      	push	{r7}
 80022ea:	b085      	sub	sp, #20
 80022ec:	af00      	add	r7, sp, #0
 80022ee:	60f8      	str	r0, [r7, #12]
 80022f0:	60b9      	str	r1, [r7, #8]
 80022f2:	607a      	str	r2, [r7, #4]
  WRITE_REG(((DMA_Channel_TypeDef *)((uint32_t)((uint32_t)DMAx + CHANNEL_OFFSET_TAB[Channel - 1U])))->CMAR, MemoryAddress);
 80022f4:	68bb      	ldr	r3, [r7, #8]
 80022f6:	3b01      	subs	r3, #1
 80022f8:	4a06      	ldr	r2, [pc, #24]	; (8002314 <LL_DMA_SetMemoryAddress+0x2c>)
 80022fa:	5cd3      	ldrb	r3, [r2, r3]
 80022fc:	461a      	mov	r2, r3
 80022fe:	68fb      	ldr	r3, [r7, #12]
 8002300:	4413      	add	r3, r2
 8002302:	461a      	mov	r2, r3
 8002304:	687b      	ldr	r3, [r7, #4]
 8002306:	60d3      	str	r3, [r2, #12]
}
 8002308:	bf00      	nop
 800230a:	3714      	adds	r7, #20
 800230c:	46bd      	mov	sp, r7
 800230e:	f85d 7b04 	ldr.w	r7, [sp], #4
 8002312:	4770      	bx	lr
 8002314:	08005710 	.word	0x08005710

08002318 <LL_DMA_SetPeriphAddress>:
{
 8002318:	b480      	push	{r7}
 800231a:	b085      	sub	sp, #20
 800231c:	af00      	add	r7, sp, #0
 800231e:	60f8      	str	r0, [r7, #12]
 8002320:	60b9      	str	r1, [r7, #8]
 8002322:	607a      	str	r2, [r7, #4]
  WRITE_REG(((DMA_Channel_TypeDef *)((uint32_t)((uint32_t)DMAx + CHANNEL_OFFSET_TAB[Channel - 1U])))->CPAR, PeriphAddress);
 8002324:	68bb      	ldr	r3, [r7, #8]
 8002326:	3b01      	subs	r3, #1
 8002328:	4a06      	ldr	r2, [pc, #24]	; (8002344 <LL_DMA_SetPeriphAddress+0x2c>)
 800232a:	5cd3      	ldrb	r3, [r2, r3]
 800232c:	461a      	mov	r2, r3
 800232e:	68fb      	ldr	r3, [r7, #12]
 8002330:	4413      	add	r3, r2
 8002332:	461a      	mov	r2, r3
 8002334:	687b      	ldr	r3, [r7, #4]
 8002336:	6093      	str	r3, [r2, #8]
}
 8002338:	bf00      	nop
 800233a:	3714      	adds	r7, #20
 800233c:	46bd      	mov	sp, r7
 800233e:	f85d 7b04 	ldr.w	r7, [sp], #4
 8002342:	4770      	bx	lr
 8002344:	08005710 	.word	0x08005710

08002348 <LL_DMA_IsActiveFlag_TC6>:
{
 8002348:	b480      	push	{r7}
 800234a:	b083      	sub	sp, #12
 800234c:	af00      	add	r7, sp, #0
 800234e:	6078      	str	r0, [r7, #4]
  return (READ_BIT(DMAx->ISR, DMA_ISR_TCIF6) == (DMA_ISR_TCIF6));
 8002350:	687b      	ldr	r3, [r7, #4]
 8002352:	681b      	ldr	r3, [r3, #0]
 8002354:	f403 1300 	and.w	r3, r3, #2097152	; 0x200000
 8002358:	f5b3 1f00 	cmp.w	r3, #2097152	; 0x200000
 800235c:	bf0c      	ite	eq
 800235e:	2301      	moveq	r3, #1
 8002360:	2300      	movne	r3, #0
 8002362:	b2db      	uxtb	r3, r3
}
 8002364:	4618      	mov	r0, r3
 8002366:	370c      	adds	r7, #12
 8002368:	46bd      	mov	sp, r7
 800236a:	f85d 7b04 	ldr.w	r7, [sp], #4
 800236e:	4770      	bx	lr

08002370 <LL_DMA_IsActiveFlag_HT6>:
{
 8002370:	b480      	push	{r7}
 8002372:	b083      	sub	sp, #12
 8002374:	af00      	add	r7, sp, #0
 8002376:	6078      	str	r0, [r7, #4]
  return (READ_BIT(DMAx->ISR, DMA_ISR_HTIF6) == (DMA_ISR_HTIF6));
 8002378:	687b      	ldr	r3, [r7, #4]
 800237a:	681b      	ldr	r3, [r3, #0]
 800237c:	f403 0380 	and.w	r3, r3, #4194304	; 0x400000
 8002380:	f5b3 0f80 	cmp.w	r3, #4194304	; 0x400000
 8002384:	bf0c      	ite	eq
 8002386:	2301      	moveq	r3, #1
 8002388:	2300      	movne	r3, #0
 800238a:	b2db      	uxtb	r3, r3
}
 800238c:	4618      	mov	r0, r3
 800238e:	370c      	adds	r7, #12
 8002390:	46bd      	mov	sp, r7
 8002392:	f85d 7b04 	ldr.w	r7, [sp], #4
 8002396:	4770      	bx	lr

08002398 <LL_DMA_EnableIT_TC>:
  *         @arg @ref LL_DMA_CHANNEL_6
  *         @arg @ref LL_DMA_CHANNEL_7
  * @retval None
  */
__STATIC_INLINE void LL_DMA_EnableIT_TC(DMA_TypeDef *DMAx, uint32_t Channel)
{
 8002398:	b480      	push	{r7}
 800239a:	b083      	sub	sp, #12
 800239c:	af00      	add	r7, sp, #0
 800239e:	6078      	str	r0, [r7, #4]
 80023a0:	6039      	str	r1, [r7, #0]
  SET_BIT(((DMA_Channel_TypeDef *)((uint32_t)((uint32_t)DMAx + CHANNEL_OFFSET_TAB[Channel - 1U])))->CCR, DMA_CCR_TCIE);
 80023a2:	683b      	ldr	r3, [r7, #0]
 80023a4:	3b01      	subs	r3, #1
 80023a6:	4a0b      	ldr	r2, [pc, #44]	; (80023d4 <LL_DMA_EnableIT_TC+0x3c>)
 80023a8:	5cd3      	ldrb	r3, [r2, r3]
 80023aa:	461a      	mov	r2, r3
 80023ac:	687b      	ldr	r3, [r7, #4]
 80023ae:	4413      	add	r3, r2
 80023b0:	681b      	ldr	r3, [r3, #0]
 80023b2:	683a      	ldr	r2, [r7, #0]
 80023b4:	3a01      	subs	r2, #1
 80023b6:	4907      	ldr	r1, [pc, #28]	; (80023d4 <LL_DMA_EnableIT_TC+0x3c>)
 80023b8:	5c8a      	ldrb	r2, [r1, r2]
 80023ba:	4611      	mov	r1, r2
 80023bc:	687a      	ldr	r2, [r7, #4]
 80023be:	440a      	add	r2, r1
 80023c0:	f043 0302 	orr.w	r3, r3, #2
 80023c4:	6013      	str	r3, [r2, #0]
}
 80023c6:	bf00      	nop
 80023c8:	370c      	adds	r7, #12
 80023ca:	46bd      	mov	sp, r7
 80023cc:	f85d 7b04 	ldr.w	r7, [sp], #4
 80023d0:	4770      	bx	lr
 80023d2:	bf00      	nop
 80023d4:	08005710 	.word	0x08005710

080023d8 <LL_DMA_EnableIT_HT>:
  *         @arg @ref LL_DMA_CHANNEL_6
  *         @arg @ref LL_DMA_CHANNEL_7
  * @retval None
  */
__STATIC_INLINE void LL_DMA_EnableIT_HT(DMA_TypeDef *DMAx, uint32_t Channel)
{
 80023d8:	b480      	push	{r7}
 80023da:	b083      	sub	sp, #12
 80023dc:	af00      	add	r7, sp, #0
 80023de:	6078      	str	r0, [r7, #4]
 80023e0:	6039      	str	r1, [r7, #0]
  SET_BIT(((DMA_Channel_TypeDef *)((uint32_t)((uint32_t)DMAx + CHANNEL_OFFSET_TAB[Channel - 1U])))->CCR, DMA_CCR_HTIE);
 80023e2:	683b      	ldr	r3, [r7, #0]
 80023e4:	3b01      	subs	r3, #1
 80023e6:	4a0b      	ldr	r2, [pc, #44]	; (8002414 <LL_DMA_EnableIT_HT+0x3c>)
 80023e8:	5cd3      	ldrb	r3, [r2, r3]
 80023ea:	461a      	mov	r2, r3
 80023ec:	687b      	ldr	r3, [r7, #4]
 80023ee:	4413      	add	r3, r2
 80023f0:	681b      	ldr	r3, [r3, #0]
 80023f2:	683a      	ldr	r2, [r7, #0]
 80023f4:	3a01      	subs	r2, #1
 80023f6:	4907      	ldr	r1, [pc, #28]	; (8002414 <LL_DMA_EnableIT_HT+0x3c>)
 80023f8:	5c8a      	ldrb	r2, [r1, r2]
 80023fa:	4611      	mov	r1, r2
 80023fc:	687a      	ldr	r2, [r7, #4]
 80023fe:	440a      	add	r2, r1
 8002400:	f043 0304 	orr.w	r3, r3, #4
 8002404:	6013      	str	r3, [r2, #0]
}
 8002406:	bf00      	nop
 8002408:	370c      	adds	r7, #12
 800240a:	46bd      	mov	sp, r7
 800240c:	f85d 7b04 	ldr.w	r7, [sp], #4
 8002410:	4770      	bx	lr
 8002412:	bf00      	nop
 8002414:	08005710 	.word	0x08005710

08002418 <LL_DMA_EnableIT_TE>:
  *         @arg @ref LL_DMA_CHANNEL_6
  *         @arg @ref LL_DMA_CHANNEL_7
  * @retval None
  */
__STATIC_INLINE void LL_DMA_EnableIT_TE(DMA_TypeDef *DMAx, uint32_t Channel)
{
 8002418:	b480      	push	{r7}
 800241a:	b083      	sub	sp, #12
 800241c:	af00      	add	r7, sp, #0
 800241e:	6078      	str	r0, [r7, #4]
 8002420:	6039      	str	r1, [r7, #0]
  SET_BIT(((DMA_Channel_TypeDef *)((uint32_t)((uint32_t)DMAx + CHANNEL_OFFSET_TAB[Channel - 1U])))->CCR, DMA_CCR_TEIE);
 8002422:	683b      	ldr	r3, [r7, #0]
 8002424:	3b01      	subs	r3, #1
 8002426:	4a0b      	ldr	r2, [pc, #44]	; (8002454 <LL_DMA_EnableIT_TE+0x3c>)
 8002428:	5cd3      	ldrb	r3, [r2, r3]
 800242a:	461a      	mov	r2, r3
 800242c:	687b      	ldr	r3, [r7, #4]
 800242e:	4413      	add	r3, r2
 8002430:	681b      	ldr	r3, [r3, #0]
 8002432:	683a      	ldr	r2, [r7, #0]
 8002434:	3a01      	subs	r2, #1
 8002436:	4907      	ldr	r1, [pc, #28]	; (8002454 <LL_DMA_EnableIT_TE+0x3c>)
 8002438:	5c8a      	ldrb	r2, [r1, r2]
 800243a:	4611      	mov	r1, r2
 800243c:	687a      	ldr	r2, [r7, #4]
 800243e:	440a      	add	r2, r1
 8002440:	f043 0308 	orr.w	r3, r3, #8
 8002444:	6013      	str	r3, [r2, #0]
}
 8002446:	bf00      	nop
 8002448:	370c      	adds	r7, #12
 800244a:	46bd      	mov	sp, r7
 800244c:	f85d 7b04 	ldr.w	r7, [sp], #4
 8002450:	4770      	bx	lr
 8002452:	bf00      	nop
 8002454:	08005710 	.word	0x08005710

08002458 <LL_AHB1_GRP1_EnableClock>:
{
 8002458:	b480      	push	{r7}
 800245a:	b085      	sub	sp, #20
 800245c:	af00      	add	r7, sp, #0
 800245e:	6078      	str	r0, [r7, #4]
  SET_BIT(RCC->AHBENR, Periphs);
 8002460:	4b08      	ldr	r3, [pc, #32]	; (8002484 <LL_AHB1_GRP1_EnableClock+0x2c>)
 8002462:	695a      	ldr	r2, [r3, #20]
 8002464:	4907      	ldr	r1, [pc, #28]	; (8002484 <LL_AHB1_GRP1_EnableClock+0x2c>)
 8002466:	687b      	ldr	r3, [r7, #4]
 8002468:	4313      	orrs	r3, r2
 800246a:	614b      	str	r3, [r1, #20]
  tmpreg = READ_BIT(RCC->AHBENR, Periphs);
 800246c:	4b05      	ldr	r3, [pc, #20]	; (8002484 <LL_AHB1_GRP1_EnableClock+0x2c>)
 800246e:	695a      	ldr	r2, [r3, #20]
 8002470:	687b      	ldr	r3, [r7, #4]
 8002472:	4013      	ands	r3, r2
 8002474:	60fb      	str	r3, [r7, #12]
  (void)tmpreg;
 8002476:	68fb      	ldr	r3, [r7, #12]
}
 8002478:	bf00      	nop
 800247a:	3714      	adds	r7, #20
 800247c:	46bd      	mov	sp, r7
 800247e:	f85d 7b04 	ldr.w	r7, [sp], #4
 8002482:	4770      	bx	lr
 8002484:	40021000 	.word	0x40021000

08002488 <LL_APB1_GRP1_EnableClock>:
{
 8002488:	b480      	push	{r7}
 800248a:	b085      	sub	sp, #20
 800248c:	af00      	add	r7, sp, #0
 800248e:	6078      	str	r0, [r7, #4]
  SET_BIT(RCC->APB1ENR, Periphs);
 8002490:	4b08      	ldr	r3, [pc, #32]	; (80024b4 <LL_APB1_GRP1_EnableClock+0x2c>)
 8002492:	69da      	ldr	r2, [r3, #28]
 8002494:	4907      	ldr	r1, [pc, #28]	; (80024b4 <LL_APB1_GRP1_EnableClock+0x2c>)
 8002496:	687b      	ldr	r3, [r7, #4]
 8002498:	4313      	orrs	r3, r2
 800249a:	61cb      	str	r3, [r1, #28]
  tmpreg = READ_BIT(RCC->APB1ENR, Periphs);
 800249c:	4b05      	ldr	r3, [pc, #20]	; (80024b4 <LL_APB1_GRP1_EnableClock+0x2c>)
 800249e:	69da      	ldr	r2, [r3, #28]
 80024a0:	687b      	ldr	r3, [r7, #4]
 80024a2:	4013      	ands	r3, r2
 80024a4:	60fb      	str	r3, [r7, #12]
  (void)tmpreg;
 80024a6:	68fb      	ldr	r3, [r7, #12]
}
 80024a8:	bf00      	nop
 80024aa:	3714      	adds	r7, #20
 80024ac:	46bd      	mov	sp, r7
 80024ae:	f85d 7b04 	ldr.w	r7, [sp], #4
 80024b2:	4770      	bx	lr
 80024b4:	40021000 	.word	0x40021000

080024b8 <LL_USART_Enable>:
{
 80024b8:	b480      	push	{r7}
 80024ba:	b083      	sub	sp, #12
 80024bc:	af00      	add	r7, sp, #0
 80024be:	6078      	str	r0, [r7, #4]
  SET_BIT(USARTx->CR1, USART_CR1_UE);
 80024c0:	687b      	ldr	r3, [r7, #4]
 80024c2:	681b      	ldr	r3, [r3, #0]
 80024c4:	f043 0201 	orr.w	r2, r3, #1
 80024c8:	687b      	ldr	r3, [r7, #4]
 80024ca:	601a      	str	r2, [r3, #0]
}
 80024cc:	bf00      	nop
 80024ce:	370c      	adds	r7, #12
 80024d0:	46bd      	mov	sp, r7
 80024d2:	f85d 7b04 	ldr.w	r7, [sp], #4
 80024d6:	4770      	bx	lr

080024d8 <LL_USART_ConfigAsyncMode>:
{
 80024d8:	b480      	push	{r7}
 80024da:	b083      	sub	sp, #12
 80024dc:	af00      	add	r7, sp, #0
 80024de:	6078      	str	r0, [r7, #4]
  CLEAR_BIT(USARTx->CR2, (USART_CR2_LINEN | USART_CR2_CLKEN));
 80024e0:	687b      	ldr	r3, [r7, #4]
 80024e2:	685b      	ldr	r3, [r3, #4]
 80024e4:	f423 4290 	bic.w	r2, r3, #18432	; 0x4800
 80024e8:	687b      	ldr	r3, [r7, #4]
 80024ea:	605a      	str	r2, [r3, #4]
  CLEAR_BIT(USARTx->CR3, (USART_CR3_SCEN | USART_CR3_IREN | USART_CR3_HDSEL));
 80024ec:	687b      	ldr	r3, [r7, #4]
 80024ee:	689b      	ldr	r3, [r3, #8]
 80024f0:	f023 022a 	bic.w	r2, r3, #42	; 0x2a
 80024f4:	687b      	ldr	r3, [r7, #4]
 80024f6:	609a      	str	r2, [r3, #8]
}
 80024f8:	bf00      	nop
 80024fa:	370c      	adds	r7, #12
 80024fc:	46bd      	mov	sp, r7
 80024fe:	f85d 7b04 	ldr.w	r7, [sp], #4
 8002502:	4770      	bx	lr

08002504 <LL_USART_EnableIT_IDLE>:
  * @rmtoll CR1          IDLEIE        LL_USART_EnableIT_IDLE
  * @param  USARTx USART Instance
  * @retval None
  */
__STATIC_INLINE void LL_USART_EnableIT_IDLE(USART_TypeDef *USARTx)
{
 8002504:	b480      	push	{r7}
 8002506:	b083      	sub	sp, #12
 8002508:	af00      	add	r7, sp, #0
 800250a:	6078      	str	r0, [r7, #4]
  SET_BIT(USARTx->CR1, USART_CR1_IDLEIE);
 800250c:	687b      	ldr	r3, [r7, #4]
 800250e:	681b      	ldr	r3, [r3, #0]
 8002510:	f043 0210 	orr.w	r2, r3, #16
 8002514:	687b      	ldr	r3, [r7, #4]
 8002516:	601a      	str	r2, [r3, #0]
}
 8002518:	bf00      	nop
 800251a:	370c      	adds	r7, #12
 800251c:	46bd      	mov	sp, r7
 800251e:	f85d 7b04 	ldr.w	r7, [sp], #4
 8002522:	4770      	bx	lr

08002524 <LL_USART_DisableIT_CTS>:
  * @rmtoll CR3          CTSIE         LL_USART_DisableIT_CTS
  * @param  USARTx USART Instance
  * @retval None
  */
__STATIC_INLINE void LL_USART_DisableIT_CTS(USART_TypeDef *USARTx)
{
 8002524:	b480      	push	{r7}
 8002526:	b083      	sub	sp, #12
 8002528:	af00      	add	r7, sp, #0
 800252a:	6078      	str	r0, [r7, #4]
  CLEAR_BIT(USARTx->CR3, USART_CR3_CTSIE);
 800252c:	687b      	ldr	r3, [r7, #4]
 800252e:	689b      	ldr	r3, [r3, #8]
 8002530:	f423 6280 	bic.w	r2, r3, #1024	; 0x400
 8002534:	687b      	ldr	r3, [r7, #4]
 8002536:	609a      	str	r2, [r3, #8]
}
 8002538:	bf00      	nop
 800253a:	370c      	adds	r7, #12
 800253c:	46bd      	mov	sp, r7
 800253e:	f85d 7b04 	ldr.w	r7, [sp], #4
 8002542:	4770      	bx	lr

08002544 <LL_USART_EnableDMAReq_RX>:
  * @rmtoll CR3          DMAR          LL_USART_EnableDMAReq_RX
  * @param  USARTx USART Instance
  * @retval None
  */
__STATIC_INLINE void LL_USART_EnableDMAReq_RX(USART_TypeDef *USARTx)
{
 8002544:	b480      	push	{r7}
 8002546:	b083      	sub	sp, #12
 8002548:	af00      	add	r7, sp, #0
 800254a:	6078      	str	r0, [r7, #4]
  SET_BIT(USARTx->CR3, USART_CR3_DMAR);
 800254c:	687b      	ldr	r3, [r7, #4]
 800254e:	689b      	ldr	r3, [r3, #8]
 8002550:	f043 0240 	orr.w	r2, r3, #64	; 0x40
 8002554:	687b      	ldr	r3, [r7, #4]
 8002556:	609a      	str	r2, [r3, #8]
}
 8002558:	bf00      	nop
 800255a:	370c      	adds	r7, #12
 800255c:	46bd      	mov	sp, r7
 800255e:	f85d 7b04 	ldr.w	r7, [sp], #4
 8002562:	4770      	bx	lr

08002564 <LL_USART_EnableDMAReq_TX>:
  * @rmtoll CR3          DMAT          LL_USART_EnableDMAReq_TX
  * @param  USARTx USART Instance
  * @retval None
  */
__STATIC_INLINE void LL_USART_EnableDMAReq_TX(USART_TypeDef *USARTx)
{
 8002564:	b480      	push	{r7}
 8002566:	b083      	sub	sp, #12
 8002568:	af00      	add	r7, sp, #0
 800256a:	6078      	str	r0, [r7, #4]
  SET_BIT(USARTx->CR3, USART_CR3_DMAT);
 800256c:	687b      	ldr	r3, [r7, #4]
 800256e:	689b      	ldr	r3, [r3, #8]
 8002570:	f043 0280 	orr.w	r2, r3, #128	; 0x80
 8002574:	687b      	ldr	r3, [r7, #4]
 8002576:	609a      	str	r2, [r3, #8]
}
 8002578:	bf00      	nop
 800257a:	370c      	adds	r7, #12
 800257c:	46bd      	mov	sp, r7
 800257e:	f85d 7b04 	ldr.w	r7, [sp], #4
 8002582:	4770      	bx	lr

08002584 <LL_USART_DMA_GetRegAddr>:
  *         @arg @ref LL_USART_DMA_REG_DATA_TRANSMIT
  *         @arg @ref LL_USART_DMA_REG_DATA_RECEIVE
  * @retval Address of data register
  */
__STATIC_INLINE uint32_t LL_USART_DMA_GetRegAddr(USART_TypeDef *USARTx, uint32_t Direction)
{
 8002584:	b490      	push	{r4, r7}
 8002586:	b082      	sub	sp, #8
 8002588:	af00      	add	r7, sp, #0
 800258a:	6078      	str	r0, [r7, #4]
 800258c:	6039      	str	r1, [r7, #0]
  register uint32_t data_reg_addr = 0U;
 800258e:	2400      	movs	r4, #0

  if (Direction == LL_USART_DMA_REG_DATA_TRANSMIT)
 8002590:	683b      	ldr	r3, [r7, #0]
 8002592:	2b00      	cmp	r3, #0
 8002594:	d103      	bne.n	800259e <LL_USART_DMA_GetRegAddr+0x1a>
  {
    /* return address of TDR register */
    data_reg_addr = (uint32_t) &(USARTx->TDR);
 8002596:	687b      	ldr	r3, [r7, #4]
 8002598:	3328      	adds	r3, #40	; 0x28
 800259a:	461c      	mov	r4, r3
 800259c:	e002      	b.n	80025a4 <LL_USART_DMA_GetRegAddr+0x20>
  }
  else
  {
    /* return address of RDR register */
    data_reg_addr = (uint32_t) &(USARTx->RDR);
 800259e:	687b      	ldr	r3, [r7, #4]
 80025a0:	3324      	adds	r3, #36	; 0x24
 80025a2:	461c      	mov	r4, r3
  }

  return data_reg_addr;
 80025a4:	4623      	mov	r3, r4
}
 80025a6:	4618      	mov	r0, r3
 80025a8:	3708      	adds	r7, #8
 80025aa:	46bd      	mov	sp, r7
 80025ac:	bc90      	pop	{r4, r7}
 80025ae:	4770      	bx	lr

080025b0 <USART2_RegisterCallback>:

/* Declaration and initialization of callback function */
static void (*USART2_ProcessData)(uint8_t data) = 0;

/* Register callback */
void USART2_RegisterCallback(void *callback) {
 80025b0:	b480      	push	{r7}
 80025b2:	b083      	sub	sp, #12
 80025b4:	af00      	add	r7, sp, #0
 80025b6:	6078      	str	r0, [r7, #4]
	if (callback != 0) {
 80025b8:	687b      	ldr	r3, [r7, #4]
 80025ba:	2b00      	cmp	r3, #0
 80025bc:	d002      	beq.n	80025c4 <USART2_RegisterCallback+0x14>
		USART2_ProcessData = callback;
 80025be:	687b      	ldr	r3, [r7, #4]
 80025c0:	4a03      	ldr	r2, [pc, #12]	; (80025d0 <USART2_RegisterCallback+0x20>)
 80025c2:	6013      	str	r3, [r2, #0]
	}
}
 80025c4:	bf00      	nop
 80025c6:	370c      	adds	r7, #12
 80025c8:	46bd      	mov	sp, r7
 80025ca:	f85d 7b04 	ldr.w	r7, [sp], #4
 80025ce:	4770      	bx	lr
 80025d0:	200001fc 	.word	0x200001fc

080025d4 <MX_USART2_UART_Init>:

/* Space for global variables, if you need them */

// type global variables here
/* USART2 init function */
void MX_USART2_UART_Init(void) {
 80025d4:	b5b0      	push	{r4, r5, r7, lr}
 80025d6:	b090      	sub	sp, #64	; 0x40
 80025d8:	af02      	add	r7, sp, #8
	LL_USART_InitTypeDef USART_InitStruct = { 0 };
 80025da:	f107 031c 	add.w	r3, r7, #28
 80025de:	2200      	movs	r2, #0
 80025e0:	601a      	str	r2, [r3, #0]
 80025e2:	605a      	str	r2, [r3, #4]
 80025e4:	609a      	str	r2, [r3, #8]
 80025e6:	60da      	str	r2, [r3, #12]
 80025e8:	611a      	str	r2, [r3, #16]
 80025ea:	615a      	str	r2, [r3, #20]
 80025ec:	619a      	str	r2, [r3, #24]

	LL_GPIO_InitTypeDef GPIO_InitStruct = { 0 };
 80025ee:	1d3b      	adds	r3, r7, #4
 80025f0:	2200      	movs	r2, #0
 80025f2:	601a      	str	r2, [r3, #0]
 80025f4:	605a      	str	r2, [r3, #4]
 80025f6:	609a      	str	r2, [r3, #8]
 80025f8:	60da      	str	r2, [r3, #12]
 80025fa:	611a      	str	r2, [r3, #16]
 80025fc:	615a      	str	r2, [r3, #20]
	/* Peripheral clock enable */
	LL_APB1_GRP1_EnableClock(LL_APB1_GRP1_PERIPH_USART2);
 80025fe:	f44f 3000 	mov.w	r0, #131072	; 0x20000
 8002602:	f7ff ff41 	bl	8002488 <LL_APB1_GRP1_EnableClock>

	LL_AHB1_GRP1_EnableClock(LL_AHB1_GRP1_PERIPH_GPIOA);
 8002606:	f44f 3000 	mov.w	r0, #131072	; 0x20000
 800260a:	f7ff ff25 	bl	8002458 <LL_AHB1_GRP1_EnableClock>
	/**USART2 GPIO Configuration
	 PA2   ------> USART2_TX
	 PA15   ------> USART2_RX
	 */
	GPIO_InitStruct.Pin = LL_GPIO_PIN_2 | LL_GPIO_PIN_15;
 800260e:	f248 0304 	movw	r3, #32772	; 0x8004
 8002612:	607b      	str	r3, [r7, #4]
	GPIO_InitStruct.Mode = LL_GPIO_MODE_ALTERNATE;
 8002614:	2302      	movs	r3, #2
 8002616:	60bb      	str	r3, [r7, #8]
	GPIO_InitStruct.Speed = LL_GPIO_SPEED_FREQ_HIGH;
 8002618:	2303      	movs	r3, #3
 800261a:	60fb      	str	r3, [r7, #12]
	GPIO_InitStruct.OutputType = LL_GPIO_OUTPUT_PUSHPULL;
 800261c:	2300      	movs	r3, #0
 800261e:	613b      	str	r3, [r7, #16]
	GPIO_InitStruct.Pull = LL_GPIO_PULL_NO;
 8002620:	2300      	movs	r3, #0
 8002622:	617b      	str	r3, [r7, #20]
	GPIO_InitStruct.Alternate = LL_GPIO_AF_7;
 8002624:	2307      	movs	r3, #7
 8002626:	61bb      	str	r3, [r7, #24]
	LL_GPIO_Init(GPIOA, &GPIO_InitStruct);
 8002628:	1d3b      	adds	r3, r7, #4
 800262a:	4619      	mov	r1, r3
 800262c:	f04f 4090 	mov.w	r0, #1207959552	; 0x48000000
 8002630:	f7fe fbb5 	bl	8000d9e <LL_GPIO_Init>
	 * For more information about DMA registers, refer to reference manual.
	 */

	/* USART2_RX Init */

	LL_DMA_SetDataTransferDirection(DMA1, LL_DMA_CHANNEL_6,
 8002634:	2200      	movs	r2, #0
 8002636:	2106      	movs	r1, #6
 8002638:	4854      	ldr	r0, [pc, #336]	; (800278c <MX_USART2_UART_Init+0x1b8>)
 800263a:	f7ff fcc9 	bl	8001fd0 <LL_DMA_SetDataTransferDirection>
	LL_DMA_DIRECTION_PERIPH_TO_MEMORY);
	LL_DMA_SetChannelPriorityLevel(DMA1, LL_DMA_CHANNEL_6,
 800263e:	f44f 5280 	mov.w	r2, #4096	; 0x1000
 8002642:	2106      	movs	r1, #6
 8002644:	4851      	ldr	r0, [pc, #324]	; (800278c <MX_USART2_UART_Init+0x1b8>)
 8002646:	f7ff fdb5 	bl	80021b4 <LL_DMA_SetChannelPriorityLevel>
	LL_DMA_PRIORITY_MEDIUM);
	LL_DMA_SetMode(DMA1, LL_DMA_CHANNEL_6, LL_DMA_MODE_NORMAL);
 800264a:	2200      	movs	r2, #0
 800264c:	2106      	movs	r1, #6
 800264e:	484f      	ldr	r0, [pc, #316]	; (800278c <MX_USART2_UART_Init+0x1b8>)
 8002650:	f7ff fcfc 	bl	800204c <LL_DMA_SetMode>
	LL_DMA_SetPeriphIncMode(DMA1, LL_DMA_CHANNEL_6, LL_DMA_PERIPH_NOINCREMENT);
 8002654:	2200      	movs	r2, #0
 8002656:	2106      	movs	r1, #6
 8002658:	484c      	ldr	r0, [pc, #304]	; (800278c <MX_USART2_UART_Init+0x1b8>)
 800265a:	f7ff fd1b 	bl	8002094 <LL_DMA_SetPeriphIncMode>
	LL_DMA_SetMemoryIncMode(DMA1, LL_DMA_CHANNEL_6, LL_DMA_MEMORY_INCREMENT);
 800265e:	2280      	movs	r2, #128	; 0x80
 8002660:	2106      	movs	r1, #6
 8002662:	484a      	ldr	r0, [pc, #296]	; (800278c <MX_USART2_UART_Init+0x1b8>)
 8002664:	f7ff fd3a 	bl	80020dc <LL_DMA_SetMemoryIncMode>
	LL_DMA_SetPeriphSize(DMA1, LL_DMA_CHANNEL_6, LL_DMA_PDATAALIGN_BYTE);
 8002668:	2200      	movs	r2, #0
 800266a:	2106      	movs	r1, #6
 800266c:	4847      	ldr	r0, [pc, #284]	; (800278c <MX_USART2_UART_Init+0x1b8>)
 800266e:	f7ff fd59 	bl	8002124 <LL_DMA_SetPeriphSize>
	LL_DMA_SetMemorySize(DMA1, LL_DMA_CHANNEL_6, LL_DMA_MDATAALIGN_BYTE);
 8002672:	2200      	movs	r2, #0
 8002674:	2106      	movs	r1, #6
 8002676:	4845      	ldr	r0, [pc, #276]	; (800278c <MX_USART2_UART_Init+0x1b8>)
 8002678:	f7ff fd78 	bl	800216c <LL_DMA_SetMemorySize>

	LL_DMA_ConfigAddresses( DMA1, LL_DMA_CHANNEL_6,
 800267c:	2101      	movs	r1, #1
 800267e:	4844      	ldr	r0, [pc, #272]	; (8002790 <MX_USART2_UART_Init+0x1bc>)
 8002680:	f7ff ff80 	bl	8002584 <LL_USART_DMA_GetRegAddr>
 8002684:	4604      	mov	r4, r0
 8002686:	4d43      	ldr	r5, [pc, #268]	; (8002794 <MX_USART2_UART_Init+0x1c0>)
 8002688:	2106      	movs	r1, #6
 800268a:	4840      	ldr	r0, [pc, #256]	; (800278c <MX_USART2_UART_Init+0x1b8>)
 800268c:	f7ff fcc6 	bl	800201c <LL_DMA_GetDataTransferDirection>
 8002690:	4603      	mov	r3, r0
 8002692:	9300      	str	r3, [sp, #0]
 8002694:	462b      	mov	r3, r5
 8002696:	4622      	mov	r2, r4
 8002698:	2106      	movs	r1, #6
 800269a:	483c      	ldr	r0, [pc, #240]	; (800278c <MX_USART2_UART_Init+0x1b8>)
 800269c:	f7ff fde8 	bl	8002270 <LL_DMA_ConfigAddresses>
			LL_USART_DMA_GetRegAddr(USART2, LL_USART_DMA_REG_DATA_RECEIVE),
			(uint32_t) bufferUSART2dma,
			LL_DMA_GetDataTransferDirection(DMA1, LL_DMA_CHANNEL_6));

	LL_DMA_SetDataLength(DMA1, LL_DMA_CHANNEL_6, DMA_USART2_BUFFER_SIZE);
 80026a0:	f44f 7280 	mov.w	r2, #256	; 0x100
 80026a4:	2106      	movs	r1, #6
 80026a6:	4839      	ldr	r0, [pc, #228]	; (800278c <MX_USART2_UART_Init+0x1b8>)
 80026a8:	f7ff fda8 	bl	80021fc <LL_DMA_SetDataLength>
	LL_DMA_EnableChannel(DMA1, LL_DMA_CHANNEL_6);
 80026ac:	2106      	movs	r1, #6
 80026ae:	4837      	ldr	r0, [pc, #220]	; (800278c <MX_USART2_UART_Init+0x1b8>)
 80026b0:	f7ff fc4e 	bl	8001f50 <LL_DMA_EnableChannel>
	LL_USART_EnableDMAReq_RX(USART2);
 80026b4:	4836      	ldr	r0, [pc, #216]	; (8002790 <MX_USART2_UART_Init+0x1bc>)
 80026b6:	f7ff ff45 	bl	8002544 <LL_USART_EnableDMAReq_RX>
	LL_DMA_EnableIT_TC(DMA1, LL_DMA_CHANNEL_6);
 80026ba:	2106      	movs	r1, #6
 80026bc:	4833      	ldr	r0, [pc, #204]	; (800278c <MX_USART2_UART_Init+0x1b8>)
 80026be:	f7ff fe6b 	bl	8002398 <LL_DMA_EnableIT_TC>
	LL_DMA_EnableIT_HT(DMA1, LL_DMA_CHANNEL_6);
 80026c2:	2106      	movs	r1, #6
 80026c4:	4831      	ldr	r0, [pc, #196]	; (800278c <MX_USART2_UART_Init+0x1b8>)
 80026c6:	f7ff fe87 	bl	80023d8 <LL_DMA_EnableIT_HT>

	/* USART2_TX Init */

	LL_DMA_SetDataTransferDirection(DMA1, LL_DMA_CHANNEL_7,
 80026ca:	2210      	movs	r2, #16
 80026cc:	2107      	movs	r1, #7
 80026ce:	482f      	ldr	r0, [pc, #188]	; (800278c <MX_USART2_UART_Init+0x1b8>)
 80026d0:	f7ff fc7e 	bl	8001fd0 <LL_DMA_SetDataTransferDirection>
	LL_DMA_DIRECTION_MEMORY_TO_PERIPH);
	LL_DMA_SetChannelPriorityLevel(DMA1, LL_DMA_CHANNEL_7,
 80026d4:	f44f 5280 	mov.w	r2, #4096	; 0x1000
 80026d8:	2107      	movs	r1, #7
 80026da:	482c      	ldr	r0, [pc, #176]	; (800278c <MX_USART2_UART_Init+0x1b8>)
 80026dc:	f7ff fd6a 	bl	80021b4 <LL_DMA_SetChannelPriorityLevel>
	LL_DMA_PRIORITY_MEDIUM);
	LL_DMA_SetMode(DMA1, LL_DMA_CHANNEL_7, LL_DMA_MODE_NORMAL);
 80026e0:	2200      	movs	r2, #0
 80026e2:	2107      	movs	r1, #7
 80026e4:	4829      	ldr	r0, [pc, #164]	; (800278c <MX_USART2_UART_Init+0x1b8>)
 80026e6:	f7ff fcb1 	bl	800204c <LL_DMA_SetMode>
	LL_DMA_SetPeriphIncMode(DMA1, LL_DMA_CHANNEL_7, LL_DMA_PERIPH_NOINCREMENT);
 80026ea:	2200      	movs	r2, #0
 80026ec:	2107      	movs	r1, #7
 80026ee:	4827      	ldr	r0, [pc, #156]	; (800278c <MX_USART2_UART_Init+0x1b8>)
 80026f0:	f7ff fcd0 	bl	8002094 <LL_DMA_SetPeriphIncMode>
	LL_DMA_SetMemoryIncMode(DMA1, LL_DMA_CHANNEL_7, LL_DMA_MEMORY_INCREMENT);
 80026f4:	2280      	movs	r2, #128	; 0x80
 80026f6:	2107      	movs	r1, #7
 80026f8:	4824      	ldr	r0, [pc, #144]	; (800278c <MX_USART2_UART_Init+0x1b8>)
 80026fa:	f7ff fcef 	bl	80020dc <LL_DMA_SetMemoryIncMode>
	LL_DMA_SetPeriphSize(DMA1, LL_DMA_CHANNEL_7, LL_DMA_PDATAALIGN_BYTE);
 80026fe:	2200      	movs	r2, #0
 8002700:	2107      	movs	r1, #7
 8002702:	4822      	ldr	r0, [pc, #136]	; (800278c <MX_USART2_UART_Init+0x1b8>)
 8002704:	f7ff fd0e 	bl	8002124 <LL_DMA_SetPeriphSize>
	LL_DMA_SetMemorySize(DMA1, LL_DMA_CHANNEL_7, LL_DMA_MDATAALIGN_BYTE);
 8002708:	2200      	movs	r2, #0
 800270a:	2107      	movs	r1, #7
 800270c:	481f      	ldr	r0, [pc, #124]	; (800278c <MX_USART2_UART_Init+0x1b8>)
 800270e:	f7ff fd2d 	bl	800216c <LL_DMA_SetMemorySize>

	LL_DMA_SetPeriphAddress(DMA1, LL_DMA_CHANNEL_7,
 8002712:	2100      	movs	r1, #0
 8002714:	481e      	ldr	r0, [pc, #120]	; (8002790 <MX_USART2_UART_Init+0x1bc>)
 8002716:	f7ff ff35 	bl	8002584 <LL_USART_DMA_GetRegAddr>
 800271a:	4603      	mov	r3, r0
 800271c:	461a      	mov	r2, r3
 800271e:	2107      	movs	r1, #7
 8002720:	481a      	ldr	r0, [pc, #104]	; (800278c <MX_USART2_UART_Init+0x1b8>)
 8002722:	f7ff fdf9 	bl	8002318 <LL_DMA_SetPeriphAddress>
			LL_USART_DMA_GetRegAddr(USART2, LL_USART_DMA_REG_DATA_TRANSMIT));
	LL_USART_EnableDMAReq_TX(USART2);
 8002726:	481a      	ldr	r0, [pc, #104]	; (8002790 <MX_USART2_UART_Init+0x1bc>)
 8002728:	f7ff ff1c 	bl	8002564 <LL_USART_EnableDMAReq_TX>

	LL_DMA_EnableIT_TE(DMA1, LL_DMA_CHANNEL_7);
 800272c:	2107      	movs	r1, #7
 800272e:	4817      	ldr	r0, [pc, #92]	; (800278c <MX_USART2_UART_Init+0x1b8>)
 8002730:	f7ff fe72 	bl	8002418 <LL_DMA_EnableIT_TE>

	/* USART2 interrupt Init */
	NVIC_SetPriority(USART2_IRQn, 0);
 8002734:	2100      	movs	r1, #0
 8002736:	2026      	movs	r0, #38	; 0x26
 8002738:	f7ff fbe0 	bl	8001efc <NVIC_SetPriority>
	NVIC_EnableIRQ(USART2_IRQn);
 800273c:	2026      	movs	r0, #38	; 0x26
 800273e:	f7ff fbc3 	bl	8001ec8 <NVIC_EnableIRQ>

	USART_InitStruct.BaudRate = 115200;
 8002742:	f44f 33e1 	mov.w	r3, #115200	; 0x1c200
 8002746:	61fb      	str	r3, [r7, #28]
	USART_InitStruct.DataWidth = LL_USART_DATAWIDTH_8B;
 8002748:	2300      	movs	r3, #0
 800274a:	623b      	str	r3, [r7, #32]
	USART_InitStruct.StopBits = LL_USART_STOPBITS_1;
 800274c:	2300      	movs	r3, #0
 800274e:	627b      	str	r3, [r7, #36]	; 0x24
	USART_InitStruct.Parity = LL_USART_PARITY_NONE;
 8002750:	2300      	movs	r3, #0
 8002752:	62bb      	str	r3, [r7, #40]	; 0x28
	USART_InitStruct.TransferDirection = LL_USART_DIRECTION_TX_RX;
 8002754:	230c      	movs	r3, #12
 8002756:	62fb      	str	r3, [r7, #44]	; 0x2c
	USART_InitStruct.HardwareFlowControl = LL_USART_HWCONTROL_NONE;
 8002758:	2300      	movs	r3, #0
 800275a:	633b      	str	r3, [r7, #48]	; 0x30
	USART_InitStruct.OverSampling = LL_USART_OVERSAMPLING_16;
 800275c:	2300      	movs	r3, #0
 800275e:	637b      	str	r3, [r7, #52]	; 0x34
	LL_USART_Init(USART2, &USART_InitStruct);
 8002760:	f107 031c 	add.w	r3, r7, #28
 8002764:	4619      	mov	r1, r3
 8002766:	480a      	ldr	r0, [pc, #40]	; (8002790 <MX_USART2_UART_Init+0x1bc>)
 8002768:	f7fe fda8 	bl	80012bc <LL_USART_Init>
	LL_USART_ConfigAsyncMode(USART2);
 800276c:	4808      	ldr	r0, [pc, #32]	; (8002790 <MX_USART2_UART_Init+0x1bc>)
 800276e:	f7ff feb3 	bl	80024d8 <LL_USART_ConfigAsyncMode>
	LL_USART_DisableIT_CTS(USART2);
 8002772:	4807      	ldr	r0, [pc, #28]	; (8002790 <MX_USART2_UART_Init+0x1bc>)
 8002774:	f7ff fed6 	bl	8002524 <LL_USART_DisableIT_CTS>

	LL_USART_EnableIT_IDLE(USART2);
 8002778:	4805      	ldr	r0, [pc, #20]	; (8002790 <MX_USART2_UART_Init+0x1bc>)
 800277a:	f7ff fec3 	bl	8002504 <LL_USART_EnableIT_IDLE>
	LL_USART_Enable(USART2);
 800277e:	4804      	ldr	r0, [pc, #16]	; (8002790 <MX_USART2_UART_Init+0x1bc>)
 8002780:	f7ff fe9a 	bl	80024b8 <LL_USART_Enable>

	//type your code here:
}
 8002784:	bf00      	nop
 8002786:	3738      	adds	r7, #56	; 0x38
 8002788:	46bd      	mov	sp, r7
 800278a:	bdb0      	pop	{r4, r5, r7, pc}
 800278c:	40020000 	.word	0x40020000
 8002790:	40004400 	.word	0x40004400
 8002794:	20000214 	.word	0x20000214

08002798 <USART2_PutBuffer>:

// Send data stored in buffer with DMA
void USART2_PutBuffer(uint8_t *buffer, uint8_t length) {
 8002798:	b580      	push	{r7, lr}
 800279a:	b082      	sub	sp, #8
 800279c:	af00      	add	r7, sp, #0
 800279e:	6078      	str	r0, [r7, #4]
 80027a0:	460b      	mov	r3, r1
 80027a2:	70fb      	strb	r3, [r7, #3]
	LL_DMA_SetMemoryAddress(DMA1, LL_DMA_CHANNEL_7, (uint32_t) buffer);
 80027a4:	687b      	ldr	r3, [r7, #4]
 80027a6:	461a      	mov	r2, r3
 80027a8:	2107      	movs	r1, #7
 80027aa:	480a      	ldr	r0, [pc, #40]	; (80027d4 <USART2_PutBuffer+0x3c>)
 80027ac:	f7ff fd9c 	bl	80022e8 <LL_DMA_SetMemoryAddress>

	LL_DMA_SetDataLength(DMA1, LL_DMA_CHANNEL_7, length);
 80027b0:	78fb      	ldrb	r3, [r7, #3]
 80027b2:	461a      	mov	r2, r3
 80027b4:	2107      	movs	r1, #7
 80027b6:	4807      	ldr	r0, [pc, #28]	; (80027d4 <USART2_PutBuffer+0x3c>)
 80027b8:	f7ff fd20 	bl	80021fc <LL_DMA_SetDataLength>

	LL_DMA_EnableIT_TC(DMA1, LL_DMA_CHANNEL_7);
 80027bc:	2107      	movs	r1, #7
 80027be:	4805      	ldr	r0, [pc, #20]	; (80027d4 <USART2_PutBuffer+0x3c>)
 80027c0:	f7ff fdea 	bl	8002398 <LL_DMA_EnableIT_TC>

	LL_DMA_EnableChannel(DMA1, LL_DMA_CHANNEL_7);
 80027c4:	2107      	movs	r1, #7
 80027c6:	4803      	ldr	r0, [pc, #12]	; (80027d4 <USART2_PutBuffer+0x3c>)
 80027c8:	f7ff fbc2 	bl	8001f50 <LL_DMA_EnableChannel>
}
 80027cc:	bf00      	nop
 80027ce:	3708      	adds	r7, #8
 80027d0:	46bd      	mov	sp, r7
 80027d2:	bd80      	pop	{r7, pc}
 80027d4:	40020000 	.word	0x40020000

080027d8 <USART2_CheckDmaReception>:
 *	Function processing data received via USART2 with DMA and stored in bufferUSART2dma.
 *	Forwards data to callback function.
 *	Keeps track of pointer pointing to Rx memory buffer and resets the pointer if overflow is possible in next Rx.
 *	Refer to reference manual - "normal memory mode" and "increment memory mode".
 */
void USART2_CheckDmaReception(void) {
 80027d8:	b580      	push	{r7, lr}
 80027da:	b082      	sub	sp, #8
 80027dc:	af00      	add	r7, sp, #0
	//type your implementation here
	if (USART2_ProcessData == 0)
 80027de:	4b2d      	ldr	r3, [pc, #180]	; (8002894 <USART2_CheckDmaReception+0xbc>)
 80027e0:	681b      	ldr	r3, [r3, #0]
 80027e2:	2b00      	cmp	r3, #0
 80027e4:	d052      	beq.n	800288c <USART2_CheckDmaReception+0xb4>
		return;
	static uint16_t old_pos = 0;

	uint16_t pos = DMA_USART2_BUFFER_SIZE
			- LL_DMA_GetDataLength(DMA1, LL_DMA_CHANNEL_6);
 80027e6:	2106      	movs	r1, #6
 80027e8:	482b      	ldr	r0, [pc, #172]	; (8002898 <USART2_CheckDmaReception+0xc0>)
 80027ea:	f7ff fd2b 	bl	8002244 <LL_DMA_GetDataLength>
 80027ee:	4603      	mov	r3, r0
 80027f0:	b29b      	uxth	r3, r3
	uint16_t pos = DMA_USART2_BUFFER_SIZE
 80027f2:	f5c3 7380 	rsb	r3, r3, #256	; 0x100
 80027f6:	80fb      	strh	r3, [r7, #6]
	if (pos != old_pos) {
 80027f8:	4b28      	ldr	r3, [pc, #160]	; (800289c <USART2_CheckDmaReception+0xc4>)
 80027fa:	881b      	ldrh	r3, [r3, #0]
 80027fc:	88fa      	ldrh	r2, [r7, #6]
 80027fe:	429a      	cmp	r2, r3
 8002800:	d03c      	beq.n	800287c <USART2_CheckDmaReception+0xa4>
		if (pos > old_pos) {
 8002802:	4b26      	ldr	r3, [pc, #152]	; (800289c <USART2_CheckDmaReception+0xc4>)
 8002804:	881b      	ldrh	r3, [r3, #0]
 8002806:	88fa      	ldrh	r2, [r7, #6]
 8002808:	429a      	cmp	r2, r3
 800280a:	d937      	bls.n	800287c <USART2_CheckDmaReception+0xa4>
			for (uint8_t i = old_pos; i < pos; i++) {
 800280c:	4b23      	ldr	r3, [pc, #140]	; (800289c <USART2_CheckDmaReception+0xc4>)
 800280e:	881b      	ldrh	r3, [r3, #0]
 8002810:	717b      	strb	r3, [r7, #5]
 8002812:	e00b      	b.n	800282c <USART2_CheckDmaReception+0x54>
				uint8_t sign = bufferUSART2dma[i];
 8002814:	797b      	ldrb	r3, [r7, #5]
 8002816:	4a22      	ldr	r2, [pc, #136]	; (80028a0 <USART2_CheckDmaReception+0xc8>)
 8002818:	5cd3      	ldrb	r3, [r2, r3]
 800281a:	713b      	strb	r3, [r7, #4]
				USART2_ProcessData(sign);
 800281c:	4b1d      	ldr	r3, [pc, #116]	; (8002894 <USART2_CheckDmaReception+0xbc>)
 800281e:	681b      	ldr	r3, [r3, #0]
 8002820:	793a      	ldrb	r2, [r7, #4]
 8002822:	4610      	mov	r0, r2
 8002824:	4798      	blx	r3
			for (uint8_t i = old_pos; i < pos; i++) {
 8002826:	797b      	ldrb	r3, [r7, #5]
 8002828:	3301      	adds	r3, #1
 800282a:	717b      	strb	r3, [r7, #5]
 800282c:	797b      	ldrb	r3, [r7, #5]
 800282e:	b29b      	uxth	r3, r3
 8002830:	88fa      	ldrh	r2, [r7, #6]
 8002832:	429a      	cmp	r2, r3
 8002834:	d8ee      	bhi.n	8002814 <USART2_CheckDmaReception+0x3c>
			}
			if (LL_DMA_IsActiveFlag_HT6(DMA1) == SET || LL_DMA_IsActiveFlag_TC6(DMA1) == SET) {
 8002836:	4818      	ldr	r0, [pc, #96]	; (8002898 <USART2_CheckDmaReception+0xc0>)
 8002838:	f7ff fd9a 	bl	8002370 <LL_DMA_IsActiveFlag_HT6>
 800283c:	4603      	mov	r3, r0
 800283e:	2b01      	cmp	r3, #1
 8002840:	d005      	beq.n	800284e <USART2_CheckDmaReception+0x76>
 8002842:	4815      	ldr	r0, [pc, #84]	; (8002898 <USART2_CheckDmaReception+0xc0>)
 8002844:	f7ff fd80 	bl	8002348 <LL_DMA_IsActiveFlag_TC6>
 8002848:	4603      	mov	r3, r0
 800284a:	2b01      	cmp	r3, #1
 800284c:	d116      	bne.n	800287c <USART2_CheckDmaReception+0xa4>
				LL_DMA_DisableChannel(DMA1, LL_DMA_CHANNEL_6);
 800284e:	2106      	movs	r1, #6
 8002850:	4811      	ldr	r0, [pc, #68]	; (8002898 <USART2_CheckDmaReception+0xc0>)
 8002852:	f7ff fb9d 	bl	8001f90 <LL_DMA_DisableChannel>
				LL_DMA_SetDataLength(DMA1, LL_DMA_CHANNEL_6,
 8002856:	f44f 7280 	mov.w	r2, #256	; 0x100
 800285a:	2106      	movs	r1, #6
 800285c:	480e      	ldr	r0, [pc, #56]	; (8002898 <USART2_CheckDmaReception+0xc0>)
 800285e:	f7ff fccd 	bl	80021fc <LL_DMA_SetDataLength>
						DMA_USART2_BUFFER_SIZE);
				LL_DMA_EnableChannel(DMA1, LL_DMA_CHANNEL_6);
 8002862:	2106      	movs	r1, #6
 8002864:	480c      	ldr	r0, [pc, #48]	; (8002898 <USART2_CheckDmaReception+0xc0>)
 8002866:	f7ff fb73 	bl	8001f50 <LL_DMA_EnableChannel>
				pos = DMA_USART2_BUFFER_SIZE
						- LL_DMA_GetDataLength(DMA1, LL_DMA_CHANNEL_6);
 800286a:	2106      	movs	r1, #6
 800286c:	480a      	ldr	r0, [pc, #40]	; (8002898 <USART2_CheckDmaReception+0xc0>)
 800286e:	f7ff fce9 	bl	8002244 <LL_DMA_GetDataLength>
 8002872:	4603      	mov	r3, r0
 8002874:	b29b      	uxth	r3, r3
				pos = DMA_USART2_BUFFER_SIZE
 8002876:	f5c3 7380 	rsb	r3, r3, #256	; 0x100
 800287a:	80fb      	strh	r3, [r7, #6]
			}

		}
	}
	old_pos = pos;
 800287c:	4a07      	ldr	r2, [pc, #28]	; (800289c <USART2_CheckDmaReception+0xc4>)
 800287e:	88fb      	ldrh	r3, [r7, #6]
 8002880:	8013      	strh	r3, [r2, #0]

	BufferCapacity.reserved = old_pos;
 8002882:	4b06      	ldr	r3, [pc, #24]	; (800289c <USART2_CheckDmaReception+0xc4>)
 8002884:	881a      	ldrh	r2, [r3, #0]
 8002886:	4b07      	ldr	r3, [pc, #28]	; (80028a4 <USART2_CheckDmaReception+0xcc>)
 8002888:	805a      	strh	r2, [r3, #2]
 800288a:	e000      	b.n	800288e <USART2_CheckDmaReception+0xb6>
		return;
 800288c:	bf00      	nop
}
 800288e:	3708      	adds	r7, #8
 8002890:	46bd      	mov	sp, r7
 8002892:	bd80      	pop	{r7, pc}
 8002894:	200001fc 	.word	0x200001fc
 8002898:	40020000 	.word	0x40020000
 800289c:	20000200 	.word	0x20000200
 80028a0:	20000214 	.word	0x20000214
 80028a4:	2000020c 	.word	0x2000020c

080028a8 <Reset_Handler>:

    .section	.text.Reset_Handler
	.weak	Reset_Handler
	.type	Reset_Handler, %function
Reset_Handler:
  ldr   sp, =_estack    /* Atollic update: set stack pointer */
 80028a8:	f8df d034 	ldr.w	sp, [pc, #52]	; 80028e0 <LoopForever+0x2>

/* Copy the data segment initializers from flash to SRAM */
  movs	r1, #0
 80028ac:	2100      	movs	r1, #0
  b	LoopCopyDataInit
 80028ae:	e003      	b.n	80028b8 <LoopCopyDataInit>

080028b0 <CopyDataInit>:

CopyDataInit:
	ldr	r3, =_sidata
 80028b0:	4b0c      	ldr	r3, [pc, #48]	; (80028e4 <LoopForever+0x6>)
	ldr	r3, [r3, r1]
 80028b2:	585b      	ldr	r3, [r3, r1]
	str	r3, [r0, r1]
 80028b4:	5043      	str	r3, [r0, r1]
	adds	r1, r1, #4
 80028b6:	3104      	adds	r1, #4

080028b8 <LoopCopyDataInit>:

LoopCopyDataInit:
	ldr	r0, =_sdata
 80028b8:	480b      	ldr	r0, [pc, #44]	; (80028e8 <LoopForever+0xa>)
	ldr	r3, =_edata
 80028ba:	4b0c      	ldr	r3, [pc, #48]	; (80028ec <LoopForever+0xe>)
	adds	r2, r0, r1
 80028bc:	1842      	adds	r2, r0, r1
	cmp	r2, r3
 80028be:	429a      	cmp	r2, r3
	bcc	CopyDataInit
 80028c0:	d3f6      	bcc.n	80028b0 <CopyDataInit>
	ldr	r2, =_sbss
 80028c2:	4a0b      	ldr	r2, [pc, #44]	; (80028f0 <LoopForever+0x12>)
	b	LoopFillZerobss
 80028c4:	e002      	b.n	80028cc <LoopFillZerobss>

080028c6 <FillZerobss>:
/* Zero fill the bss segment. */
FillZerobss:
	movs	r3, #0
 80028c6:	2300      	movs	r3, #0
	str	r3, [r2], #4
 80028c8:	f842 3b04 	str.w	r3, [r2], #4

080028cc <LoopFillZerobss>:

LoopFillZerobss:
	ldr	r3, = _ebss
 80028cc:	4b09      	ldr	r3, [pc, #36]	; (80028f4 <LoopForever+0x16>)
	cmp	r2, r3
 80028ce:	429a      	cmp	r2, r3
	bcc	FillZerobss
 80028d0:	d3f9      	bcc.n	80028c6 <FillZerobss>

/* Call the clock system intitialization function.*/
    bl  SystemInit
 80028d2:	f7ff faaf 	bl	8001e34 <SystemInit>
/* Call static constructors */
    bl __libc_init_array
 80028d6:	f000 f817 	bl	8002908 <__libc_init_array>
/* Call the application's entry point.*/
	bl	main
 80028da:	f7fe ffa5 	bl	8001828 <main>

080028de <LoopForever>:

LoopForever:
    b LoopForever
 80028de:	e7fe      	b.n	80028de <LoopForever>
  ldr   sp, =_estack    /* Atollic update: set stack pointer */
 80028e0:	20003000 	.word	0x20003000
	ldr	r3, =_sidata
 80028e4:	08005b04 	.word	0x08005b04
	ldr	r0, =_sdata
 80028e8:	20000000 	.word	0x20000000
	ldr	r3, =_edata
 80028ec:	200001d4 	.word	0x200001d4
	ldr	r2, =_sbss
 80028f0:	200001d4 	.word	0x200001d4
	ldr	r3, = _ebss
 80028f4:	20000324 	.word	0x20000324

080028f8 <ADC1_2_IRQHandler>:
 * @retval : None
*/
    .section	.text.Default_Handler,"ax",%progbits
Default_Handler:
Infinite_Loop:
	b	Infinite_Loop
 80028f8:	e7fe      	b.n	80028f8 <ADC1_2_IRQHandler>
	...

080028fc <__errno>:
 80028fc:	4b01      	ldr	r3, [pc, #4]	; (8002904 <__errno+0x8>)
 80028fe:	6818      	ldr	r0, [r3, #0]
 8002900:	4770      	bx	lr
 8002902:	bf00      	nop
 8002904:	20000004 	.word	0x20000004

08002908 <__libc_init_array>:
 8002908:	b570      	push	{r4, r5, r6, lr}
 800290a:	4d0d      	ldr	r5, [pc, #52]	; (8002940 <__libc_init_array+0x38>)
 800290c:	4c0d      	ldr	r4, [pc, #52]	; (8002944 <__libc_init_array+0x3c>)
 800290e:	1b64      	subs	r4, r4, r5
 8002910:	10a4      	asrs	r4, r4, #2
 8002912:	2600      	movs	r6, #0
 8002914:	42a6      	cmp	r6, r4
 8002916:	d109      	bne.n	800292c <__libc_init_array+0x24>
 8002918:	4d0b      	ldr	r5, [pc, #44]	; (8002948 <__libc_init_array+0x40>)
 800291a:	4c0c      	ldr	r4, [pc, #48]	; (800294c <__libc_init_array+0x44>)
 800291c:	f002 feb4 	bl	8005688 <_init>
 8002920:	1b64      	subs	r4, r4, r5
 8002922:	10a4      	asrs	r4, r4, #2
 8002924:	2600      	movs	r6, #0
 8002926:	42a6      	cmp	r6, r4
 8002928:	d105      	bne.n	8002936 <__libc_init_array+0x2e>
 800292a:	bd70      	pop	{r4, r5, r6, pc}
 800292c:	f855 3b04 	ldr.w	r3, [r5], #4
 8002930:	4798      	blx	r3
 8002932:	3601      	adds	r6, #1
 8002934:	e7ee      	b.n	8002914 <__libc_init_array+0xc>
 8002936:	f855 3b04 	ldr.w	r3, [r5], #4
 800293a:	4798      	blx	r3
 800293c:	3601      	adds	r6, #1
 800293e:	e7f2      	b.n	8002926 <__libc_init_array+0x1e>
 8002940:	08005afc 	.word	0x08005afc
 8002944:	08005afc 	.word	0x08005afc
 8002948:	08005afc 	.word	0x08005afc
 800294c:	08005b00 	.word	0x08005b00

08002950 <memcpy>:
 8002950:	440a      	add	r2, r1
 8002952:	4291      	cmp	r1, r2
 8002954:	f100 33ff 	add.w	r3, r0, #4294967295
 8002958:	d100      	bne.n	800295c <memcpy+0xc>
 800295a:	4770      	bx	lr
 800295c:	b510      	push	{r4, lr}
 800295e:	f811 4b01 	ldrb.w	r4, [r1], #1
 8002962:	f803 4f01 	strb.w	r4, [r3, #1]!
 8002966:	4291      	cmp	r1, r2
 8002968:	d1f9      	bne.n	800295e <memcpy+0xe>
 800296a:	bd10      	pop	{r4, pc}

0800296c <memset>:
 800296c:	4402      	add	r2, r0
 800296e:	4603      	mov	r3, r0
 8002970:	4293      	cmp	r3, r2
 8002972:	d100      	bne.n	8002976 <memset+0xa>
 8002974:	4770      	bx	lr
 8002976:	f803 1b01 	strb.w	r1, [r3], #1
 800297a:	e7f9      	b.n	8002970 <memset+0x4>

0800297c <__cvt>:
 800297c:	e92d 47ff 	stmdb	sp!, {r0, r1, r2, r3, r4, r5, r6, r7, r8, r9, sl, lr}
 8002980:	ec55 4b10 	vmov	r4, r5, d0
 8002984:	2d00      	cmp	r5, #0
 8002986:	460e      	mov	r6, r1
 8002988:	4619      	mov	r1, r3
 800298a:	462b      	mov	r3, r5
 800298c:	bfbb      	ittet	lt
 800298e:	f105 4300 	addlt.w	r3, r5, #2147483648	; 0x80000000
 8002992:	461d      	movlt	r5, r3
 8002994:	2300      	movge	r3, #0
 8002996:	232d      	movlt	r3, #45	; 0x2d
 8002998:	700b      	strb	r3, [r1, #0]
 800299a:	9b0d      	ldr	r3, [sp, #52]	; 0x34
 800299c:	f8dd a030 	ldr.w	sl, [sp, #48]	; 0x30
 80029a0:	4691      	mov	r9, r2
 80029a2:	f023 0820 	bic.w	r8, r3, #32
 80029a6:	bfbc      	itt	lt
 80029a8:	4622      	movlt	r2, r4
 80029aa:	4614      	movlt	r4, r2
 80029ac:	f1b8 0f46 	cmp.w	r8, #70	; 0x46
 80029b0:	d005      	beq.n	80029be <__cvt+0x42>
 80029b2:	f1b8 0f45 	cmp.w	r8, #69	; 0x45
 80029b6:	d100      	bne.n	80029ba <__cvt+0x3e>
 80029b8:	3601      	adds	r6, #1
 80029ba:	2102      	movs	r1, #2
 80029bc:	e000      	b.n	80029c0 <__cvt+0x44>
 80029be:	2103      	movs	r1, #3
 80029c0:	ab03      	add	r3, sp, #12
 80029c2:	9301      	str	r3, [sp, #4]
 80029c4:	ab02      	add	r3, sp, #8
 80029c6:	9300      	str	r3, [sp, #0]
 80029c8:	ec45 4b10 	vmov	d0, r4, r5
 80029cc:	4653      	mov	r3, sl
 80029ce:	4632      	mov	r2, r6
 80029d0:	f000 fcea 	bl	80033a8 <_dtoa_r>
 80029d4:	f1b8 0f47 	cmp.w	r8, #71	; 0x47
 80029d8:	4607      	mov	r7, r0
 80029da:	d102      	bne.n	80029e2 <__cvt+0x66>
 80029dc:	f019 0f01 	tst.w	r9, #1
 80029e0:	d022      	beq.n	8002a28 <__cvt+0xac>
 80029e2:	f1b8 0f46 	cmp.w	r8, #70	; 0x46
 80029e6:	eb07 0906 	add.w	r9, r7, r6
 80029ea:	d110      	bne.n	8002a0e <__cvt+0x92>
 80029ec:	783b      	ldrb	r3, [r7, #0]
 80029ee:	2b30      	cmp	r3, #48	; 0x30
 80029f0:	d10a      	bne.n	8002a08 <__cvt+0x8c>
 80029f2:	2200      	movs	r2, #0
 80029f4:	2300      	movs	r3, #0
 80029f6:	4620      	mov	r0, r4
 80029f8:	4629      	mov	r1, r5
 80029fa:	f7fe f865 	bl	8000ac8 <__aeabi_dcmpeq>
 80029fe:	b918      	cbnz	r0, 8002a08 <__cvt+0x8c>
 8002a00:	f1c6 0601 	rsb	r6, r6, #1
 8002a04:	f8ca 6000 	str.w	r6, [sl]
 8002a08:	f8da 3000 	ldr.w	r3, [sl]
 8002a0c:	4499      	add	r9, r3
 8002a0e:	2200      	movs	r2, #0
 8002a10:	2300      	movs	r3, #0
 8002a12:	4620      	mov	r0, r4
 8002a14:	4629      	mov	r1, r5
 8002a16:	f7fe f857 	bl	8000ac8 <__aeabi_dcmpeq>
 8002a1a:	b108      	cbz	r0, 8002a20 <__cvt+0xa4>
 8002a1c:	f8cd 900c 	str.w	r9, [sp, #12]
 8002a20:	2230      	movs	r2, #48	; 0x30
 8002a22:	9b03      	ldr	r3, [sp, #12]
 8002a24:	454b      	cmp	r3, r9
 8002a26:	d307      	bcc.n	8002a38 <__cvt+0xbc>
 8002a28:	9b03      	ldr	r3, [sp, #12]
 8002a2a:	9a0e      	ldr	r2, [sp, #56]	; 0x38
 8002a2c:	1bdb      	subs	r3, r3, r7
 8002a2e:	4638      	mov	r0, r7
 8002a30:	6013      	str	r3, [r2, #0]
 8002a32:	b004      	add	sp, #16
 8002a34:	e8bd 87f0 	ldmia.w	sp!, {r4, r5, r6, r7, r8, r9, sl, pc}
 8002a38:	1c59      	adds	r1, r3, #1
 8002a3a:	9103      	str	r1, [sp, #12]
 8002a3c:	701a      	strb	r2, [r3, #0]
 8002a3e:	e7f0      	b.n	8002a22 <__cvt+0xa6>

08002a40 <__exponent>:
 8002a40:	b5f7      	push	{r0, r1, r2, r4, r5, r6, r7, lr}
 8002a42:	4603      	mov	r3, r0
 8002a44:	2900      	cmp	r1, #0
 8002a46:	bfb8      	it	lt
 8002a48:	4249      	neglt	r1, r1
 8002a4a:	f803 2b02 	strb.w	r2, [r3], #2
 8002a4e:	bfb4      	ite	lt
 8002a50:	222d      	movlt	r2, #45	; 0x2d
 8002a52:	222b      	movge	r2, #43	; 0x2b
 8002a54:	2909      	cmp	r1, #9
 8002a56:	7042      	strb	r2, [r0, #1]
 8002a58:	dd2a      	ble.n	8002ab0 <__exponent+0x70>
 8002a5a:	f10d 0407 	add.w	r4, sp, #7
 8002a5e:	46a4      	mov	ip, r4
 8002a60:	270a      	movs	r7, #10
 8002a62:	46a6      	mov	lr, r4
 8002a64:	460a      	mov	r2, r1
 8002a66:	fb91 f6f7 	sdiv	r6, r1, r7
 8002a6a:	fb07 1516 	mls	r5, r7, r6, r1
 8002a6e:	3530      	adds	r5, #48	; 0x30
 8002a70:	2a63      	cmp	r2, #99	; 0x63
 8002a72:	f104 34ff 	add.w	r4, r4, #4294967295
 8002a76:	f80e 5c01 	strb.w	r5, [lr, #-1]
 8002a7a:	4631      	mov	r1, r6
 8002a7c:	dcf1      	bgt.n	8002a62 <__exponent+0x22>
 8002a7e:	3130      	adds	r1, #48	; 0x30
 8002a80:	f1ae 0502 	sub.w	r5, lr, #2
 8002a84:	f804 1c01 	strb.w	r1, [r4, #-1]
 8002a88:	1c44      	adds	r4, r0, #1
 8002a8a:	4629      	mov	r1, r5
 8002a8c:	4561      	cmp	r1, ip
 8002a8e:	d30a      	bcc.n	8002aa6 <__exponent+0x66>
 8002a90:	f10d 0209 	add.w	r2, sp, #9
 8002a94:	eba2 020e 	sub.w	r2, r2, lr
 8002a98:	4565      	cmp	r5, ip
 8002a9a:	bf88      	it	hi
 8002a9c:	2200      	movhi	r2, #0
 8002a9e:	4413      	add	r3, r2
 8002aa0:	1a18      	subs	r0, r3, r0
 8002aa2:	b003      	add	sp, #12
 8002aa4:	bdf0      	pop	{r4, r5, r6, r7, pc}
 8002aa6:	f811 2b01 	ldrb.w	r2, [r1], #1
 8002aaa:	f804 2f01 	strb.w	r2, [r4, #1]!
 8002aae:	e7ed      	b.n	8002a8c <__exponent+0x4c>
 8002ab0:	2330      	movs	r3, #48	; 0x30
 8002ab2:	3130      	adds	r1, #48	; 0x30
 8002ab4:	7083      	strb	r3, [r0, #2]
 8002ab6:	70c1      	strb	r1, [r0, #3]
 8002ab8:	1d03      	adds	r3, r0, #4
 8002aba:	e7f1      	b.n	8002aa0 <__exponent+0x60>

08002abc <_printf_float>:
 8002abc:	e92d 4ff0 	stmdb	sp!, {r4, r5, r6, r7, r8, r9, sl, fp, lr}
 8002ac0:	ed2d 8b02 	vpush	{d8}
 8002ac4:	b08d      	sub	sp, #52	; 0x34
 8002ac6:	460c      	mov	r4, r1
 8002ac8:	f8dd 8060 	ldr.w	r8, [sp, #96]	; 0x60
 8002acc:	4616      	mov	r6, r2
 8002ace:	461f      	mov	r7, r3
 8002ad0:	4605      	mov	r5, r0
 8002ad2:	f001 fa55 	bl	8003f80 <_localeconv_r>
 8002ad6:	f8d0 a000 	ldr.w	sl, [r0]
 8002ada:	4650      	mov	r0, sl
 8002adc:	f7fd fb78 	bl	80001d0 <strlen>
 8002ae0:	2300      	movs	r3, #0
 8002ae2:	930a      	str	r3, [sp, #40]	; 0x28
 8002ae4:	6823      	ldr	r3, [r4, #0]
 8002ae6:	9305      	str	r3, [sp, #20]
 8002ae8:	f8d8 3000 	ldr.w	r3, [r8]
 8002aec:	f894 b018 	ldrb.w	fp, [r4, #24]
 8002af0:	3307      	adds	r3, #7
 8002af2:	f023 0307 	bic.w	r3, r3, #7
 8002af6:	f103 0208 	add.w	r2, r3, #8
 8002afa:	f8c8 2000 	str.w	r2, [r8]
 8002afe:	e9d3 2300 	ldrd	r2, r3, [r3]
 8002b02:	e9c4 2312 	strd	r2, r3, [r4, #72]	; 0x48
 8002b06:	e9d4 8912 	ldrd	r8, r9, [r4, #72]	; 0x48
 8002b0a:	f029 4300 	bic.w	r3, r9, #2147483648	; 0x80000000
 8002b0e:	9307      	str	r3, [sp, #28]
 8002b10:	f8cd 8018 	str.w	r8, [sp, #24]
 8002b14:	ee08 0a10 	vmov	s16, r0
 8002b18:	4b9f      	ldr	r3, [pc, #636]	; (8002d98 <_printf_float+0x2dc>)
 8002b1a:	e9dd 0106 	ldrd	r0, r1, [sp, #24]
 8002b1e:	f04f 32ff 	mov.w	r2, #4294967295
 8002b22:	f7fe f803 	bl	8000b2c <__aeabi_dcmpun>
 8002b26:	bb88      	cbnz	r0, 8002b8c <_printf_float+0xd0>
 8002b28:	e9dd 0106 	ldrd	r0, r1, [sp, #24]
 8002b2c:	4b9a      	ldr	r3, [pc, #616]	; (8002d98 <_printf_float+0x2dc>)
 8002b2e:	f04f 32ff 	mov.w	r2, #4294967295
 8002b32:	f7fd ffdd 	bl	8000af0 <__aeabi_dcmple>
 8002b36:	bb48      	cbnz	r0, 8002b8c <_printf_float+0xd0>
 8002b38:	2200      	movs	r2, #0
 8002b3a:	2300      	movs	r3, #0
 8002b3c:	4640      	mov	r0, r8
 8002b3e:	4649      	mov	r1, r9
 8002b40:	f7fd ffcc 	bl	8000adc <__aeabi_dcmplt>
 8002b44:	b110      	cbz	r0, 8002b4c <_printf_float+0x90>
 8002b46:	232d      	movs	r3, #45	; 0x2d
 8002b48:	f884 3043 	strb.w	r3, [r4, #67]	; 0x43
 8002b4c:	4b93      	ldr	r3, [pc, #588]	; (8002d9c <_printf_float+0x2e0>)
 8002b4e:	4894      	ldr	r0, [pc, #592]	; (8002da0 <_printf_float+0x2e4>)
 8002b50:	f1bb 0f47 	cmp.w	fp, #71	; 0x47
 8002b54:	bf94      	ite	ls
 8002b56:	4698      	movls	r8, r3
 8002b58:	4680      	movhi	r8, r0
 8002b5a:	2303      	movs	r3, #3
 8002b5c:	6123      	str	r3, [r4, #16]
 8002b5e:	9b05      	ldr	r3, [sp, #20]
 8002b60:	f023 0204 	bic.w	r2, r3, #4
 8002b64:	6022      	str	r2, [r4, #0]
 8002b66:	f04f 0900 	mov.w	r9, #0
 8002b6a:	9700      	str	r7, [sp, #0]
 8002b6c:	4633      	mov	r3, r6
 8002b6e:	aa0b      	add	r2, sp, #44	; 0x2c
 8002b70:	4621      	mov	r1, r4
 8002b72:	4628      	mov	r0, r5
 8002b74:	f000 f9d8 	bl	8002f28 <_printf_common>
 8002b78:	3001      	adds	r0, #1
 8002b7a:	f040 8090 	bne.w	8002c9e <_printf_float+0x1e2>
 8002b7e:	f04f 30ff 	mov.w	r0, #4294967295
 8002b82:	b00d      	add	sp, #52	; 0x34
 8002b84:	ecbd 8b02 	vpop	{d8}
 8002b88:	e8bd 8ff0 	ldmia.w	sp!, {r4, r5, r6, r7, r8, r9, sl, fp, pc}
 8002b8c:	4642      	mov	r2, r8
 8002b8e:	464b      	mov	r3, r9
 8002b90:	4640      	mov	r0, r8
 8002b92:	4649      	mov	r1, r9
 8002b94:	f7fd ffca 	bl	8000b2c <__aeabi_dcmpun>
 8002b98:	b140      	cbz	r0, 8002bac <_printf_float+0xf0>
 8002b9a:	464b      	mov	r3, r9
 8002b9c:	2b00      	cmp	r3, #0
 8002b9e:	bfbc      	itt	lt
 8002ba0:	232d      	movlt	r3, #45	; 0x2d
 8002ba2:	f884 3043 	strblt.w	r3, [r4, #67]	; 0x43
 8002ba6:	487f      	ldr	r0, [pc, #508]	; (8002da4 <_printf_float+0x2e8>)
 8002ba8:	4b7f      	ldr	r3, [pc, #508]	; (8002da8 <_printf_float+0x2ec>)
 8002baa:	e7d1      	b.n	8002b50 <_printf_float+0x94>
 8002bac:	6863      	ldr	r3, [r4, #4]
 8002bae:	f00b 02df 	and.w	r2, fp, #223	; 0xdf
 8002bb2:	9206      	str	r2, [sp, #24]
 8002bb4:	1c5a      	adds	r2, r3, #1
 8002bb6:	d13f      	bne.n	8002c38 <_printf_float+0x17c>
 8002bb8:	2306      	movs	r3, #6
 8002bba:	6063      	str	r3, [r4, #4]
 8002bbc:	9b05      	ldr	r3, [sp, #20]
 8002bbe:	6861      	ldr	r1, [r4, #4]
 8002bc0:	f443 6280 	orr.w	r2, r3, #1024	; 0x400
 8002bc4:	2300      	movs	r3, #0
 8002bc6:	9303      	str	r3, [sp, #12]
 8002bc8:	ab0a      	add	r3, sp, #40	; 0x28
 8002bca:	e9cd b301 	strd	fp, r3, [sp, #4]
 8002bce:	ab09      	add	r3, sp, #36	; 0x24
 8002bd0:	ec49 8b10 	vmov	d0, r8, r9
 8002bd4:	9300      	str	r3, [sp, #0]
 8002bd6:	6022      	str	r2, [r4, #0]
 8002bd8:	f10d 0323 	add.w	r3, sp, #35	; 0x23
 8002bdc:	4628      	mov	r0, r5
 8002bde:	f7ff fecd 	bl	800297c <__cvt>
 8002be2:	9b06      	ldr	r3, [sp, #24]
 8002be4:	9909      	ldr	r1, [sp, #36]	; 0x24
 8002be6:	2b47      	cmp	r3, #71	; 0x47
 8002be8:	4680      	mov	r8, r0
 8002bea:	d108      	bne.n	8002bfe <_printf_float+0x142>
 8002bec:	1cc8      	adds	r0, r1, #3
 8002bee:	db02      	blt.n	8002bf6 <_printf_float+0x13a>
 8002bf0:	6863      	ldr	r3, [r4, #4]
 8002bf2:	4299      	cmp	r1, r3
 8002bf4:	dd41      	ble.n	8002c7a <_printf_float+0x1be>
 8002bf6:	f1ab 0b02 	sub.w	fp, fp, #2
 8002bfa:	fa5f fb8b 	uxtb.w	fp, fp
 8002bfe:	f1bb 0f65 	cmp.w	fp, #101	; 0x65
 8002c02:	d820      	bhi.n	8002c46 <_printf_float+0x18a>
 8002c04:	3901      	subs	r1, #1
 8002c06:	465a      	mov	r2, fp
 8002c08:	f104 0050 	add.w	r0, r4, #80	; 0x50
 8002c0c:	9109      	str	r1, [sp, #36]	; 0x24
 8002c0e:	f7ff ff17 	bl	8002a40 <__exponent>
 8002c12:	9a0a      	ldr	r2, [sp, #40]	; 0x28
 8002c14:	1813      	adds	r3, r2, r0
 8002c16:	2a01      	cmp	r2, #1
 8002c18:	4681      	mov	r9, r0
 8002c1a:	6123      	str	r3, [r4, #16]
 8002c1c:	dc02      	bgt.n	8002c24 <_printf_float+0x168>
 8002c1e:	6822      	ldr	r2, [r4, #0]
 8002c20:	07d2      	lsls	r2, r2, #31
 8002c22:	d501      	bpl.n	8002c28 <_printf_float+0x16c>
 8002c24:	3301      	adds	r3, #1
 8002c26:	6123      	str	r3, [r4, #16]
 8002c28:	f89d 3023 	ldrb.w	r3, [sp, #35]	; 0x23
 8002c2c:	2b00      	cmp	r3, #0
 8002c2e:	d09c      	beq.n	8002b6a <_printf_float+0xae>
 8002c30:	232d      	movs	r3, #45	; 0x2d
 8002c32:	f884 3043 	strb.w	r3, [r4, #67]	; 0x43
 8002c36:	e798      	b.n	8002b6a <_printf_float+0xae>
 8002c38:	9a06      	ldr	r2, [sp, #24]
 8002c3a:	2a47      	cmp	r2, #71	; 0x47
 8002c3c:	d1be      	bne.n	8002bbc <_printf_float+0x100>
 8002c3e:	2b00      	cmp	r3, #0
 8002c40:	d1bc      	bne.n	8002bbc <_printf_float+0x100>
 8002c42:	2301      	movs	r3, #1
 8002c44:	e7b9      	b.n	8002bba <_printf_float+0xfe>
 8002c46:	f1bb 0f66 	cmp.w	fp, #102	; 0x66
 8002c4a:	d118      	bne.n	8002c7e <_printf_float+0x1c2>
 8002c4c:	2900      	cmp	r1, #0
 8002c4e:	6863      	ldr	r3, [r4, #4]
 8002c50:	dd0b      	ble.n	8002c6a <_printf_float+0x1ae>
 8002c52:	6121      	str	r1, [r4, #16]
 8002c54:	b913      	cbnz	r3, 8002c5c <_printf_float+0x1a0>
 8002c56:	6822      	ldr	r2, [r4, #0]
 8002c58:	07d0      	lsls	r0, r2, #31
 8002c5a:	d502      	bpl.n	8002c62 <_printf_float+0x1a6>
 8002c5c:	3301      	adds	r3, #1
 8002c5e:	440b      	add	r3, r1
 8002c60:	6123      	str	r3, [r4, #16]
 8002c62:	65a1      	str	r1, [r4, #88]	; 0x58
 8002c64:	f04f 0900 	mov.w	r9, #0
 8002c68:	e7de      	b.n	8002c28 <_printf_float+0x16c>
 8002c6a:	b913      	cbnz	r3, 8002c72 <_printf_float+0x1b6>
 8002c6c:	6822      	ldr	r2, [r4, #0]
 8002c6e:	07d2      	lsls	r2, r2, #31
 8002c70:	d501      	bpl.n	8002c76 <_printf_float+0x1ba>
 8002c72:	3302      	adds	r3, #2
 8002c74:	e7f4      	b.n	8002c60 <_printf_float+0x1a4>
 8002c76:	2301      	movs	r3, #1
 8002c78:	e7f2      	b.n	8002c60 <_printf_float+0x1a4>
 8002c7a:	f04f 0b67 	mov.w	fp, #103	; 0x67
 8002c7e:	9b0a      	ldr	r3, [sp, #40]	; 0x28
 8002c80:	4299      	cmp	r1, r3
 8002c82:	db05      	blt.n	8002c90 <_printf_float+0x1d4>
 8002c84:	6823      	ldr	r3, [r4, #0]
 8002c86:	6121      	str	r1, [r4, #16]
 8002c88:	07d8      	lsls	r0, r3, #31
 8002c8a:	d5ea      	bpl.n	8002c62 <_printf_float+0x1a6>
 8002c8c:	1c4b      	adds	r3, r1, #1
 8002c8e:	e7e7      	b.n	8002c60 <_printf_float+0x1a4>
 8002c90:	2900      	cmp	r1, #0
 8002c92:	bfd4      	ite	le
 8002c94:	f1c1 0202 	rsble	r2, r1, #2
 8002c98:	2201      	movgt	r2, #1
 8002c9a:	4413      	add	r3, r2
 8002c9c:	e7e0      	b.n	8002c60 <_printf_float+0x1a4>
 8002c9e:	6823      	ldr	r3, [r4, #0]
 8002ca0:	055a      	lsls	r2, r3, #21
 8002ca2:	d407      	bmi.n	8002cb4 <_printf_float+0x1f8>
 8002ca4:	6923      	ldr	r3, [r4, #16]
 8002ca6:	4642      	mov	r2, r8
 8002ca8:	4631      	mov	r1, r6
 8002caa:	4628      	mov	r0, r5
 8002cac:	47b8      	blx	r7
 8002cae:	3001      	adds	r0, #1
 8002cb0:	d12c      	bne.n	8002d0c <_printf_float+0x250>
 8002cb2:	e764      	b.n	8002b7e <_printf_float+0xc2>
 8002cb4:	f1bb 0f65 	cmp.w	fp, #101	; 0x65
 8002cb8:	f240 80e0 	bls.w	8002e7c <_printf_float+0x3c0>
 8002cbc:	e9d4 0112 	ldrd	r0, r1, [r4, #72]	; 0x48
 8002cc0:	2200      	movs	r2, #0
 8002cc2:	2300      	movs	r3, #0
 8002cc4:	f7fd ff00 	bl	8000ac8 <__aeabi_dcmpeq>
 8002cc8:	2800      	cmp	r0, #0
 8002cca:	d034      	beq.n	8002d36 <_printf_float+0x27a>
 8002ccc:	4a37      	ldr	r2, [pc, #220]	; (8002dac <_printf_float+0x2f0>)
 8002cce:	2301      	movs	r3, #1
 8002cd0:	4631      	mov	r1, r6
 8002cd2:	4628      	mov	r0, r5
 8002cd4:	47b8      	blx	r7
 8002cd6:	3001      	adds	r0, #1
 8002cd8:	f43f af51 	beq.w	8002b7e <_printf_float+0xc2>
 8002cdc:	e9dd 2309 	ldrd	r2, r3, [sp, #36]	; 0x24
 8002ce0:	429a      	cmp	r2, r3
 8002ce2:	db02      	blt.n	8002cea <_printf_float+0x22e>
 8002ce4:	6823      	ldr	r3, [r4, #0]
 8002ce6:	07d8      	lsls	r0, r3, #31
 8002ce8:	d510      	bpl.n	8002d0c <_printf_float+0x250>
 8002cea:	ee18 3a10 	vmov	r3, s16
 8002cee:	4652      	mov	r2, sl
 8002cf0:	4631      	mov	r1, r6
 8002cf2:	4628      	mov	r0, r5
 8002cf4:	47b8      	blx	r7
 8002cf6:	3001      	adds	r0, #1
 8002cf8:	f43f af41 	beq.w	8002b7e <_printf_float+0xc2>
 8002cfc:	f04f 0800 	mov.w	r8, #0
 8002d00:	f104 091a 	add.w	r9, r4, #26
 8002d04:	9b0a      	ldr	r3, [sp, #40]	; 0x28
 8002d06:	3b01      	subs	r3, #1
 8002d08:	4543      	cmp	r3, r8
 8002d0a:	dc09      	bgt.n	8002d20 <_printf_float+0x264>
 8002d0c:	6823      	ldr	r3, [r4, #0]
 8002d0e:	079b      	lsls	r3, r3, #30
 8002d10:	f100 8105 	bmi.w	8002f1e <_printf_float+0x462>
 8002d14:	68e0      	ldr	r0, [r4, #12]
 8002d16:	9b0b      	ldr	r3, [sp, #44]	; 0x2c
 8002d18:	4298      	cmp	r0, r3
 8002d1a:	bfb8      	it	lt
 8002d1c:	4618      	movlt	r0, r3
 8002d1e:	e730      	b.n	8002b82 <_printf_float+0xc6>
 8002d20:	2301      	movs	r3, #1
 8002d22:	464a      	mov	r2, r9
 8002d24:	4631      	mov	r1, r6
 8002d26:	4628      	mov	r0, r5
 8002d28:	47b8      	blx	r7
 8002d2a:	3001      	adds	r0, #1
 8002d2c:	f43f af27 	beq.w	8002b7e <_printf_float+0xc2>
 8002d30:	f108 0801 	add.w	r8, r8, #1
 8002d34:	e7e6      	b.n	8002d04 <_printf_float+0x248>
 8002d36:	9b09      	ldr	r3, [sp, #36]	; 0x24
 8002d38:	2b00      	cmp	r3, #0
 8002d3a:	dc39      	bgt.n	8002db0 <_printf_float+0x2f4>
 8002d3c:	4a1b      	ldr	r2, [pc, #108]	; (8002dac <_printf_float+0x2f0>)
 8002d3e:	2301      	movs	r3, #1
 8002d40:	4631      	mov	r1, r6
 8002d42:	4628      	mov	r0, r5
 8002d44:	47b8      	blx	r7
 8002d46:	3001      	adds	r0, #1
 8002d48:	f43f af19 	beq.w	8002b7e <_printf_float+0xc2>
 8002d4c:	e9dd 2309 	ldrd	r2, r3, [sp, #36]	; 0x24
 8002d50:	4313      	orrs	r3, r2
 8002d52:	d102      	bne.n	8002d5a <_printf_float+0x29e>
 8002d54:	6823      	ldr	r3, [r4, #0]
 8002d56:	07d9      	lsls	r1, r3, #31
 8002d58:	d5d8      	bpl.n	8002d0c <_printf_float+0x250>
 8002d5a:	ee18 3a10 	vmov	r3, s16
 8002d5e:	4652      	mov	r2, sl
 8002d60:	4631      	mov	r1, r6
 8002d62:	4628      	mov	r0, r5
 8002d64:	47b8      	blx	r7
 8002d66:	3001      	adds	r0, #1
 8002d68:	f43f af09 	beq.w	8002b7e <_printf_float+0xc2>
 8002d6c:	f04f 0900 	mov.w	r9, #0
 8002d70:	f104 0a1a 	add.w	sl, r4, #26
 8002d74:	9b09      	ldr	r3, [sp, #36]	; 0x24
 8002d76:	425b      	negs	r3, r3
 8002d78:	454b      	cmp	r3, r9
 8002d7a:	dc01      	bgt.n	8002d80 <_printf_float+0x2c4>
 8002d7c:	9b0a      	ldr	r3, [sp, #40]	; 0x28
 8002d7e:	e792      	b.n	8002ca6 <_printf_float+0x1ea>
 8002d80:	2301      	movs	r3, #1
 8002d82:	4652      	mov	r2, sl
 8002d84:	4631      	mov	r1, r6
 8002d86:	4628      	mov	r0, r5
 8002d88:	47b8      	blx	r7
 8002d8a:	3001      	adds	r0, #1
 8002d8c:	f43f aef7 	beq.w	8002b7e <_printf_float+0xc2>
 8002d90:	f109 0901 	add.w	r9, r9, #1
 8002d94:	e7ee      	b.n	8002d74 <_printf_float+0x2b8>
 8002d96:	bf00      	nop
 8002d98:	7fefffff 	.word	0x7fefffff
 8002d9c:	0800571c 	.word	0x0800571c
 8002da0:	08005720 	.word	0x08005720
 8002da4:	08005728 	.word	0x08005728
 8002da8:	08005724 	.word	0x08005724
 8002dac:	0800572c 	.word	0x0800572c
 8002db0:	9a0a      	ldr	r2, [sp, #40]	; 0x28
 8002db2:	6da3      	ldr	r3, [r4, #88]	; 0x58
 8002db4:	429a      	cmp	r2, r3
 8002db6:	bfa8      	it	ge
 8002db8:	461a      	movge	r2, r3
 8002dba:	2a00      	cmp	r2, #0
 8002dbc:	4691      	mov	r9, r2
 8002dbe:	dc37      	bgt.n	8002e30 <_printf_float+0x374>
 8002dc0:	f04f 0b00 	mov.w	fp, #0
 8002dc4:	ea29 79e9 	bic.w	r9, r9, r9, asr #31
 8002dc8:	f104 021a 	add.w	r2, r4, #26
 8002dcc:	6da3      	ldr	r3, [r4, #88]	; 0x58
 8002dce:	9305      	str	r3, [sp, #20]
 8002dd0:	eba3 0309 	sub.w	r3, r3, r9
 8002dd4:	455b      	cmp	r3, fp
 8002dd6:	dc33      	bgt.n	8002e40 <_printf_float+0x384>
 8002dd8:	e9dd 2309 	ldrd	r2, r3, [sp, #36]	; 0x24
 8002ddc:	429a      	cmp	r2, r3
 8002dde:	db3b      	blt.n	8002e58 <_printf_float+0x39c>
 8002de0:	6823      	ldr	r3, [r4, #0]
 8002de2:	07da      	lsls	r2, r3, #31
 8002de4:	d438      	bmi.n	8002e58 <_printf_float+0x39c>
 8002de6:	9a0a      	ldr	r2, [sp, #40]	; 0x28
 8002de8:	9b05      	ldr	r3, [sp, #20]
 8002dea:	9909      	ldr	r1, [sp, #36]	; 0x24
 8002dec:	1ad3      	subs	r3, r2, r3
 8002dee:	eba2 0901 	sub.w	r9, r2, r1
 8002df2:	4599      	cmp	r9, r3
 8002df4:	bfa8      	it	ge
 8002df6:	4699      	movge	r9, r3
 8002df8:	f1b9 0f00 	cmp.w	r9, #0
 8002dfc:	dc35      	bgt.n	8002e6a <_printf_float+0x3ae>
 8002dfe:	f04f 0800 	mov.w	r8, #0
 8002e02:	ea29 79e9 	bic.w	r9, r9, r9, asr #31
 8002e06:	f104 0a1a 	add.w	sl, r4, #26
 8002e0a:	e9dd 2309 	ldrd	r2, r3, [sp, #36]	; 0x24
 8002e0e:	1a9b      	subs	r3, r3, r2
 8002e10:	eba3 0309 	sub.w	r3, r3, r9
 8002e14:	4543      	cmp	r3, r8
 8002e16:	f77f af79 	ble.w	8002d0c <_printf_float+0x250>
 8002e1a:	2301      	movs	r3, #1
 8002e1c:	4652      	mov	r2, sl
 8002e1e:	4631      	mov	r1, r6
 8002e20:	4628      	mov	r0, r5
 8002e22:	47b8      	blx	r7
 8002e24:	3001      	adds	r0, #1
 8002e26:	f43f aeaa 	beq.w	8002b7e <_printf_float+0xc2>
 8002e2a:	f108 0801 	add.w	r8, r8, #1
 8002e2e:	e7ec      	b.n	8002e0a <_printf_float+0x34e>
 8002e30:	4613      	mov	r3, r2
 8002e32:	4631      	mov	r1, r6
 8002e34:	4642      	mov	r2, r8
 8002e36:	4628      	mov	r0, r5
 8002e38:	47b8      	blx	r7
 8002e3a:	3001      	adds	r0, #1
 8002e3c:	d1c0      	bne.n	8002dc0 <_printf_float+0x304>
 8002e3e:	e69e      	b.n	8002b7e <_printf_float+0xc2>
 8002e40:	2301      	movs	r3, #1
 8002e42:	4631      	mov	r1, r6
 8002e44:	4628      	mov	r0, r5
 8002e46:	9205      	str	r2, [sp, #20]
 8002e48:	47b8      	blx	r7
 8002e4a:	3001      	adds	r0, #1
 8002e4c:	f43f ae97 	beq.w	8002b7e <_printf_float+0xc2>
 8002e50:	9a05      	ldr	r2, [sp, #20]
 8002e52:	f10b 0b01 	add.w	fp, fp, #1
 8002e56:	e7b9      	b.n	8002dcc <_printf_float+0x310>
 8002e58:	ee18 3a10 	vmov	r3, s16
 8002e5c:	4652      	mov	r2, sl
 8002e5e:	4631      	mov	r1, r6
 8002e60:	4628      	mov	r0, r5
 8002e62:	47b8      	blx	r7
 8002e64:	3001      	adds	r0, #1
 8002e66:	d1be      	bne.n	8002de6 <_printf_float+0x32a>
 8002e68:	e689      	b.n	8002b7e <_printf_float+0xc2>
 8002e6a:	9a05      	ldr	r2, [sp, #20]
 8002e6c:	464b      	mov	r3, r9
 8002e6e:	4442      	add	r2, r8
 8002e70:	4631      	mov	r1, r6
 8002e72:	4628      	mov	r0, r5
 8002e74:	47b8      	blx	r7
 8002e76:	3001      	adds	r0, #1
 8002e78:	d1c1      	bne.n	8002dfe <_printf_float+0x342>
 8002e7a:	e680      	b.n	8002b7e <_printf_float+0xc2>
 8002e7c:	9a0a      	ldr	r2, [sp, #40]	; 0x28
 8002e7e:	2a01      	cmp	r2, #1
 8002e80:	dc01      	bgt.n	8002e86 <_printf_float+0x3ca>
 8002e82:	07db      	lsls	r3, r3, #31
 8002e84:	d538      	bpl.n	8002ef8 <_printf_float+0x43c>
 8002e86:	2301      	movs	r3, #1
 8002e88:	4642      	mov	r2, r8
 8002e8a:	4631      	mov	r1, r6
 8002e8c:	4628      	mov	r0, r5
 8002e8e:	47b8      	blx	r7
 8002e90:	3001      	adds	r0, #1
 8002e92:	f43f ae74 	beq.w	8002b7e <_printf_float+0xc2>
 8002e96:	ee18 3a10 	vmov	r3, s16
 8002e9a:	4652      	mov	r2, sl
 8002e9c:	4631      	mov	r1, r6
 8002e9e:	4628      	mov	r0, r5
 8002ea0:	47b8      	blx	r7
 8002ea2:	3001      	adds	r0, #1
 8002ea4:	f43f ae6b 	beq.w	8002b7e <_printf_float+0xc2>
 8002ea8:	e9d4 0112 	ldrd	r0, r1, [r4, #72]	; 0x48
 8002eac:	2200      	movs	r2, #0
 8002eae:	2300      	movs	r3, #0
 8002eb0:	f7fd fe0a 	bl	8000ac8 <__aeabi_dcmpeq>
 8002eb4:	b9d8      	cbnz	r0, 8002eee <_printf_float+0x432>
 8002eb6:	9b0a      	ldr	r3, [sp, #40]	; 0x28
 8002eb8:	f108 0201 	add.w	r2, r8, #1
 8002ebc:	3b01      	subs	r3, #1
 8002ebe:	4631      	mov	r1, r6
 8002ec0:	4628      	mov	r0, r5
 8002ec2:	47b8      	blx	r7
 8002ec4:	3001      	adds	r0, #1
 8002ec6:	d10e      	bne.n	8002ee6 <_printf_float+0x42a>
 8002ec8:	e659      	b.n	8002b7e <_printf_float+0xc2>
 8002eca:	2301      	movs	r3, #1
 8002ecc:	4652      	mov	r2, sl
 8002ece:	4631      	mov	r1, r6
 8002ed0:	4628      	mov	r0, r5
 8002ed2:	47b8      	blx	r7
 8002ed4:	3001      	adds	r0, #1
 8002ed6:	f43f ae52 	beq.w	8002b7e <_printf_float+0xc2>
 8002eda:	f108 0801 	add.w	r8, r8, #1
 8002ede:	9b0a      	ldr	r3, [sp, #40]	; 0x28
 8002ee0:	3b01      	subs	r3, #1
 8002ee2:	4543      	cmp	r3, r8
 8002ee4:	dcf1      	bgt.n	8002eca <_printf_float+0x40e>
 8002ee6:	464b      	mov	r3, r9
 8002ee8:	f104 0250 	add.w	r2, r4, #80	; 0x50
 8002eec:	e6dc      	b.n	8002ca8 <_printf_float+0x1ec>
 8002eee:	f04f 0800 	mov.w	r8, #0
 8002ef2:	f104 0a1a 	add.w	sl, r4, #26
 8002ef6:	e7f2      	b.n	8002ede <_printf_float+0x422>
 8002ef8:	2301      	movs	r3, #1
 8002efa:	4642      	mov	r2, r8
 8002efc:	e7df      	b.n	8002ebe <_printf_float+0x402>
 8002efe:	2301      	movs	r3, #1
 8002f00:	464a      	mov	r2, r9
 8002f02:	4631      	mov	r1, r6
 8002f04:	4628      	mov	r0, r5
 8002f06:	47b8      	blx	r7
 8002f08:	3001      	adds	r0, #1
 8002f0a:	f43f ae38 	beq.w	8002b7e <_printf_float+0xc2>
 8002f0e:	f108 0801 	add.w	r8, r8, #1
 8002f12:	68e3      	ldr	r3, [r4, #12]
 8002f14:	990b      	ldr	r1, [sp, #44]	; 0x2c
 8002f16:	1a5b      	subs	r3, r3, r1
 8002f18:	4543      	cmp	r3, r8
 8002f1a:	dcf0      	bgt.n	8002efe <_printf_float+0x442>
 8002f1c:	e6fa      	b.n	8002d14 <_printf_float+0x258>
 8002f1e:	f04f 0800 	mov.w	r8, #0
 8002f22:	f104 0919 	add.w	r9, r4, #25
 8002f26:	e7f4      	b.n	8002f12 <_printf_float+0x456>

08002f28 <_printf_common>:
 8002f28:	e92d 47f0 	stmdb	sp!, {r4, r5, r6, r7, r8, r9, sl, lr}
 8002f2c:	4616      	mov	r6, r2
 8002f2e:	4699      	mov	r9, r3
 8002f30:	688a      	ldr	r2, [r1, #8]
 8002f32:	690b      	ldr	r3, [r1, #16]
 8002f34:	f8dd 8020 	ldr.w	r8, [sp, #32]
 8002f38:	4293      	cmp	r3, r2
 8002f3a:	bfb8      	it	lt
 8002f3c:	4613      	movlt	r3, r2
 8002f3e:	6033      	str	r3, [r6, #0]
 8002f40:	f891 2043 	ldrb.w	r2, [r1, #67]	; 0x43
 8002f44:	4607      	mov	r7, r0
 8002f46:	460c      	mov	r4, r1
 8002f48:	b10a      	cbz	r2, 8002f4e <_printf_common+0x26>
 8002f4a:	3301      	adds	r3, #1
 8002f4c:	6033      	str	r3, [r6, #0]
 8002f4e:	6823      	ldr	r3, [r4, #0]
 8002f50:	0699      	lsls	r1, r3, #26
 8002f52:	bf42      	ittt	mi
 8002f54:	6833      	ldrmi	r3, [r6, #0]
 8002f56:	3302      	addmi	r3, #2
 8002f58:	6033      	strmi	r3, [r6, #0]
 8002f5a:	6825      	ldr	r5, [r4, #0]
 8002f5c:	f015 0506 	ands.w	r5, r5, #6
 8002f60:	d106      	bne.n	8002f70 <_printf_common+0x48>
 8002f62:	f104 0a19 	add.w	sl, r4, #25
 8002f66:	68e3      	ldr	r3, [r4, #12]
 8002f68:	6832      	ldr	r2, [r6, #0]
 8002f6a:	1a9b      	subs	r3, r3, r2
 8002f6c:	42ab      	cmp	r3, r5
 8002f6e:	dc26      	bgt.n	8002fbe <_printf_common+0x96>
 8002f70:	f894 2043 	ldrb.w	r2, [r4, #67]	; 0x43
 8002f74:	1e13      	subs	r3, r2, #0
 8002f76:	6822      	ldr	r2, [r4, #0]
 8002f78:	bf18      	it	ne
 8002f7a:	2301      	movne	r3, #1
 8002f7c:	0692      	lsls	r2, r2, #26
 8002f7e:	d42b      	bmi.n	8002fd8 <_printf_common+0xb0>
 8002f80:	f104 0243 	add.w	r2, r4, #67	; 0x43
 8002f84:	4649      	mov	r1, r9
 8002f86:	4638      	mov	r0, r7
 8002f88:	47c0      	blx	r8
 8002f8a:	3001      	adds	r0, #1
 8002f8c:	d01e      	beq.n	8002fcc <_printf_common+0xa4>
 8002f8e:	6823      	ldr	r3, [r4, #0]
 8002f90:	68e5      	ldr	r5, [r4, #12]
 8002f92:	6832      	ldr	r2, [r6, #0]
 8002f94:	f003 0306 	and.w	r3, r3, #6
 8002f98:	2b04      	cmp	r3, #4
 8002f9a:	bf08      	it	eq
 8002f9c:	1aad      	subeq	r5, r5, r2
 8002f9e:	68a3      	ldr	r3, [r4, #8]
 8002fa0:	6922      	ldr	r2, [r4, #16]
 8002fa2:	bf0c      	ite	eq
 8002fa4:	ea25 75e5 	biceq.w	r5, r5, r5, asr #31
 8002fa8:	2500      	movne	r5, #0
 8002faa:	4293      	cmp	r3, r2
 8002fac:	bfc4      	itt	gt
 8002fae:	1a9b      	subgt	r3, r3, r2
 8002fb0:	18ed      	addgt	r5, r5, r3
 8002fb2:	2600      	movs	r6, #0
 8002fb4:	341a      	adds	r4, #26
 8002fb6:	42b5      	cmp	r5, r6
 8002fb8:	d11a      	bne.n	8002ff0 <_printf_common+0xc8>
 8002fba:	2000      	movs	r0, #0
 8002fbc:	e008      	b.n	8002fd0 <_printf_common+0xa8>
 8002fbe:	2301      	movs	r3, #1
 8002fc0:	4652      	mov	r2, sl
 8002fc2:	4649      	mov	r1, r9
 8002fc4:	4638      	mov	r0, r7
 8002fc6:	47c0      	blx	r8
 8002fc8:	3001      	adds	r0, #1
 8002fca:	d103      	bne.n	8002fd4 <_printf_common+0xac>
 8002fcc:	f04f 30ff 	mov.w	r0, #4294967295
 8002fd0:	e8bd 87f0 	ldmia.w	sp!, {r4, r5, r6, r7, r8, r9, sl, pc}
 8002fd4:	3501      	adds	r5, #1
 8002fd6:	e7c6      	b.n	8002f66 <_printf_common+0x3e>
 8002fd8:	18e1      	adds	r1, r4, r3
 8002fda:	1c5a      	adds	r2, r3, #1
 8002fdc:	2030      	movs	r0, #48	; 0x30
 8002fde:	f881 0043 	strb.w	r0, [r1, #67]	; 0x43
 8002fe2:	4422      	add	r2, r4
 8002fe4:	f894 1045 	ldrb.w	r1, [r4, #69]	; 0x45
 8002fe8:	f882 1043 	strb.w	r1, [r2, #67]	; 0x43
 8002fec:	3302      	adds	r3, #2
 8002fee:	e7c7      	b.n	8002f80 <_printf_common+0x58>
 8002ff0:	2301      	movs	r3, #1
 8002ff2:	4622      	mov	r2, r4
 8002ff4:	4649      	mov	r1, r9
 8002ff6:	4638      	mov	r0, r7
 8002ff8:	47c0      	blx	r8
 8002ffa:	3001      	adds	r0, #1
 8002ffc:	d0e6      	beq.n	8002fcc <_printf_common+0xa4>
 8002ffe:	3601      	adds	r6, #1
 8003000:	e7d9      	b.n	8002fb6 <_printf_common+0x8e>
	...

08003004 <_printf_i>:
 8003004:	e92d 47ff 	stmdb	sp!, {r0, r1, r2, r3, r4, r5, r6, r7, r8, r9, sl, lr}
 8003008:	460c      	mov	r4, r1
 800300a:	4691      	mov	r9, r2
 800300c:	7e27      	ldrb	r7, [r4, #24]
 800300e:	990c      	ldr	r1, [sp, #48]	; 0x30
 8003010:	2f78      	cmp	r7, #120	; 0x78
 8003012:	4680      	mov	r8, r0
 8003014:	469a      	mov	sl, r3
 8003016:	f104 0243 	add.w	r2, r4, #67	; 0x43
 800301a:	d807      	bhi.n	800302c <_printf_i+0x28>
 800301c:	2f62      	cmp	r7, #98	; 0x62
 800301e:	d80a      	bhi.n	8003036 <_printf_i+0x32>
 8003020:	2f00      	cmp	r7, #0
 8003022:	f000 80d8 	beq.w	80031d6 <_printf_i+0x1d2>
 8003026:	2f58      	cmp	r7, #88	; 0x58
 8003028:	f000 80a3 	beq.w	8003172 <_printf_i+0x16e>
 800302c:	f104 0642 	add.w	r6, r4, #66	; 0x42
 8003030:	f884 7042 	strb.w	r7, [r4, #66]	; 0x42
 8003034:	e03a      	b.n	80030ac <_printf_i+0xa8>
 8003036:	f1a7 0363 	sub.w	r3, r7, #99	; 0x63
 800303a:	2b15      	cmp	r3, #21
 800303c:	d8f6      	bhi.n	800302c <_printf_i+0x28>
 800303e:	a001      	add	r0, pc, #4	; (adr r0, 8003044 <_printf_i+0x40>)
 8003040:	f850 f023 	ldr.w	pc, [r0, r3, lsl #2]
 8003044:	0800309d 	.word	0x0800309d
 8003048:	080030b1 	.word	0x080030b1
 800304c:	0800302d 	.word	0x0800302d
 8003050:	0800302d 	.word	0x0800302d
 8003054:	0800302d 	.word	0x0800302d
 8003058:	0800302d 	.word	0x0800302d
 800305c:	080030b1 	.word	0x080030b1
 8003060:	0800302d 	.word	0x0800302d
 8003064:	0800302d 	.word	0x0800302d
 8003068:	0800302d 	.word	0x0800302d
 800306c:	0800302d 	.word	0x0800302d
 8003070:	080031bd 	.word	0x080031bd
 8003074:	080030e1 	.word	0x080030e1
 8003078:	0800319f 	.word	0x0800319f
 800307c:	0800302d 	.word	0x0800302d
 8003080:	0800302d 	.word	0x0800302d
 8003084:	080031df 	.word	0x080031df
 8003088:	0800302d 	.word	0x0800302d
 800308c:	080030e1 	.word	0x080030e1
 8003090:	0800302d 	.word	0x0800302d
 8003094:	0800302d 	.word	0x0800302d
 8003098:	080031a7 	.word	0x080031a7
 800309c:	680b      	ldr	r3, [r1, #0]
 800309e:	1d1a      	adds	r2, r3, #4
 80030a0:	681b      	ldr	r3, [r3, #0]
 80030a2:	600a      	str	r2, [r1, #0]
 80030a4:	f104 0642 	add.w	r6, r4, #66	; 0x42
 80030a8:	f884 3042 	strb.w	r3, [r4, #66]	; 0x42
 80030ac:	2301      	movs	r3, #1
 80030ae:	e0a3      	b.n	80031f8 <_printf_i+0x1f4>
 80030b0:	6825      	ldr	r5, [r4, #0]
 80030b2:	6808      	ldr	r0, [r1, #0]
 80030b4:	062e      	lsls	r6, r5, #24
 80030b6:	f100 0304 	add.w	r3, r0, #4
 80030ba:	d50a      	bpl.n	80030d2 <_printf_i+0xce>
 80030bc:	6805      	ldr	r5, [r0, #0]
 80030be:	600b      	str	r3, [r1, #0]
 80030c0:	2d00      	cmp	r5, #0
 80030c2:	da03      	bge.n	80030cc <_printf_i+0xc8>
 80030c4:	232d      	movs	r3, #45	; 0x2d
 80030c6:	426d      	negs	r5, r5
 80030c8:	f884 3043 	strb.w	r3, [r4, #67]	; 0x43
 80030cc:	485e      	ldr	r0, [pc, #376]	; (8003248 <_printf_i+0x244>)
 80030ce:	230a      	movs	r3, #10
 80030d0:	e019      	b.n	8003106 <_printf_i+0x102>
 80030d2:	f015 0f40 	tst.w	r5, #64	; 0x40
 80030d6:	6805      	ldr	r5, [r0, #0]
 80030d8:	600b      	str	r3, [r1, #0]
 80030da:	bf18      	it	ne
 80030dc:	b22d      	sxthne	r5, r5
 80030de:	e7ef      	b.n	80030c0 <_printf_i+0xbc>
 80030e0:	680b      	ldr	r3, [r1, #0]
 80030e2:	6825      	ldr	r5, [r4, #0]
 80030e4:	1d18      	adds	r0, r3, #4
 80030e6:	6008      	str	r0, [r1, #0]
 80030e8:	0628      	lsls	r0, r5, #24
 80030ea:	d501      	bpl.n	80030f0 <_printf_i+0xec>
 80030ec:	681d      	ldr	r5, [r3, #0]
 80030ee:	e002      	b.n	80030f6 <_printf_i+0xf2>
 80030f0:	0669      	lsls	r1, r5, #25
 80030f2:	d5fb      	bpl.n	80030ec <_printf_i+0xe8>
 80030f4:	881d      	ldrh	r5, [r3, #0]
 80030f6:	4854      	ldr	r0, [pc, #336]	; (8003248 <_printf_i+0x244>)
 80030f8:	2f6f      	cmp	r7, #111	; 0x6f
 80030fa:	bf0c      	ite	eq
 80030fc:	2308      	moveq	r3, #8
 80030fe:	230a      	movne	r3, #10
 8003100:	2100      	movs	r1, #0
 8003102:	f884 1043 	strb.w	r1, [r4, #67]	; 0x43
 8003106:	6866      	ldr	r6, [r4, #4]
 8003108:	60a6      	str	r6, [r4, #8]
 800310a:	2e00      	cmp	r6, #0
 800310c:	bfa2      	ittt	ge
 800310e:	6821      	ldrge	r1, [r4, #0]
 8003110:	f021 0104 	bicge.w	r1, r1, #4
 8003114:	6021      	strge	r1, [r4, #0]
 8003116:	b90d      	cbnz	r5, 800311c <_printf_i+0x118>
 8003118:	2e00      	cmp	r6, #0
 800311a:	d04d      	beq.n	80031b8 <_printf_i+0x1b4>
 800311c:	4616      	mov	r6, r2
 800311e:	fbb5 f1f3 	udiv	r1, r5, r3
 8003122:	fb03 5711 	mls	r7, r3, r1, r5
 8003126:	5dc7      	ldrb	r7, [r0, r7]
 8003128:	f806 7d01 	strb.w	r7, [r6, #-1]!
 800312c:	462f      	mov	r7, r5
 800312e:	42bb      	cmp	r3, r7
 8003130:	460d      	mov	r5, r1
 8003132:	d9f4      	bls.n	800311e <_printf_i+0x11a>
 8003134:	2b08      	cmp	r3, #8
 8003136:	d10b      	bne.n	8003150 <_printf_i+0x14c>
 8003138:	6823      	ldr	r3, [r4, #0]
 800313a:	07df      	lsls	r7, r3, #31
 800313c:	d508      	bpl.n	8003150 <_printf_i+0x14c>
 800313e:	6923      	ldr	r3, [r4, #16]
 8003140:	6861      	ldr	r1, [r4, #4]
 8003142:	4299      	cmp	r1, r3
 8003144:	bfde      	ittt	le
 8003146:	2330      	movle	r3, #48	; 0x30
 8003148:	f806 3c01 	strble.w	r3, [r6, #-1]
 800314c:	f106 36ff 	addle.w	r6, r6, #4294967295
 8003150:	1b92      	subs	r2, r2, r6
 8003152:	6122      	str	r2, [r4, #16]
 8003154:	f8cd a000 	str.w	sl, [sp]
 8003158:	464b      	mov	r3, r9
 800315a:	aa03      	add	r2, sp, #12
 800315c:	4621      	mov	r1, r4
 800315e:	4640      	mov	r0, r8
 8003160:	f7ff fee2 	bl	8002f28 <_printf_common>
 8003164:	3001      	adds	r0, #1
 8003166:	d14c      	bne.n	8003202 <_printf_i+0x1fe>
 8003168:	f04f 30ff 	mov.w	r0, #4294967295
 800316c:	b004      	add	sp, #16
 800316e:	e8bd 87f0 	ldmia.w	sp!, {r4, r5, r6, r7, r8, r9, sl, pc}
 8003172:	4835      	ldr	r0, [pc, #212]	; (8003248 <_printf_i+0x244>)
 8003174:	f884 7045 	strb.w	r7, [r4, #69]	; 0x45
 8003178:	6823      	ldr	r3, [r4, #0]
 800317a:	680e      	ldr	r6, [r1, #0]
 800317c:	061f      	lsls	r7, r3, #24
 800317e:	f856 5b04 	ldr.w	r5, [r6], #4
 8003182:	600e      	str	r6, [r1, #0]
 8003184:	d514      	bpl.n	80031b0 <_printf_i+0x1ac>
 8003186:	07d9      	lsls	r1, r3, #31
 8003188:	bf44      	itt	mi
 800318a:	f043 0320 	orrmi.w	r3, r3, #32
 800318e:	6023      	strmi	r3, [r4, #0]
 8003190:	b91d      	cbnz	r5, 800319a <_printf_i+0x196>
 8003192:	6823      	ldr	r3, [r4, #0]
 8003194:	f023 0320 	bic.w	r3, r3, #32
 8003198:	6023      	str	r3, [r4, #0]
 800319a:	2310      	movs	r3, #16
 800319c:	e7b0      	b.n	8003100 <_printf_i+0xfc>
 800319e:	6823      	ldr	r3, [r4, #0]
 80031a0:	f043 0320 	orr.w	r3, r3, #32
 80031a4:	6023      	str	r3, [r4, #0]
 80031a6:	2378      	movs	r3, #120	; 0x78
 80031a8:	4828      	ldr	r0, [pc, #160]	; (800324c <_printf_i+0x248>)
 80031aa:	f884 3045 	strb.w	r3, [r4, #69]	; 0x45
 80031ae:	e7e3      	b.n	8003178 <_printf_i+0x174>
 80031b0:	065e      	lsls	r6, r3, #25
 80031b2:	bf48      	it	mi
 80031b4:	b2ad      	uxthmi	r5, r5
 80031b6:	e7e6      	b.n	8003186 <_printf_i+0x182>
 80031b8:	4616      	mov	r6, r2
 80031ba:	e7bb      	b.n	8003134 <_printf_i+0x130>
 80031bc:	680b      	ldr	r3, [r1, #0]
 80031be:	6826      	ldr	r6, [r4, #0]
 80031c0:	6960      	ldr	r0, [r4, #20]
 80031c2:	1d1d      	adds	r5, r3, #4
 80031c4:	600d      	str	r5, [r1, #0]
 80031c6:	0635      	lsls	r5, r6, #24
 80031c8:	681b      	ldr	r3, [r3, #0]
 80031ca:	d501      	bpl.n	80031d0 <_printf_i+0x1cc>
 80031cc:	6018      	str	r0, [r3, #0]
 80031ce:	e002      	b.n	80031d6 <_printf_i+0x1d2>
 80031d0:	0671      	lsls	r1, r6, #25
 80031d2:	d5fb      	bpl.n	80031cc <_printf_i+0x1c8>
 80031d4:	8018      	strh	r0, [r3, #0]
 80031d6:	2300      	movs	r3, #0
 80031d8:	6123      	str	r3, [r4, #16]
 80031da:	4616      	mov	r6, r2
 80031dc:	e7ba      	b.n	8003154 <_printf_i+0x150>
 80031de:	680b      	ldr	r3, [r1, #0]
 80031e0:	1d1a      	adds	r2, r3, #4
 80031e2:	600a      	str	r2, [r1, #0]
 80031e4:	681e      	ldr	r6, [r3, #0]
 80031e6:	6862      	ldr	r2, [r4, #4]
 80031e8:	2100      	movs	r1, #0
 80031ea:	4630      	mov	r0, r6
 80031ec:	f7fc fff8 	bl	80001e0 <memchr>
 80031f0:	b108      	cbz	r0, 80031f6 <_printf_i+0x1f2>
 80031f2:	1b80      	subs	r0, r0, r6
 80031f4:	6060      	str	r0, [r4, #4]
 80031f6:	6863      	ldr	r3, [r4, #4]
 80031f8:	6123      	str	r3, [r4, #16]
 80031fa:	2300      	movs	r3, #0
 80031fc:	f884 3043 	strb.w	r3, [r4, #67]	; 0x43
 8003200:	e7a8      	b.n	8003154 <_printf_i+0x150>
 8003202:	6923      	ldr	r3, [r4, #16]
 8003204:	4632      	mov	r2, r6
 8003206:	4649      	mov	r1, r9
 8003208:	4640      	mov	r0, r8
 800320a:	47d0      	blx	sl
 800320c:	3001      	adds	r0, #1
 800320e:	d0ab      	beq.n	8003168 <_printf_i+0x164>
 8003210:	6823      	ldr	r3, [r4, #0]
 8003212:	079b      	lsls	r3, r3, #30
 8003214:	d413      	bmi.n	800323e <_printf_i+0x23a>
 8003216:	68e0      	ldr	r0, [r4, #12]
 8003218:	9b03      	ldr	r3, [sp, #12]
 800321a:	4298      	cmp	r0, r3
 800321c:	bfb8      	it	lt
 800321e:	4618      	movlt	r0, r3
 8003220:	e7a4      	b.n	800316c <_printf_i+0x168>
 8003222:	2301      	movs	r3, #1
 8003224:	4632      	mov	r2, r6
 8003226:	4649      	mov	r1, r9
 8003228:	4640      	mov	r0, r8
 800322a:	47d0      	blx	sl
 800322c:	3001      	adds	r0, #1
 800322e:	d09b      	beq.n	8003168 <_printf_i+0x164>
 8003230:	3501      	adds	r5, #1
 8003232:	68e3      	ldr	r3, [r4, #12]
 8003234:	9903      	ldr	r1, [sp, #12]
 8003236:	1a5b      	subs	r3, r3, r1
 8003238:	42ab      	cmp	r3, r5
 800323a:	dcf2      	bgt.n	8003222 <_printf_i+0x21e>
 800323c:	e7eb      	b.n	8003216 <_printf_i+0x212>
 800323e:	2500      	movs	r5, #0
 8003240:	f104 0619 	add.w	r6, r4, #25
 8003244:	e7f5      	b.n	8003232 <_printf_i+0x22e>
 8003246:	bf00      	nop
 8003248:	0800572e 	.word	0x0800572e
 800324c:	0800573f 	.word	0x0800573f

08003250 <siprintf>:
 8003250:	b40e      	push	{r1, r2, r3}
 8003252:	b500      	push	{lr}
 8003254:	b09c      	sub	sp, #112	; 0x70
 8003256:	ab1d      	add	r3, sp, #116	; 0x74
 8003258:	9002      	str	r0, [sp, #8]
 800325a:	9006      	str	r0, [sp, #24]
 800325c:	f06f 4100 	mvn.w	r1, #2147483648	; 0x80000000
 8003260:	4809      	ldr	r0, [pc, #36]	; (8003288 <siprintf+0x38>)
 8003262:	9107      	str	r1, [sp, #28]
 8003264:	9104      	str	r1, [sp, #16]
 8003266:	4909      	ldr	r1, [pc, #36]	; (800328c <siprintf+0x3c>)
 8003268:	f853 2b04 	ldr.w	r2, [r3], #4
 800326c:	9105      	str	r1, [sp, #20]
 800326e:	6800      	ldr	r0, [r0, #0]
 8003270:	9301      	str	r3, [sp, #4]
 8003272:	a902      	add	r1, sp, #8
 8003274:	f001 fb24 	bl	80048c0 <_svfiprintf_r>
 8003278:	9b02      	ldr	r3, [sp, #8]
 800327a:	2200      	movs	r2, #0
 800327c:	701a      	strb	r2, [r3, #0]
 800327e:	b01c      	add	sp, #112	; 0x70
 8003280:	f85d eb04 	ldr.w	lr, [sp], #4
 8003284:	b003      	add	sp, #12
 8003286:	4770      	bx	lr
 8003288:	20000004 	.word	0x20000004
 800328c:	ffff0208 	.word	0xffff0208

08003290 <quorem>:
 8003290:	e92d 4ff7 	stmdb	sp!, {r0, r1, r2, r4, r5, r6, r7, r8, r9, sl, fp, lr}
 8003294:	6903      	ldr	r3, [r0, #16]
 8003296:	690c      	ldr	r4, [r1, #16]
 8003298:	42a3      	cmp	r3, r4
 800329a:	4607      	mov	r7, r0
 800329c:	f2c0 8081 	blt.w	80033a2 <quorem+0x112>
 80032a0:	3c01      	subs	r4, #1
 80032a2:	f101 0814 	add.w	r8, r1, #20
 80032a6:	f100 0514 	add.w	r5, r0, #20
 80032aa:	eb05 0384 	add.w	r3, r5, r4, lsl #2
 80032ae:	9301      	str	r3, [sp, #4]
 80032b0:	f858 3024 	ldr.w	r3, [r8, r4, lsl #2]
 80032b4:	f855 2024 	ldr.w	r2, [r5, r4, lsl #2]
 80032b8:	3301      	adds	r3, #1
 80032ba:	429a      	cmp	r2, r3
 80032bc:	ea4f 0b84 	mov.w	fp, r4, lsl #2
 80032c0:	eb08 0984 	add.w	r9, r8, r4, lsl #2
 80032c4:	fbb2 f6f3 	udiv	r6, r2, r3
 80032c8:	d331      	bcc.n	800332e <quorem+0x9e>
 80032ca:	f04f 0e00 	mov.w	lr, #0
 80032ce:	4640      	mov	r0, r8
 80032d0:	46ac      	mov	ip, r5
 80032d2:	46f2      	mov	sl, lr
 80032d4:	f850 2b04 	ldr.w	r2, [r0], #4
 80032d8:	b293      	uxth	r3, r2
 80032da:	fb06 e303 	mla	r3, r6, r3, lr
 80032de:	ea4f 4e13 	mov.w	lr, r3, lsr #16
 80032e2:	b29b      	uxth	r3, r3
 80032e4:	ebaa 0303 	sub.w	r3, sl, r3
 80032e8:	0c12      	lsrs	r2, r2, #16
 80032ea:	f8dc a000 	ldr.w	sl, [ip]
 80032ee:	fb06 e202 	mla	r2, r6, r2, lr
 80032f2:	fa13 f38a 	uxtah	r3, r3, sl
 80032f6:	ea4f 4e12 	mov.w	lr, r2, lsr #16
 80032fa:	fa1f fa82 	uxth.w	sl, r2
 80032fe:	f8dc 2000 	ldr.w	r2, [ip]
 8003302:	ebca 4212 	rsb	r2, sl, r2, lsr #16
 8003306:	eb02 4223 	add.w	r2, r2, r3, asr #16
 800330a:	b29b      	uxth	r3, r3
 800330c:	ea43 4302 	orr.w	r3, r3, r2, lsl #16
 8003310:	4581      	cmp	r9, r0
 8003312:	f84c 3b04 	str.w	r3, [ip], #4
 8003316:	ea4f 4a22 	mov.w	sl, r2, asr #16
 800331a:	d2db      	bcs.n	80032d4 <quorem+0x44>
 800331c:	f855 300b 	ldr.w	r3, [r5, fp]
 8003320:	b92b      	cbnz	r3, 800332e <quorem+0x9e>
 8003322:	9b01      	ldr	r3, [sp, #4]
 8003324:	3b04      	subs	r3, #4
 8003326:	429d      	cmp	r5, r3
 8003328:	461a      	mov	r2, r3
 800332a:	d32e      	bcc.n	800338a <quorem+0xfa>
 800332c:	613c      	str	r4, [r7, #16]
 800332e:	4638      	mov	r0, r7
 8003330:	f001 f8b0 	bl	8004494 <__mcmp>
 8003334:	2800      	cmp	r0, #0
 8003336:	db24      	blt.n	8003382 <quorem+0xf2>
 8003338:	3601      	adds	r6, #1
 800333a:	4628      	mov	r0, r5
 800333c:	f04f 0c00 	mov.w	ip, #0
 8003340:	f858 2b04 	ldr.w	r2, [r8], #4
 8003344:	f8d0 e000 	ldr.w	lr, [r0]
 8003348:	b293      	uxth	r3, r2
 800334a:	ebac 0303 	sub.w	r3, ip, r3
 800334e:	0c12      	lsrs	r2, r2, #16
 8003350:	fa13 f38e 	uxtah	r3, r3, lr
 8003354:	ebc2 421e 	rsb	r2, r2, lr, lsr #16
 8003358:	eb02 4223 	add.w	r2, r2, r3, asr #16
 800335c:	b29b      	uxth	r3, r3
 800335e:	ea43 4302 	orr.w	r3, r3, r2, lsl #16
 8003362:	45c1      	cmp	r9, r8
 8003364:	f840 3b04 	str.w	r3, [r0], #4
 8003368:	ea4f 4c22 	mov.w	ip, r2, asr #16
 800336c:	d2e8      	bcs.n	8003340 <quorem+0xb0>
 800336e:	f855 2024 	ldr.w	r2, [r5, r4, lsl #2]
 8003372:	eb05 0384 	add.w	r3, r5, r4, lsl #2
 8003376:	b922      	cbnz	r2, 8003382 <quorem+0xf2>
 8003378:	3b04      	subs	r3, #4
 800337a:	429d      	cmp	r5, r3
 800337c:	461a      	mov	r2, r3
 800337e:	d30a      	bcc.n	8003396 <quorem+0x106>
 8003380:	613c      	str	r4, [r7, #16]
 8003382:	4630      	mov	r0, r6
 8003384:	b003      	add	sp, #12
 8003386:	e8bd 8ff0 	ldmia.w	sp!, {r4, r5, r6, r7, r8, r9, sl, fp, pc}
 800338a:	6812      	ldr	r2, [r2, #0]
 800338c:	3b04      	subs	r3, #4
 800338e:	2a00      	cmp	r2, #0
 8003390:	d1cc      	bne.n	800332c <quorem+0x9c>
 8003392:	3c01      	subs	r4, #1
 8003394:	e7c7      	b.n	8003326 <quorem+0x96>
 8003396:	6812      	ldr	r2, [r2, #0]
 8003398:	3b04      	subs	r3, #4
 800339a:	2a00      	cmp	r2, #0
 800339c:	d1f0      	bne.n	8003380 <quorem+0xf0>
 800339e:	3c01      	subs	r4, #1
 80033a0:	e7eb      	b.n	800337a <quorem+0xea>
 80033a2:	2000      	movs	r0, #0
 80033a4:	e7ee      	b.n	8003384 <quorem+0xf4>
	...

080033a8 <_dtoa_r>:
 80033a8:	e92d 4ff0 	stmdb	sp!, {r4, r5, r6, r7, r8, r9, sl, fp, lr}
 80033ac:	ed2d 8b02 	vpush	{d8}
 80033b0:	ec57 6b10 	vmov	r6, r7, d0
 80033b4:	b095      	sub	sp, #84	; 0x54
 80033b6:	6a45      	ldr	r5, [r0, #36]	; 0x24
 80033b8:	f8dd 8080 	ldr.w	r8, [sp, #128]	; 0x80
 80033bc:	9105      	str	r1, [sp, #20]
 80033be:	e9cd 6702 	strd	r6, r7, [sp, #8]
 80033c2:	4604      	mov	r4, r0
 80033c4:	9209      	str	r2, [sp, #36]	; 0x24
 80033c6:	930f      	str	r3, [sp, #60]	; 0x3c
 80033c8:	b975      	cbnz	r5, 80033e8 <_dtoa_r+0x40>
 80033ca:	2010      	movs	r0, #16
 80033cc:	f000 fddc 	bl	8003f88 <malloc>
 80033d0:	4602      	mov	r2, r0
 80033d2:	6260      	str	r0, [r4, #36]	; 0x24
 80033d4:	b920      	cbnz	r0, 80033e0 <_dtoa_r+0x38>
 80033d6:	4bb2      	ldr	r3, [pc, #712]	; (80036a0 <_dtoa_r+0x2f8>)
 80033d8:	21ea      	movs	r1, #234	; 0xea
 80033da:	48b2      	ldr	r0, [pc, #712]	; (80036a4 <_dtoa_r+0x2fc>)
 80033dc:	f001 fb80 	bl	8004ae0 <__assert_func>
 80033e0:	e9c0 5501 	strd	r5, r5, [r0, #4]
 80033e4:	6005      	str	r5, [r0, #0]
 80033e6:	60c5      	str	r5, [r0, #12]
 80033e8:	6a63      	ldr	r3, [r4, #36]	; 0x24
 80033ea:	6819      	ldr	r1, [r3, #0]
 80033ec:	b151      	cbz	r1, 8003404 <_dtoa_r+0x5c>
 80033ee:	685a      	ldr	r2, [r3, #4]
 80033f0:	604a      	str	r2, [r1, #4]
 80033f2:	2301      	movs	r3, #1
 80033f4:	4093      	lsls	r3, r2
 80033f6:	608b      	str	r3, [r1, #8]
 80033f8:	4620      	mov	r0, r4
 80033fa:	f000 fe0d 	bl	8004018 <_Bfree>
 80033fe:	6a63      	ldr	r3, [r4, #36]	; 0x24
 8003400:	2200      	movs	r2, #0
 8003402:	601a      	str	r2, [r3, #0]
 8003404:	1e3b      	subs	r3, r7, #0
 8003406:	bfb9      	ittee	lt
 8003408:	f023 4300 	biclt.w	r3, r3, #2147483648	; 0x80000000
 800340c:	9303      	strlt	r3, [sp, #12]
 800340e:	2300      	movge	r3, #0
 8003410:	f8c8 3000 	strge.w	r3, [r8]
 8003414:	f8dd 900c 	ldr.w	r9, [sp, #12]
 8003418:	4ba3      	ldr	r3, [pc, #652]	; (80036a8 <_dtoa_r+0x300>)
 800341a:	bfbc      	itt	lt
 800341c:	2201      	movlt	r2, #1
 800341e:	f8c8 2000 	strlt.w	r2, [r8]
 8003422:	ea33 0309 	bics.w	r3, r3, r9
 8003426:	d11b      	bne.n	8003460 <_dtoa_r+0xb8>
 8003428:	9a0f      	ldr	r2, [sp, #60]	; 0x3c
 800342a:	f242 730f 	movw	r3, #9999	; 0x270f
 800342e:	6013      	str	r3, [r2, #0]
 8003430:	f3c9 0313 	ubfx	r3, r9, #0, #20
 8003434:	4333      	orrs	r3, r6
 8003436:	f000 857a 	beq.w	8003f2e <_dtoa_r+0xb86>
 800343a:	9b21      	ldr	r3, [sp, #132]	; 0x84
 800343c:	b963      	cbnz	r3, 8003458 <_dtoa_r+0xb0>
 800343e:	4b9b      	ldr	r3, [pc, #620]	; (80036ac <_dtoa_r+0x304>)
 8003440:	e024      	b.n	800348c <_dtoa_r+0xe4>
 8003442:	4b9b      	ldr	r3, [pc, #620]	; (80036b0 <_dtoa_r+0x308>)
 8003444:	9300      	str	r3, [sp, #0]
 8003446:	3308      	adds	r3, #8
 8003448:	9a21      	ldr	r2, [sp, #132]	; 0x84
 800344a:	6013      	str	r3, [r2, #0]
 800344c:	9800      	ldr	r0, [sp, #0]
 800344e:	b015      	add	sp, #84	; 0x54
 8003450:	ecbd 8b02 	vpop	{d8}
 8003454:	e8bd 8ff0 	ldmia.w	sp!, {r4, r5, r6, r7, r8, r9, sl, fp, pc}
 8003458:	4b94      	ldr	r3, [pc, #592]	; (80036ac <_dtoa_r+0x304>)
 800345a:	9300      	str	r3, [sp, #0]
 800345c:	3303      	adds	r3, #3
 800345e:	e7f3      	b.n	8003448 <_dtoa_r+0xa0>
 8003460:	ed9d 7b02 	vldr	d7, [sp, #8]
 8003464:	2200      	movs	r2, #0
 8003466:	ec51 0b17 	vmov	r0, r1, d7
 800346a:	2300      	movs	r3, #0
 800346c:	ed8d 7b0a 	vstr	d7, [sp, #40]	; 0x28
 8003470:	f7fd fb2a 	bl	8000ac8 <__aeabi_dcmpeq>
 8003474:	4680      	mov	r8, r0
 8003476:	b158      	cbz	r0, 8003490 <_dtoa_r+0xe8>
 8003478:	9a0f      	ldr	r2, [sp, #60]	; 0x3c
 800347a:	2301      	movs	r3, #1
 800347c:	6013      	str	r3, [r2, #0]
 800347e:	9b21      	ldr	r3, [sp, #132]	; 0x84
 8003480:	2b00      	cmp	r3, #0
 8003482:	f000 8551 	beq.w	8003f28 <_dtoa_r+0xb80>
 8003486:	488b      	ldr	r0, [pc, #556]	; (80036b4 <_dtoa_r+0x30c>)
 8003488:	6018      	str	r0, [r3, #0]
 800348a:	1e43      	subs	r3, r0, #1
 800348c:	9300      	str	r3, [sp, #0]
 800348e:	e7dd      	b.n	800344c <_dtoa_r+0xa4>
 8003490:	ed9d 0b0a 	vldr	d0, [sp, #40]	; 0x28
 8003494:	aa12      	add	r2, sp, #72	; 0x48
 8003496:	a913      	add	r1, sp, #76	; 0x4c
 8003498:	4620      	mov	r0, r4
 800349a:	f001 f89f 	bl	80045dc <__d2b>
 800349e:	f3c9 550a 	ubfx	r5, r9, #20, #11
 80034a2:	4683      	mov	fp, r0
 80034a4:	2d00      	cmp	r5, #0
 80034a6:	d07c      	beq.n	80035a2 <_dtoa_r+0x1fa>
 80034a8:	9b0b      	ldr	r3, [sp, #44]	; 0x2c
 80034aa:	f8cd 8040 	str.w	r8, [sp, #64]	; 0x40
 80034ae:	f3c3 0313 	ubfx	r3, r3, #0, #20
 80034b2:	e9dd 670a 	ldrd	r6, r7, [sp, #40]	; 0x28
 80034b6:	f043 577f 	orr.w	r7, r3, #1069547520	; 0x3fc00000
 80034ba:	f447 1740 	orr.w	r7, r7, #3145728	; 0x300000
 80034be:	f2a5 35ff 	subw	r5, r5, #1023	; 0x3ff
 80034c2:	4b7d      	ldr	r3, [pc, #500]	; (80036b8 <_dtoa_r+0x310>)
 80034c4:	2200      	movs	r2, #0
 80034c6:	4630      	mov	r0, r6
 80034c8:	4639      	mov	r1, r7
 80034ca:	f7fc fedd 	bl	8000288 <__aeabi_dsub>
 80034ce:	a36e      	add	r3, pc, #440	; (adr r3, 8003688 <_dtoa_r+0x2e0>)
 80034d0:	e9d3 2300 	ldrd	r2, r3, [r3]
 80034d4:	f7fd f890 	bl	80005f8 <__aeabi_dmul>
 80034d8:	a36d      	add	r3, pc, #436	; (adr r3, 8003690 <_dtoa_r+0x2e8>)
 80034da:	e9d3 2300 	ldrd	r2, r3, [r3]
 80034de:	f7fc fed5 	bl	800028c <__adddf3>
 80034e2:	4606      	mov	r6, r0
 80034e4:	4628      	mov	r0, r5
 80034e6:	460f      	mov	r7, r1
 80034e8:	f7fd f81c 	bl	8000524 <__aeabi_i2d>
 80034ec:	a36a      	add	r3, pc, #424	; (adr r3, 8003698 <_dtoa_r+0x2f0>)
 80034ee:	e9d3 2300 	ldrd	r2, r3, [r3]
 80034f2:	f7fd f881 	bl	80005f8 <__aeabi_dmul>
 80034f6:	4602      	mov	r2, r0
 80034f8:	460b      	mov	r3, r1
 80034fa:	4630      	mov	r0, r6
 80034fc:	4639      	mov	r1, r7
 80034fe:	f7fc fec5 	bl	800028c <__adddf3>
 8003502:	4606      	mov	r6, r0
 8003504:	460f      	mov	r7, r1
 8003506:	f7fd fb27 	bl	8000b58 <__aeabi_d2iz>
 800350a:	2200      	movs	r2, #0
 800350c:	4682      	mov	sl, r0
 800350e:	2300      	movs	r3, #0
 8003510:	4630      	mov	r0, r6
 8003512:	4639      	mov	r1, r7
 8003514:	f7fd fae2 	bl	8000adc <__aeabi_dcmplt>
 8003518:	b148      	cbz	r0, 800352e <_dtoa_r+0x186>
 800351a:	4650      	mov	r0, sl
 800351c:	f7fd f802 	bl	8000524 <__aeabi_i2d>
 8003520:	4632      	mov	r2, r6
 8003522:	463b      	mov	r3, r7
 8003524:	f7fd fad0 	bl	8000ac8 <__aeabi_dcmpeq>
 8003528:	b908      	cbnz	r0, 800352e <_dtoa_r+0x186>
 800352a:	f10a 3aff 	add.w	sl, sl, #4294967295
 800352e:	f1ba 0f16 	cmp.w	sl, #22
 8003532:	d854      	bhi.n	80035de <_dtoa_r+0x236>
 8003534:	4b61      	ldr	r3, [pc, #388]	; (80036bc <_dtoa_r+0x314>)
 8003536:	eb03 03ca 	add.w	r3, r3, sl, lsl #3
 800353a:	e9d3 2300 	ldrd	r2, r3, [r3]
 800353e:	e9dd 010a 	ldrd	r0, r1, [sp, #40]	; 0x28
 8003542:	f7fd facb 	bl	8000adc <__aeabi_dcmplt>
 8003546:	2800      	cmp	r0, #0
 8003548:	d04b      	beq.n	80035e2 <_dtoa_r+0x23a>
 800354a:	f10a 3aff 	add.w	sl, sl, #4294967295
 800354e:	2300      	movs	r3, #0
 8003550:	930e      	str	r3, [sp, #56]	; 0x38
 8003552:	9b12      	ldr	r3, [sp, #72]	; 0x48
 8003554:	1b5d      	subs	r5, r3, r5
 8003556:	1e6b      	subs	r3, r5, #1
 8003558:	9304      	str	r3, [sp, #16]
 800355a:	bf43      	ittte	mi
 800355c:	2300      	movmi	r3, #0
 800355e:	f1c5 0801 	rsbmi	r8, r5, #1
 8003562:	9304      	strmi	r3, [sp, #16]
 8003564:	f04f 0800 	movpl.w	r8, #0
 8003568:	f1ba 0f00 	cmp.w	sl, #0
 800356c:	db3b      	blt.n	80035e6 <_dtoa_r+0x23e>
 800356e:	9b04      	ldr	r3, [sp, #16]
 8003570:	f8cd a034 	str.w	sl, [sp, #52]	; 0x34
 8003574:	4453      	add	r3, sl
 8003576:	9304      	str	r3, [sp, #16]
 8003578:	2300      	movs	r3, #0
 800357a:	9306      	str	r3, [sp, #24]
 800357c:	9b05      	ldr	r3, [sp, #20]
 800357e:	2b09      	cmp	r3, #9
 8003580:	d869      	bhi.n	8003656 <_dtoa_r+0x2ae>
 8003582:	2b05      	cmp	r3, #5
 8003584:	bfc4      	itt	gt
 8003586:	3b04      	subgt	r3, #4
 8003588:	9305      	strgt	r3, [sp, #20]
 800358a:	9b05      	ldr	r3, [sp, #20]
 800358c:	f1a3 0302 	sub.w	r3, r3, #2
 8003590:	bfcc      	ite	gt
 8003592:	2500      	movgt	r5, #0
 8003594:	2501      	movle	r5, #1
 8003596:	2b03      	cmp	r3, #3
 8003598:	d869      	bhi.n	800366e <_dtoa_r+0x2c6>
 800359a:	e8df f003 	tbb	[pc, r3]
 800359e:	4e2c      	.short	0x4e2c
 80035a0:	5a4c      	.short	0x5a4c
 80035a2:	e9dd 5312 	ldrd	r5, r3, [sp, #72]	; 0x48
 80035a6:	441d      	add	r5, r3
 80035a8:	f205 4332 	addw	r3, r5, #1074	; 0x432
 80035ac:	2b20      	cmp	r3, #32
 80035ae:	bfc1      	itttt	gt
 80035b0:	f1c3 0340 	rsbgt	r3, r3, #64	; 0x40
 80035b4:	f205 4012 	addwgt	r0, r5, #1042	; 0x412
 80035b8:	fa09 f303 	lslgt.w	r3, r9, r3
 80035bc:	fa26 f000 	lsrgt.w	r0, r6, r0
 80035c0:	bfda      	itte	le
 80035c2:	f1c3 0320 	rsble	r3, r3, #32
 80035c6:	fa06 f003 	lslle.w	r0, r6, r3
 80035ca:	4318      	orrgt	r0, r3
 80035cc:	f7fc ff9a 	bl	8000504 <__aeabi_ui2d>
 80035d0:	2301      	movs	r3, #1
 80035d2:	4606      	mov	r6, r0
 80035d4:	f1a1 77f8 	sub.w	r7, r1, #32505856	; 0x1f00000
 80035d8:	3d01      	subs	r5, #1
 80035da:	9310      	str	r3, [sp, #64]	; 0x40
 80035dc:	e771      	b.n	80034c2 <_dtoa_r+0x11a>
 80035de:	2301      	movs	r3, #1
 80035e0:	e7b6      	b.n	8003550 <_dtoa_r+0x1a8>
 80035e2:	900e      	str	r0, [sp, #56]	; 0x38
 80035e4:	e7b5      	b.n	8003552 <_dtoa_r+0x1aa>
 80035e6:	f1ca 0300 	rsb	r3, sl, #0
 80035ea:	9306      	str	r3, [sp, #24]
 80035ec:	2300      	movs	r3, #0
 80035ee:	eba8 080a 	sub.w	r8, r8, sl
 80035f2:	930d      	str	r3, [sp, #52]	; 0x34
 80035f4:	e7c2      	b.n	800357c <_dtoa_r+0x1d4>
 80035f6:	2300      	movs	r3, #0
 80035f8:	9308      	str	r3, [sp, #32]
 80035fa:	9b09      	ldr	r3, [sp, #36]	; 0x24
 80035fc:	2b00      	cmp	r3, #0
 80035fe:	dc39      	bgt.n	8003674 <_dtoa_r+0x2cc>
 8003600:	f04f 0901 	mov.w	r9, #1
 8003604:	f8cd 9004 	str.w	r9, [sp, #4]
 8003608:	464b      	mov	r3, r9
 800360a:	f8cd 9024 	str.w	r9, [sp, #36]	; 0x24
 800360e:	6a60      	ldr	r0, [r4, #36]	; 0x24
 8003610:	2200      	movs	r2, #0
 8003612:	6042      	str	r2, [r0, #4]
 8003614:	2204      	movs	r2, #4
 8003616:	f102 0614 	add.w	r6, r2, #20
 800361a:	429e      	cmp	r6, r3
 800361c:	6841      	ldr	r1, [r0, #4]
 800361e:	d92f      	bls.n	8003680 <_dtoa_r+0x2d8>
 8003620:	4620      	mov	r0, r4
 8003622:	f000 fcb9 	bl	8003f98 <_Balloc>
 8003626:	9000      	str	r0, [sp, #0]
 8003628:	2800      	cmp	r0, #0
 800362a:	d14b      	bne.n	80036c4 <_dtoa_r+0x31c>
 800362c:	4b24      	ldr	r3, [pc, #144]	; (80036c0 <_dtoa_r+0x318>)
 800362e:	4602      	mov	r2, r0
 8003630:	f44f 71d5 	mov.w	r1, #426	; 0x1aa
 8003634:	e6d1      	b.n	80033da <_dtoa_r+0x32>
 8003636:	2301      	movs	r3, #1
 8003638:	e7de      	b.n	80035f8 <_dtoa_r+0x250>
 800363a:	2300      	movs	r3, #0
 800363c:	9308      	str	r3, [sp, #32]
 800363e:	9b09      	ldr	r3, [sp, #36]	; 0x24
 8003640:	eb0a 0903 	add.w	r9, sl, r3
 8003644:	f109 0301 	add.w	r3, r9, #1
 8003648:	2b01      	cmp	r3, #1
 800364a:	9301      	str	r3, [sp, #4]
 800364c:	bfb8      	it	lt
 800364e:	2301      	movlt	r3, #1
 8003650:	e7dd      	b.n	800360e <_dtoa_r+0x266>
 8003652:	2301      	movs	r3, #1
 8003654:	e7f2      	b.n	800363c <_dtoa_r+0x294>
 8003656:	2501      	movs	r5, #1
 8003658:	2300      	movs	r3, #0
 800365a:	9305      	str	r3, [sp, #20]
 800365c:	9508      	str	r5, [sp, #32]
 800365e:	f04f 39ff 	mov.w	r9, #4294967295
 8003662:	2200      	movs	r2, #0
 8003664:	f8cd 9004 	str.w	r9, [sp, #4]
 8003668:	2312      	movs	r3, #18
 800366a:	9209      	str	r2, [sp, #36]	; 0x24
 800366c:	e7cf      	b.n	800360e <_dtoa_r+0x266>
 800366e:	2301      	movs	r3, #1
 8003670:	9308      	str	r3, [sp, #32]
 8003672:	e7f4      	b.n	800365e <_dtoa_r+0x2b6>
 8003674:	f8dd 9024 	ldr.w	r9, [sp, #36]	; 0x24
 8003678:	f8cd 9004 	str.w	r9, [sp, #4]
 800367c:	464b      	mov	r3, r9
 800367e:	e7c6      	b.n	800360e <_dtoa_r+0x266>
 8003680:	3101      	adds	r1, #1
 8003682:	6041      	str	r1, [r0, #4]
 8003684:	0052      	lsls	r2, r2, #1
 8003686:	e7c6      	b.n	8003616 <_dtoa_r+0x26e>
 8003688:	636f4361 	.word	0x636f4361
 800368c:	3fd287a7 	.word	0x3fd287a7
 8003690:	8b60c8b3 	.word	0x8b60c8b3
 8003694:	3fc68a28 	.word	0x3fc68a28
 8003698:	509f79fb 	.word	0x509f79fb
 800369c:	3fd34413 	.word	0x3fd34413
 80036a0:	0800575d 	.word	0x0800575d
 80036a4:	08005774 	.word	0x08005774
 80036a8:	7ff00000 	.word	0x7ff00000
 80036ac:	08005759 	.word	0x08005759
 80036b0:	08005750 	.word	0x08005750
 80036b4:	0800572d 	.word	0x0800572d
 80036b8:	3ff80000 	.word	0x3ff80000
 80036bc:	08005870 	.word	0x08005870
 80036c0:	080057d3 	.word	0x080057d3
 80036c4:	6a63      	ldr	r3, [r4, #36]	; 0x24
 80036c6:	9a00      	ldr	r2, [sp, #0]
 80036c8:	601a      	str	r2, [r3, #0]
 80036ca:	9b01      	ldr	r3, [sp, #4]
 80036cc:	2b0e      	cmp	r3, #14
 80036ce:	f200 80ad 	bhi.w	800382c <_dtoa_r+0x484>
 80036d2:	2d00      	cmp	r5, #0
 80036d4:	f000 80aa 	beq.w	800382c <_dtoa_r+0x484>
 80036d8:	f1ba 0f00 	cmp.w	sl, #0
 80036dc:	dd36      	ble.n	800374c <_dtoa_r+0x3a4>
 80036de:	4ac3      	ldr	r2, [pc, #780]	; (80039ec <_dtoa_r+0x644>)
 80036e0:	f00a 030f 	and.w	r3, sl, #15
 80036e4:	eb02 03c3 	add.w	r3, r2, r3, lsl #3
 80036e8:	ed93 7b00 	vldr	d7, [r3]
 80036ec:	f41a 7f80 	tst.w	sl, #256	; 0x100
 80036f0:	ea4f 172a 	mov.w	r7, sl, asr #4
 80036f4:	eeb0 8a47 	vmov.f32	s16, s14
 80036f8:	eef0 8a67 	vmov.f32	s17, s15
 80036fc:	d016      	beq.n	800372c <_dtoa_r+0x384>
 80036fe:	4bbc      	ldr	r3, [pc, #752]	; (80039f0 <_dtoa_r+0x648>)
 8003700:	e9dd 010a 	ldrd	r0, r1, [sp, #40]	; 0x28
 8003704:	e9d3 2308 	ldrd	r2, r3, [r3, #32]
 8003708:	f7fd f8a0 	bl	800084c <__aeabi_ddiv>
 800370c:	e9cd 0102 	strd	r0, r1, [sp, #8]
 8003710:	f007 070f 	and.w	r7, r7, #15
 8003714:	2503      	movs	r5, #3
 8003716:	4eb6      	ldr	r6, [pc, #728]	; (80039f0 <_dtoa_r+0x648>)
 8003718:	b957      	cbnz	r7, 8003730 <_dtoa_r+0x388>
 800371a:	e9dd 0102 	ldrd	r0, r1, [sp, #8]
 800371e:	ec53 2b18 	vmov	r2, r3, d8
 8003722:	f7fd f893 	bl	800084c <__aeabi_ddiv>
 8003726:	e9cd 0102 	strd	r0, r1, [sp, #8]
 800372a:	e029      	b.n	8003780 <_dtoa_r+0x3d8>
 800372c:	2502      	movs	r5, #2
 800372e:	e7f2      	b.n	8003716 <_dtoa_r+0x36e>
 8003730:	07f9      	lsls	r1, r7, #31
 8003732:	d508      	bpl.n	8003746 <_dtoa_r+0x39e>
 8003734:	ec51 0b18 	vmov	r0, r1, d8
 8003738:	e9d6 2300 	ldrd	r2, r3, [r6]
 800373c:	f7fc ff5c 	bl	80005f8 <__aeabi_dmul>
 8003740:	ec41 0b18 	vmov	d8, r0, r1
 8003744:	3501      	adds	r5, #1
 8003746:	107f      	asrs	r7, r7, #1
 8003748:	3608      	adds	r6, #8
 800374a:	e7e5      	b.n	8003718 <_dtoa_r+0x370>
 800374c:	f000 80a6 	beq.w	800389c <_dtoa_r+0x4f4>
 8003750:	f1ca 0600 	rsb	r6, sl, #0
 8003754:	4ba5      	ldr	r3, [pc, #660]	; (80039ec <_dtoa_r+0x644>)
 8003756:	4fa6      	ldr	r7, [pc, #664]	; (80039f0 <_dtoa_r+0x648>)
 8003758:	f006 020f 	and.w	r2, r6, #15
 800375c:	eb03 03c2 	add.w	r3, r3, r2, lsl #3
 8003760:	e9d3 2300 	ldrd	r2, r3, [r3]
 8003764:	e9dd 010a 	ldrd	r0, r1, [sp, #40]	; 0x28
 8003768:	f7fc ff46 	bl	80005f8 <__aeabi_dmul>
 800376c:	e9cd 0102 	strd	r0, r1, [sp, #8]
 8003770:	1136      	asrs	r6, r6, #4
 8003772:	2300      	movs	r3, #0
 8003774:	2502      	movs	r5, #2
 8003776:	2e00      	cmp	r6, #0
 8003778:	f040 8085 	bne.w	8003886 <_dtoa_r+0x4de>
 800377c:	2b00      	cmp	r3, #0
 800377e:	d1d2      	bne.n	8003726 <_dtoa_r+0x37e>
 8003780:	9b0e      	ldr	r3, [sp, #56]	; 0x38
 8003782:	2b00      	cmp	r3, #0
 8003784:	f000 808c 	beq.w	80038a0 <_dtoa_r+0x4f8>
 8003788:	e9dd 6702 	ldrd	r6, r7, [sp, #8]
 800378c:	4b99      	ldr	r3, [pc, #612]	; (80039f4 <_dtoa_r+0x64c>)
 800378e:	2200      	movs	r2, #0
 8003790:	4630      	mov	r0, r6
 8003792:	4639      	mov	r1, r7
 8003794:	f7fd f9a2 	bl	8000adc <__aeabi_dcmplt>
 8003798:	2800      	cmp	r0, #0
 800379a:	f000 8081 	beq.w	80038a0 <_dtoa_r+0x4f8>
 800379e:	9b01      	ldr	r3, [sp, #4]
 80037a0:	2b00      	cmp	r3, #0
 80037a2:	d07d      	beq.n	80038a0 <_dtoa_r+0x4f8>
 80037a4:	f1b9 0f00 	cmp.w	r9, #0
 80037a8:	dd3c      	ble.n	8003824 <_dtoa_r+0x47c>
 80037aa:	f10a 33ff 	add.w	r3, sl, #4294967295
 80037ae:	9307      	str	r3, [sp, #28]
 80037b0:	2200      	movs	r2, #0
 80037b2:	4b91      	ldr	r3, [pc, #580]	; (80039f8 <_dtoa_r+0x650>)
 80037b4:	4630      	mov	r0, r6
 80037b6:	4639      	mov	r1, r7
 80037b8:	f7fc ff1e 	bl	80005f8 <__aeabi_dmul>
 80037bc:	e9cd 0102 	strd	r0, r1, [sp, #8]
 80037c0:	3501      	adds	r5, #1
 80037c2:	f8cd 9030 	str.w	r9, [sp, #48]	; 0x30
 80037c6:	e9dd 6702 	ldrd	r6, r7, [sp, #8]
 80037ca:	4628      	mov	r0, r5
 80037cc:	f7fc feaa 	bl	8000524 <__aeabi_i2d>
 80037d0:	4632      	mov	r2, r6
 80037d2:	463b      	mov	r3, r7
 80037d4:	f7fc ff10 	bl	80005f8 <__aeabi_dmul>
 80037d8:	4b88      	ldr	r3, [pc, #544]	; (80039fc <_dtoa_r+0x654>)
 80037da:	2200      	movs	r2, #0
 80037dc:	f7fc fd56 	bl	800028c <__adddf3>
 80037e0:	f1a1 7350 	sub.w	r3, r1, #54525952	; 0x3400000
 80037e4:	e9cd 0102 	strd	r0, r1, [sp, #8]
 80037e8:	9303      	str	r3, [sp, #12]
 80037ea:	9b0c      	ldr	r3, [sp, #48]	; 0x30
 80037ec:	2b00      	cmp	r3, #0
 80037ee:	d15c      	bne.n	80038aa <_dtoa_r+0x502>
 80037f0:	4b83      	ldr	r3, [pc, #524]	; (8003a00 <_dtoa_r+0x658>)
 80037f2:	2200      	movs	r2, #0
 80037f4:	4630      	mov	r0, r6
 80037f6:	4639      	mov	r1, r7
 80037f8:	f7fc fd46 	bl	8000288 <__aeabi_dsub>
 80037fc:	e9dd 2302 	ldrd	r2, r3, [sp, #8]
 8003800:	4606      	mov	r6, r0
 8003802:	460f      	mov	r7, r1
 8003804:	f7fd f988 	bl	8000b18 <__aeabi_dcmpgt>
 8003808:	2800      	cmp	r0, #0
 800380a:	f040 8296 	bne.w	8003d3a <_dtoa_r+0x992>
 800380e:	e9dd 2102 	ldrd	r2, r1, [sp, #8]
 8003812:	4630      	mov	r0, r6
 8003814:	f101 4300 	add.w	r3, r1, #2147483648	; 0x80000000
 8003818:	4639      	mov	r1, r7
 800381a:	f7fd f95f 	bl	8000adc <__aeabi_dcmplt>
 800381e:	2800      	cmp	r0, #0
 8003820:	f040 8288 	bne.w	8003d34 <_dtoa_r+0x98c>
 8003824:	e9dd 230a 	ldrd	r2, r3, [sp, #40]	; 0x28
 8003828:	e9cd 2302 	strd	r2, r3, [sp, #8]
 800382c:	9b13      	ldr	r3, [sp, #76]	; 0x4c
 800382e:	2b00      	cmp	r3, #0
 8003830:	f2c0 8158 	blt.w	8003ae4 <_dtoa_r+0x73c>
 8003834:	f1ba 0f0e 	cmp.w	sl, #14
 8003838:	f300 8154 	bgt.w	8003ae4 <_dtoa_r+0x73c>
 800383c:	4b6b      	ldr	r3, [pc, #428]	; (80039ec <_dtoa_r+0x644>)
 800383e:	eb03 03ca 	add.w	r3, r3, sl, lsl #3
 8003842:	e9d3 8900 	ldrd	r8, r9, [r3]
 8003846:	9b09      	ldr	r3, [sp, #36]	; 0x24
 8003848:	2b00      	cmp	r3, #0
 800384a:	f280 80e3 	bge.w	8003a14 <_dtoa_r+0x66c>
 800384e:	9b01      	ldr	r3, [sp, #4]
 8003850:	2b00      	cmp	r3, #0
 8003852:	f300 80df 	bgt.w	8003a14 <_dtoa_r+0x66c>
 8003856:	f040 826d 	bne.w	8003d34 <_dtoa_r+0x98c>
 800385a:	4b69      	ldr	r3, [pc, #420]	; (8003a00 <_dtoa_r+0x658>)
 800385c:	2200      	movs	r2, #0
 800385e:	4640      	mov	r0, r8
 8003860:	4649      	mov	r1, r9
 8003862:	f7fc fec9 	bl	80005f8 <__aeabi_dmul>
 8003866:	e9dd 2302 	ldrd	r2, r3, [sp, #8]
 800386a:	f7fd f94b 	bl	8000b04 <__aeabi_dcmpge>
 800386e:	9e01      	ldr	r6, [sp, #4]
 8003870:	4637      	mov	r7, r6
 8003872:	2800      	cmp	r0, #0
 8003874:	f040 8243 	bne.w	8003cfe <_dtoa_r+0x956>
 8003878:	9d00      	ldr	r5, [sp, #0]
 800387a:	2331      	movs	r3, #49	; 0x31
 800387c:	f805 3b01 	strb.w	r3, [r5], #1
 8003880:	f10a 0a01 	add.w	sl, sl, #1
 8003884:	e23f      	b.n	8003d06 <_dtoa_r+0x95e>
 8003886:	07f2      	lsls	r2, r6, #31
 8003888:	d505      	bpl.n	8003896 <_dtoa_r+0x4ee>
 800388a:	e9d7 2300 	ldrd	r2, r3, [r7]
 800388e:	f7fc feb3 	bl	80005f8 <__aeabi_dmul>
 8003892:	3501      	adds	r5, #1
 8003894:	2301      	movs	r3, #1
 8003896:	1076      	asrs	r6, r6, #1
 8003898:	3708      	adds	r7, #8
 800389a:	e76c      	b.n	8003776 <_dtoa_r+0x3ce>
 800389c:	2502      	movs	r5, #2
 800389e:	e76f      	b.n	8003780 <_dtoa_r+0x3d8>
 80038a0:	9b01      	ldr	r3, [sp, #4]
 80038a2:	f8cd a01c 	str.w	sl, [sp, #28]
 80038a6:	930c      	str	r3, [sp, #48]	; 0x30
 80038a8:	e78d      	b.n	80037c6 <_dtoa_r+0x41e>
 80038aa:	9900      	ldr	r1, [sp, #0]
 80038ac:	980c      	ldr	r0, [sp, #48]	; 0x30
 80038ae:	9a0c      	ldr	r2, [sp, #48]	; 0x30
 80038b0:	4b4e      	ldr	r3, [pc, #312]	; (80039ec <_dtoa_r+0x644>)
 80038b2:	ed9d 7b02 	vldr	d7, [sp, #8]
 80038b6:	4401      	add	r1, r0
 80038b8:	9102      	str	r1, [sp, #8]
 80038ba:	9908      	ldr	r1, [sp, #32]
 80038bc:	eeb0 8a47 	vmov.f32	s16, s14
 80038c0:	eef0 8a67 	vmov.f32	s17, s15
 80038c4:	eb03 03c2 	add.w	r3, r3, r2, lsl #3
 80038c8:	e953 2302 	ldrd	r2, r3, [r3, #-8]
 80038cc:	2900      	cmp	r1, #0
 80038ce:	d045      	beq.n	800395c <_dtoa_r+0x5b4>
 80038d0:	494c      	ldr	r1, [pc, #304]	; (8003a04 <_dtoa_r+0x65c>)
 80038d2:	2000      	movs	r0, #0
 80038d4:	f7fc ffba 	bl	800084c <__aeabi_ddiv>
 80038d8:	ec53 2b18 	vmov	r2, r3, d8
 80038dc:	f7fc fcd4 	bl	8000288 <__aeabi_dsub>
 80038e0:	9d00      	ldr	r5, [sp, #0]
 80038e2:	ec41 0b18 	vmov	d8, r0, r1
 80038e6:	4639      	mov	r1, r7
 80038e8:	4630      	mov	r0, r6
 80038ea:	f7fd f935 	bl	8000b58 <__aeabi_d2iz>
 80038ee:	900c      	str	r0, [sp, #48]	; 0x30
 80038f0:	f7fc fe18 	bl	8000524 <__aeabi_i2d>
 80038f4:	4602      	mov	r2, r0
 80038f6:	460b      	mov	r3, r1
 80038f8:	4630      	mov	r0, r6
 80038fa:	4639      	mov	r1, r7
 80038fc:	f7fc fcc4 	bl	8000288 <__aeabi_dsub>
 8003900:	9b0c      	ldr	r3, [sp, #48]	; 0x30
 8003902:	3330      	adds	r3, #48	; 0x30
 8003904:	f805 3b01 	strb.w	r3, [r5], #1
 8003908:	ec53 2b18 	vmov	r2, r3, d8
 800390c:	4606      	mov	r6, r0
 800390e:	460f      	mov	r7, r1
 8003910:	f7fd f8e4 	bl	8000adc <__aeabi_dcmplt>
 8003914:	2800      	cmp	r0, #0
 8003916:	d165      	bne.n	80039e4 <_dtoa_r+0x63c>
 8003918:	4632      	mov	r2, r6
 800391a:	463b      	mov	r3, r7
 800391c:	4935      	ldr	r1, [pc, #212]	; (80039f4 <_dtoa_r+0x64c>)
 800391e:	2000      	movs	r0, #0
 8003920:	f7fc fcb2 	bl	8000288 <__aeabi_dsub>
 8003924:	ec53 2b18 	vmov	r2, r3, d8
 8003928:	f7fd f8d8 	bl	8000adc <__aeabi_dcmplt>
 800392c:	2800      	cmp	r0, #0
 800392e:	f040 80b9 	bne.w	8003aa4 <_dtoa_r+0x6fc>
 8003932:	9b02      	ldr	r3, [sp, #8]
 8003934:	429d      	cmp	r5, r3
 8003936:	f43f af75 	beq.w	8003824 <_dtoa_r+0x47c>
 800393a:	4b2f      	ldr	r3, [pc, #188]	; (80039f8 <_dtoa_r+0x650>)
 800393c:	ec51 0b18 	vmov	r0, r1, d8
 8003940:	2200      	movs	r2, #0
 8003942:	f7fc fe59 	bl	80005f8 <__aeabi_dmul>
 8003946:	4b2c      	ldr	r3, [pc, #176]	; (80039f8 <_dtoa_r+0x650>)
 8003948:	ec41 0b18 	vmov	d8, r0, r1
 800394c:	2200      	movs	r2, #0
 800394e:	4630      	mov	r0, r6
 8003950:	4639      	mov	r1, r7
 8003952:	f7fc fe51 	bl	80005f8 <__aeabi_dmul>
 8003956:	4606      	mov	r6, r0
 8003958:	460f      	mov	r7, r1
 800395a:	e7c4      	b.n	80038e6 <_dtoa_r+0x53e>
 800395c:	ec51 0b17 	vmov	r0, r1, d7
 8003960:	f7fc fe4a 	bl	80005f8 <__aeabi_dmul>
 8003964:	9b02      	ldr	r3, [sp, #8]
 8003966:	9d00      	ldr	r5, [sp, #0]
 8003968:	930c      	str	r3, [sp, #48]	; 0x30
 800396a:	ec41 0b18 	vmov	d8, r0, r1
 800396e:	4639      	mov	r1, r7
 8003970:	4630      	mov	r0, r6
 8003972:	f7fd f8f1 	bl	8000b58 <__aeabi_d2iz>
 8003976:	9011      	str	r0, [sp, #68]	; 0x44
 8003978:	f7fc fdd4 	bl	8000524 <__aeabi_i2d>
 800397c:	4602      	mov	r2, r0
 800397e:	460b      	mov	r3, r1
 8003980:	4630      	mov	r0, r6
 8003982:	4639      	mov	r1, r7
 8003984:	f7fc fc80 	bl	8000288 <__aeabi_dsub>
 8003988:	9b11      	ldr	r3, [sp, #68]	; 0x44
 800398a:	3330      	adds	r3, #48	; 0x30
 800398c:	f805 3b01 	strb.w	r3, [r5], #1
 8003990:	9b02      	ldr	r3, [sp, #8]
 8003992:	429d      	cmp	r5, r3
 8003994:	4606      	mov	r6, r0
 8003996:	460f      	mov	r7, r1
 8003998:	f04f 0200 	mov.w	r2, #0
 800399c:	d134      	bne.n	8003a08 <_dtoa_r+0x660>
 800399e:	4b19      	ldr	r3, [pc, #100]	; (8003a04 <_dtoa_r+0x65c>)
 80039a0:	ec51 0b18 	vmov	r0, r1, d8
 80039a4:	f7fc fc72 	bl	800028c <__adddf3>
 80039a8:	4602      	mov	r2, r0
 80039aa:	460b      	mov	r3, r1
 80039ac:	4630      	mov	r0, r6
 80039ae:	4639      	mov	r1, r7
 80039b0:	f7fd f8b2 	bl	8000b18 <__aeabi_dcmpgt>
 80039b4:	2800      	cmp	r0, #0
 80039b6:	d175      	bne.n	8003aa4 <_dtoa_r+0x6fc>
 80039b8:	ec53 2b18 	vmov	r2, r3, d8
 80039bc:	4911      	ldr	r1, [pc, #68]	; (8003a04 <_dtoa_r+0x65c>)
 80039be:	2000      	movs	r0, #0
 80039c0:	f7fc fc62 	bl	8000288 <__aeabi_dsub>
 80039c4:	4602      	mov	r2, r0
 80039c6:	460b      	mov	r3, r1
 80039c8:	4630      	mov	r0, r6
 80039ca:	4639      	mov	r1, r7
 80039cc:	f7fd f886 	bl	8000adc <__aeabi_dcmplt>
 80039d0:	2800      	cmp	r0, #0
 80039d2:	f43f af27 	beq.w	8003824 <_dtoa_r+0x47c>
 80039d6:	9d0c      	ldr	r5, [sp, #48]	; 0x30
 80039d8:	1e6b      	subs	r3, r5, #1
 80039da:	930c      	str	r3, [sp, #48]	; 0x30
 80039dc:	f815 3c01 	ldrb.w	r3, [r5, #-1]
 80039e0:	2b30      	cmp	r3, #48	; 0x30
 80039e2:	d0f8      	beq.n	80039d6 <_dtoa_r+0x62e>
 80039e4:	f8dd a01c 	ldr.w	sl, [sp, #28]
 80039e8:	e04a      	b.n	8003a80 <_dtoa_r+0x6d8>
 80039ea:	bf00      	nop
 80039ec:	08005870 	.word	0x08005870
 80039f0:	08005848 	.word	0x08005848
 80039f4:	3ff00000 	.word	0x3ff00000
 80039f8:	40240000 	.word	0x40240000
 80039fc:	401c0000 	.word	0x401c0000
 8003a00:	40140000 	.word	0x40140000
 8003a04:	3fe00000 	.word	0x3fe00000
 8003a08:	4baf      	ldr	r3, [pc, #700]	; (8003cc8 <_dtoa_r+0x920>)
 8003a0a:	f7fc fdf5 	bl	80005f8 <__aeabi_dmul>
 8003a0e:	4606      	mov	r6, r0
 8003a10:	460f      	mov	r7, r1
 8003a12:	e7ac      	b.n	800396e <_dtoa_r+0x5c6>
 8003a14:	e9dd 6702 	ldrd	r6, r7, [sp, #8]
 8003a18:	9d00      	ldr	r5, [sp, #0]
 8003a1a:	4642      	mov	r2, r8
 8003a1c:	464b      	mov	r3, r9
 8003a1e:	4630      	mov	r0, r6
 8003a20:	4639      	mov	r1, r7
 8003a22:	f7fc ff13 	bl	800084c <__aeabi_ddiv>
 8003a26:	f7fd f897 	bl	8000b58 <__aeabi_d2iz>
 8003a2a:	9002      	str	r0, [sp, #8]
 8003a2c:	f7fc fd7a 	bl	8000524 <__aeabi_i2d>
 8003a30:	4642      	mov	r2, r8
 8003a32:	464b      	mov	r3, r9
 8003a34:	f7fc fde0 	bl	80005f8 <__aeabi_dmul>
 8003a38:	4602      	mov	r2, r0
 8003a3a:	460b      	mov	r3, r1
 8003a3c:	4630      	mov	r0, r6
 8003a3e:	4639      	mov	r1, r7
 8003a40:	f7fc fc22 	bl	8000288 <__aeabi_dsub>
 8003a44:	9e02      	ldr	r6, [sp, #8]
 8003a46:	9f01      	ldr	r7, [sp, #4]
 8003a48:	3630      	adds	r6, #48	; 0x30
 8003a4a:	f805 6b01 	strb.w	r6, [r5], #1
 8003a4e:	9e00      	ldr	r6, [sp, #0]
 8003a50:	1bae      	subs	r6, r5, r6
 8003a52:	42b7      	cmp	r7, r6
 8003a54:	4602      	mov	r2, r0
 8003a56:	460b      	mov	r3, r1
 8003a58:	d137      	bne.n	8003aca <_dtoa_r+0x722>
 8003a5a:	f7fc fc17 	bl	800028c <__adddf3>
 8003a5e:	4642      	mov	r2, r8
 8003a60:	464b      	mov	r3, r9
 8003a62:	4606      	mov	r6, r0
 8003a64:	460f      	mov	r7, r1
 8003a66:	f7fd f857 	bl	8000b18 <__aeabi_dcmpgt>
 8003a6a:	b9c8      	cbnz	r0, 8003aa0 <_dtoa_r+0x6f8>
 8003a6c:	4642      	mov	r2, r8
 8003a6e:	464b      	mov	r3, r9
 8003a70:	4630      	mov	r0, r6
 8003a72:	4639      	mov	r1, r7
 8003a74:	f7fd f828 	bl	8000ac8 <__aeabi_dcmpeq>
 8003a78:	b110      	cbz	r0, 8003a80 <_dtoa_r+0x6d8>
 8003a7a:	9b02      	ldr	r3, [sp, #8]
 8003a7c:	07d9      	lsls	r1, r3, #31
 8003a7e:	d40f      	bmi.n	8003aa0 <_dtoa_r+0x6f8>
 8003a80:	4620      	mov	r0, r4
 8003a82:	4659      	mov	r1, fp
 8003a84:	f000 fac8 	bl	8004018 <_Bfree>
 8003a88:	2300      	movs	r3, #0
 8003a8a:	702b      	strb	r3, [r5, #0]
 8003a8c:	9b0f      	ldr	r3, [sp, #60]	; 0x3c
 8003a8e:	f10a 0001 	add.w	r0, sl, #1
 8003a92:	6018      	str	r0, [r3, #0]
 8003a94:	9b21      	ldr	r3, [sp, #132]	; 0x84
 8003a96:	2b00      	cmp	r3, #0
 8003a98:	f43f acd8 	beq.w	800344c <_dtoa_r+0xa4>
 8003a9c:	601d      	str	r5, [r3, #0]
 8003a9e:	e4d5      	b.n	800344c <_dtoa_r+0xa4>
 8003aa0:	f8cd a01c 	str.w	sl, [sp, #28]
 8003aa4:	462b      	mov	r3, r5
 8003aa6:	461d      	mov	r5, r3
 8003aa8:	f813 2d01 	ldrb.w	r2, [r3, #-1]!
 8003aac:	2a39      	cmp	r2, #57	; 0x39
 8003aae:	d108      	bne.n	8003ac2 <_dtoa_r+0x71a>
 8003ab0:	9a00      	ldr	r2, [sp, #0]
 8003ab2:	429a      	cmp	r2, r3
 8003ab4:	d1f7      	bne.n	8003aa6 <_dtoa_r+0x6fe>
 8003ab6:	9a07      	ldr	r2, [sp, #28]
 8003ab8:	9900      	ldr	r1, [sp, #0]
 8003aba:	3201      	adds	r2, #1
 8003abc:	9207      	str	r2, [sp, #28]
 8003abe:	2230      	movs	r2, #48	; 0x30
 8003ac0:	700a      	strb	r2, [r1, #0]
 8003ac2:	781a      	ldrb	r2, [r3, #0]
 8003ac4:	3201      	adds	r2, #1
 8003ac6:	701a      	strb	r2, [r3, #0]
 8003ac8:	e78c      	b.n	80039e4 <_dtoa_r+0x63c>
 8003aca:	4b7f      	ldr	r3, [pc, #508]	; (8003cc8 <_dtoa_r+0x920>)
 8003acc:	2200      	movs	r2, #0
 8003ace:	f7fc fd93 	bl	80005f8 <__aeabi_dmul>
 8003ad2:	2200      	movs	r2, #0
 8003ad4:	2300      	movs	r3, #0
 8003ad6:	4606      	mov	r6, r0
 8003ad8:	460f      	mov	r7, r1
 8003ada:	f7fc fff5 	bl	8000ac8 <__aeabi_dcmpeq>
 8003ade:	2800      	cmp	r0, #0
 8003ae0:	d09b      	beq.n	8003a1a <_dtoa_r+0x672>
 8003ae2:	e7cd      	b.n	8003a80 <_dtoa_r+0x6d8>
 8003ae4:	9a08      	ldr	r2, [sp, #32]
 8003ae6:	2a00      	cmp	r2, #0
 8003ae8:	f000 80c4 	beq.w	8003c74 <_dtoa_r+0x8cc>
 8003aec:	9a05      	ldr	r2, [sp, #20]
 8003aee:	2a01      	cmp	r2, #1
 8003af0:	f300 80a8 	bgt.w	8003c44 <_dtoa_r+0x89c>
 8003af4:	9a10      	ldr	r2, [sp, #64]	; 0x40
 8003af6:	2a00      	cmp	r2, #0
 8003af8:	f000 80a0 	beq.w	8003c3c <_dtoa_r+0x894>
 8003afc:	f203 4333 	addw	r3, r3, #1075	; 0x433
 8003b00:	9e06      	ldr	r6, [sp, #24]
 8003b02:	4645      	mov	r5, r8
 8003b04:	9a04      	ldr	r2, [sp, #16]
 8003b06:	2101      	movs	r1, #1
 8003b08:	441a      	add	r2, r3
 8003b0a:	4620      	mov	r0, r4
 8003b0c:	4498      	add	r8, r3
 8003b0e:	9204      	str	r2, [sp, #16]
 8003b10:	f000 fb3e 	bl	8004190 <__i2b>
 8003b14:	4607      	mov	r7, r0
 8003b16:	2d00      	cmp	r5, #0
 8003b18:	dd0b      	ble.n	8003b32 <_dtoa_r+0x78a>
 8003b1a:	9b04      	ldr	r3, [sp, #16]
 8003b1c:	2b00      	cmp	r3, #0
 8003b1e:	dd08      	ble.n	8003b32 <_dtoa_r+0x78a>
 8003b20:	42ab      	cmp	r3, r5
 8003b22:	9a04      	ldr	r2, [sp, #16]
 8003b24:	bfa8      	it	ge
 8003b26:	462b      	movge	r3, r5
 8003b28:	eba8 0803 	sub.w	r8, r8, r3
 8003b2c:	1aed      	subs	r5, r5, r3
 8003b2e:	1ad3      	subs	r3, r2, r3
 8003b30:	9304      	str	r3, [sp, #16]
 8003b32:	9b06      	ldr	r3, [sp, #24]
 8003b34:	b1fb      	cbz	r3, 8003b76 <_dtoa_r+0x7ce>
 8003b36:	9b08      	ldr	r3, [sp, #32]
 8003b38:	2b00      	cmp	r3, #0
 8003b3a:	f000 809f 	beq.w	8003c7c <_dtoa_r+0x8d4>
 8003b3e:	2e00      	cmp	r6, #0
 8003b40:	dd11      	ble.n	8003b66 <_dtoa_r+0x7be>
 8003b42:	4639      	mov	r1, r7
 8003b44:	4632      	mov	r2, r6
 8003b46:	4620      	mov	r0, r4
 8003b48:	f000 fbde 	bl	8004308 <__pow5mult>
 8003b4c:	465a      	mov	r2, fp
 8003b4e:	4601      	mov	r1, r0
 8003b50:	4607      	mov	r7, r0
 8003b52:	4620      	mov	r0, r4
 8003b54:	f000 fb32 	bl	80041bc <__multiply>
 8003b58:	4659      	mov	r1, fp
 8003b5a:	9007      	str	r0, [sp, #28]
 8003b5c:	4620      	mov	r0, r4
 8003b5e:	f000 fa5b 	bl	8004018 <_Bfree>
 8003b62:	9b07      	ldr	r3, [sp, #28]
 8003b64:	469b      	mov	fp, r3
 8003b66:	9b06      	ldr	r3, [sp, #24]
 8003b68:	1b9a      	subs	r2, r3, r6
 8003b6a:	d004      	beq.n	8003b76 <_dtoa_r+0x7ce>
 8003b6c:	4659      	mov	r1, fp
 8003b6e:	4620      	mov	r0, r4
 8003b70:	f000 fbca 	bl	8004308 <__pow5mult>
 8003b74:	4683      	mov	fp, r0
 8003b76:	2101      	movs	r1, #1
 8003b78:	4620      	mov	r0, r4
 8003b7a:	f000 fb09 	bl	8004190 <__i2b>
 8003b7e:	9b0d      	ldr	r3, [sp, #52]	; 0x34
 8003b80:	2b00      	cmp	r3, #0
 8003b82:	4606      	mov	r6, r0
 8003b84:	dd7c      	ble.n	8003c80 <_dtoa_r+0x8d8>
 8003b86:	461a      	mov	r2, r3
 8003b88:	4601      	mov	r1, r0
 8003b8a:	4620      	mov	r0, r4
 8003b8c:	f000 fbbc 	bl	8004308 <__pow5mult>
 8003b90:	9b05      	ldr	r3, [sp, #20]
 8003b92:	2b01      	cmp	r3, #1
 8003b94:	4606      	mov	r6, r0
 8003b96:	dd76      	ble.n	8003c86 <_dtoa_r+0x8de>
 8003b98:	2300      	movs	r3, #0
 8003b9a:	9306      	str	r3, [sp, #24]
 8003b9c:	6933      	ldr	r3, [r6, #16]
 8003b9e:	eb06 0383 	add.w	r3, r6, r3, lsl #2
 8003ba2:	6918      	ldr	r0, [r3, #16]
 8003ba4:	f000 faa4 	bl	80040f0 <__hi0bits>
 8003ba8:	f1c0 0020 	rsb	r0, r0, #32
 8003bac:	9b04      	ldr	r3, [sp, #16]
 8003bae:	4418      	add	r0, r3
 8003bb0:	f010 001f 	ands.w	r0, r0, #31
 8003bb4:	f000 8086 	beq.w	8003cc4 <_dtoa_r+0x91c>
 8003bb8:	f1c0 0320 	rsb	r3, r0, #32
 8003bbc:	2b04      	cmp	r3, #4
 8003bbe:	dd7f      	ble.n	8003cc0 <_dtoa_r+0x918>
 8003bc0:	f1c0 001c 	rsb	r0, r0, #28
 8003bc4:	9b04      	ldr	r3, [sp, #16]
 8003bc6:	4403      	add	r3, r0
 8003bc8:	4480      	add	r8, r0
 8003bca:	4405      	add	r5, r0
 8003bcc:	9304      	str	r3, [sp, #16]
 8003bce:	f1b8 0f00 	cmp.w	r8, #0
 8003bd2:	dd05      	ble.n	8003be0 <_dtoa_r+0x838>
 8003bd4:	4659      	mov	r1, fp
 8003bd6:	4642      	mov	r2, r8
 8003bd8:	4620      	mov	r0, r4
 8003bda:	f000 fbef 	bl	80043bc <__lshift>
 8003bde:	4683      	mov	fp, r0
 8003be0:	9b04      	ldr	r3, [sp, #16]
 8003be2:	2b00      	cmp	r3, #0
 8003be4:	dd05      	ble.n	8003bf2 <_dtoa_r+0x84a>
 8003be6:	4631      	mov	r1, r6
 8003be8:	461a      	mov	r2, r3
 8003bea:	4620      	mov	r0, r4
 8003bec:	f000 fbe6 	bl	80043bc <__lshift>
 8003bf0:	4606      	mov	r6, r0
 8003bf2:	9b0e      	ldr	r3, [sp, #56]	; 0x38
 8003bf4:	2b00      	cmp	r3, #0
 8003bf6:	d069      	beq.n	8003ccc <_dtoa_r+0x924>
 8003bf8:	4631      	mov	r1, r6
 8003bfa:	4658      	mov	r0, fp
 8003bfc:	f000 fc4a 	bl	8004494 <__mcmp>
 8003c00:	2800      	cmp	r0, #0
 8003c02:	da63      	bge.n	8003ccc <_dtoa_r+0x924>
 8003c04:	2300      	movs	r3, #0
 8003c06:	4659      	mov	r1, fp
 8003c08:	220a      	movs	r2, #10
 8003c0a:	4620      	mov	r0, r4
 8003c0c:	f000 fa26 	bl	800405c <__multadd>
 8003c10:	9b08      	ldr	r3, [sp, #32]
 8003c12:	f10a 3aff 	add.w	sl, sl, #4294967295
 8003c16:	4683      	mov	fp, r0
 8003c18:	2b00      	cmp	r3, #0
 8003c1a:	f000 818f 	beq.w	8003f3c <_dtoa_r+0xb94>
 8003c1e:	4639      	mov	r1, r7
 8003c20:	2300      	movs	r3, #0
 8003c22:	220a      	movs	r2, #10
 8003c24:	4620      	mov	r0, r4
 8003c26:	f000 fa19 	bl	800405c <__multadd>
 8003c2a:	f1b9 0f00 	cmp.w	r9, #0
 8003c2e:	4607      	mov	r7, r0
 8003c30:	f300 808e 	bgt.w	8003d50 <_dtoa_r+0x9a8>
 8003c34:	9b05      	ldr	r3, [sp, #20]
 8003c36:	2b02      	cmp	r3, #2
 8003c38:	dc50      	bgt.n	8003cdc <_dtoa_r+0x934>
 8003c3a:	e089      	b.n	8003d50 <_dtoa_r+0x9a8>
 8003c3c:	9b12      	ldr	r3, [sp, #72]	; 0x48
 8003c3e:	f1c3 0336 	rsb	r3, r3, #54	; 0x36
 8003c42:	e75d      	b.n	8003b00 <_dtoa_r+0x758>
 8003c44:	9b01      	ldr	r3, [sp, #4]
 8003c46:	1e5e      	subs	r6, r3, #1
 8003c48:	9b06      	ldr	r3, [sp, #24]
 8003c4a:	42b3      	cmp	r3, r6
 8003c4c:	bfbf      	itttt	lt
 8003c4e:	9b06      	ldrlt	r3, [sp, #24]
 8003c50:	9606      	strlt	r6, [sp, #24]
 8003c52:	1af2      	sublt	r2, r6, r3
 8003c54:	9b0d      	ldrlt	r3, [sp, #52]	; 0x34
 8003c56:	bfb6      	itet	lt
 8003c58:	189b      	addlt	r3, r3, r2
 8003c5a:	1b9e      	subge	r6, r3, r6
 8003c5c:	930d      	strlt	r3, [sp, #52]	; 0x34
 8003c5e:	9b01      	ldr	r3, [sp, #4]
 8003c60:	bfb8      	it	lt
 8003c62:	2600      	movlt	r6, #0
 8003c64:	2b00      	cmp	r3, #0
 8003c66:	bfb5      	itete	lt
 8003c68:	eba8 0503 	sublt.w	r5, r8, r3
 8003c6c:	9b01      	ldrge	r3, [sp, #4]
 8003c6e:	2300      	movlt	r3, #0
 8003c70:	4645      	movge	r5, r8
 8003c72:	e747      	b.n	8003b04 <_dtoa_r+0x75c>
 8003c74:	9e06      	ldr	r6, [sp, #24]
 8003c76:	9f08      	ldr	r7, [sp, #32]
 8003c78:	4645      	mov	r5, r8
 8003c7a:	e74c      	b.n	8003b16 <_dtoa_r+0x76e>
 8003c7c:	9a06      	ldr	r2, [sp, #24]
 8003c7e:	e775      	b.n	8003b6c <_dtoa_r+0x7c4>
 8003c80:	9b05      	ldr	r3, [sp, #20]
 8003c82:	2b01      	cmp	r3, #1
 8003c84:	dc18      	bgt.n	8003cb8 <_dtoa_r+0x910>
 8003c86:	9b02      	ldr	r3, [sp, #8]
 8003c88:	b9b3      	cbnz	r3, 8003cb8 <_dtoa_r+0x910>
 8003c8a:	9b03      	ldr	r3, [sp, #12]
 8003c8c:	f3c3 0313 	ubfx	r3, r3, #0, #20
 8003c90:	b9a3      	cbnz	r3, 8003cbc <_dtoa_r+0x914>
 8003c92:	9b03      	ldr	r3, [sp, #12]
 8003c94:	f023 4300 	bic.w	r3, r3, #2147483648	; 0x80000000
 8003c98:	0d1b      	lsrs	r3, r3, #20
 8003c9a:	051b      	lsls	r3, r3, #20
 8003c9c:	b12b      	cbz	r3, 8003caa <_dtoa_r+0x902>
 8003c9e:	9b04      	ldr	r3, [sp, #16]
 8003ca0:	3301      	adds	r3, #1
 8003ca2:	9304      	str	r3, [sp, #16]
 8003ca4:	f108 0801 	add.w	r8, r8, #1
 8003ca8:	2301      	movs	r3, #1
 8003caa:	9306      	str	r3, [sp, #24]
 8003cac:	9b0d      	ldr	r3, [sp, #52]	; 0x34
 8003cae:	2b00      	cmp	r3, #0
 8003cb0:	f47f af74 	bne.w	8003b9c <_dtoa_r+0x7f4>
 8003cb4:	2001      	movs	r0, #1
 8003cb6:	e779      	b.n	8003bac <_dtoa_r+0x804>
 8003cb8:	2300      	movs	r3, #0
 8003cba:	e7f6      	b.n	8003caa <_dtoa_r+0x902>
 8003cbc:	9b02      	ldr	r3, [sp, #8]
 8003cbe:	e7f4      	b.n	8003caa <_dtoa_r+0x902>
 8003cc0:	d085      	beq.n	8003bce <_dtoa_r+0x826>
 8003cc2:	4618      	mov	r0, r3
 8003cc4:	301c      	adds	r0, #28
 8003cc6:	e77d      	b.n	8003bc4 <_dtoa_r+0x81c>
 8003cc8:	40240000 	.word	0x40240000
 8003ccc:	9b01      	ldr	r3, [sp, #4]
 8003cce:	2b00      	cmp	r3, #0
 8003cd0:	dc38      	bgt.n	8003d44 <_dtoa_r+0x99c>
 8003cd2:	9b05      	ldr	r3, [sp, #20]
 8003cd4:	2b02      	cmp	r3, #2
 8003cd6:	dd35      	ble.n	8003d44 <_dtoa_r+0x99c>
 8003cd8:	f8dd 9004 	ldr.w	r9, [sp, #4]
 8003cdc:	f1b9 0f00 	cmp.w	r9, #0
 8003ce0:	d10d      	bne.n	8003cfe <_dtoa_r+0x956>
 8003ce2:	4631      	mov	r1, r6
 8003ce4:	464b      	mov	r3, r9
 8003ce6:	2205      	movs	r2, #5
 8003ce8:	4620      	mov	r0, r4
 8003cea:	f000 f9b7 	bl	800405c <__multadd>
 8003cee:	4601      	mov	r1, r0
 8003cf0:	4606      	mov	r6, r0
 8003cf2:	4658      	mov	r0, fp
 8003cf4:	f000 fbce 	bl	8004494 <__mcmp>
 8003cf8:	2800      	cmp	r0, #0
 8003cfa:	f73f adbd 	bgt.w	8003878 <_dtoa_r+0x4d0>
 8003cfe:	9b09      	ldr	r3, [sp, #36]	; 0x24
 8003d00:	9d00      	ldr	r5, [sp, #0]
 8003d02:	ea6f 0a03 	mvn.w	sl, r3
 8003d06:	f04f 0800 	mov.w	r8, #0
 8003d0a:	4631      	mov	r1, r6
 8003d0c:	4620      	mov	r0, r4
 8003d0e:	f000 f983 	bl	8004018 <_Bfree>
 8003d12:	2f00      	cmp	r7, #0
 8003d14:	f43f aeb4 	beq.w	8003a80 <_dtoa_r+0x6d8>
 8003d18:	f1b8 0f00 	cmp.w	r8, #0
 8003d1c:	d005      	beq.n	8003d2a <_dtoa_r+0x982>
 8003d1e:	45b8      	cmp	r8, r7
 8003d20:	d003      	beq.n	8003d2a <_dtoa_r+0x982>
 8003d22:	4641      	mov	r1, r8
 8003d24:	4620      	mov	r0, r4
 8003d26:	f000 f977 	bl	8004018 <_Bfree>
 8003d2a:	4639      	mov	r1, r7
 8003d2c:	4620      	mov	r0, r4
 8003d2e:	f000 f973 	bl	8004018 <_Bfree>
 8003d32:	e6a5      	b.n	8003a80 <_dtoa_r+0x6d8>
 8003d34:	2600      	movs	r6, #0
 8003d36:	4637      	mov	r7, r6
 8003d38:	e7e1      	b.n	8003cfe <_dtoa_r+0x956>
 8003d3a:	9e0c      	ldr	r6, [sp, #48]	; 0x30
 8003d3c:	f8dd a01c 	ldr.w	sl, [sp, #28]
 8003d40:	4637      	mov	r7, r6
 8003d42:	e599      	b.n	8003878 <_dtoa_r+0x4d0>
 8003d44:	9b08      	ldr	r3, [sp, #32]
 8003d46:	f8dd 9004 	ldr.w	r9, [sp, #4]
 8003d4a:	2b00      	cmp	r3, #0
 8003d4c:	f000 80fd 	beq.w	8003f4a <_dtoa_r+0xba2>
 8003d50:	2d00      	cmp	r5, #0
 8003d52:	dd05      	ble.n	8003d60 <_dtoa_r+0x9b8>
 8003d54:	4639      	mov	r1, r7
 8003d56:	462a      	mov	r2, r5
 8003d58:	4620      	mov	r0, r4
 8003d5a:	f000 fb2f 	bl	80043bc <__lshift>
 8003d5e:	4607      	mov	r7, r0
 8003d60:	9b06      	ldr	r3, [sp, #24]
 8003d62:	2b00      	cmp	r3, #0
 8003d64:	d05c      	beq.n	8003e20 <_dtoa_r+0xa78>
 8003d66:	6879      	ldr	r1, [r7, #4]
 8003d68:	4620      	mov	r0, r4
 8003d6a:	f000 f915 	bl	8003f98 <_Balloc>
 8003d6e:	4605      	mov	r5, r0
 8003d70:	b928      	cbnz	r0, 8003d7e <_dtoa_r+0x9d6>
 8003d72:	4b80      	ldr	r3, [pc, #512]	; (8003f74 <_dtoa_r+0xbcc>)
 8003d74:	4602      	mov	r2, r0
 8003d76:	f240 21ea 	movw	r1, #746	; 0x2ea
 8003d7a:	f7ff bb2e 	b.w	80033da <_dtoa_r+0x32>
 8003d7e:	693a      	ldr	r2, [r7, #16]
 8003d80:	3202      	adds	r2, #2
 8003d82:	0092      	lsls	r2, r2, #2
 8003d84:	f107 010c 	add.w	r1, r7, #12
 8003d88:	300c      	adds	r0, #12
 8003d8a:	f7fe fde1 	bl	8002950 <memcpy>
 8003d8e:	2201      	movs	r2, #1
 8003d90:	4629      	mov	r1, r5
 8003d92:	4620      	mov	r0, r4
 8003d94:	f000 fb12 	bl	80043bc <__lshift>
 8003d98:	9b00      	ldr	r3, [sp, #0]
 8003d9a:	3301      	adds	r3, #1
 8003d9c:	9301      	str	r3, [sp, #4]
 8003d9e:	9b00      	ldr	r3, [sp, #0]
 8003da0:	444b      	add	r3, r9
 8003da2:	9307      	str	r3, [sp, #28]
 8003da4:	9b02      	ldr	r3, [sp, #8]
 8003da6:	f003 0301 	and.w	r3, r3, #1
 8003daa:	46b8      	mov	r8, r7
 8003dac:	9306      	str	r3, [sp, #24]
 8003dae:	4607      	mov	r7, r0
 8003db0:	9b01      	ldr	r3, [sp, #4]
 8003db2:	4631      	mov	r1, r6
 8003db4:	3b01      	subs	r3, #1
 8003db6:	4658      	mov	r0, fp
 8003db8:	9302      	str	r3, [sp, #8]
 8003dba:	f7ff fa69 	bl	8003290 <quorem>
 8003dbe:	4603      	mov	r3, r0
 8003dc0:	3330      	adds	r3, #48	; 0x30
 8003dc2:	9004      	str	r0, [sp, #16]
 8003dc4:	4641      	mov	r1, r8
 8003dc6:	4658      	mov	r0, fp
 8003dc8:	9308      	str	r3, [sp, #32]
 8003dca:	f000 fb63 	bl	8004494 <__mcmp>
 8003dce:	463a      	mov	r2, r7
 8003dd0:	4681      	mov	r9, r0
 8003dd2:	4631      	mov	r1, r6
 8003dd4:	4620      	mov	r0, r4
 8003dd6:	f000 fb79 	bl	80044cc <__mdiff>
 8003dda:	68c2      	ldr	r2, [r0, #12]
 8003ddc:	9b08      	ldr	r3, [sp, #32]
 8003dde:	4605      	mov	r5, r0
 8003de0:	bb02      	cbnz	r2, 8003e24 <_dtoa_r+0xa7c>
 8003de2:	4601      	mov	r1, r0
 8003de4:	4658      	mov	r0, fp
 8003de6:	f000 fb55 	bl	8004494 <__mcmp>
 8003dea:	9b08      	ldr	r3, [sp, #32]
 8003dec:	4602      	mov	r2, r0
 8003dee:	4629      	mov	r1, r5
 8003df0:	4620      	mov	r0, r4
 8003df2:	e9cd 3208 	strd	r3, r2, [sp, #32]
 8003df6:	f000 f90f 	bl	8004018 <_Bfree>
 8003dfa:	9b05      	ldr	r3, [sp, #20]
 8003dfc:	9a09      	ldr	r2, [sp, #36]	; 0x24
 8003dfe:	9d01      	ldr	r5, [sp, #4]
 8003e00:	ea43 0102 	orr.w	r1, r3, r2
 8003e04:	9b06      	ldr	r3, [sp, #24]
 8003e06:	430b      	orrs	r3, r1
 8003e08:	9b08      	ldr	r3, [sp, #32]
 8003e0a:	d10d      	bne.n	8003e28 <_dtoa_r+0xa80>
 8003e0c:	2b39      	cmp	r3, #57	; 0x39
 8003e0e:	d029      	beq.n	8003e64 <_dtoa_r+0xabc>
 8003e10:	f1b9 0f00 	cmp.w	r9, #0
 8003e14:	dd01      	ble.n	8003e1a <_dtoa_r+0xa72>
 8003e16:	9b04      	ldr	r3, [sp, #16]
 8003e18:	3331      	adds	r3, #49	; 0x31
 8003e1a:	9a02      	ldr	r2, [sp, #8]
 8003e1c:	7013      	strb	r3, [r2, #0]
 8003e1e:	e774      	b.n	8003d0a <_dtoa_r+0x962>
 8003e20:	4638      	mov	r0, r7
 8003e22:	e7b9      	b.n	8003d98 <_dtoa_r+0x9f0>
 8003e24:	2201      	movs	r2, #1
 8003e26:	e7e2      	b.n	8003dee <_dtoa_r+0xa46>
 8003e28:	f1b9 0f00 	cmp.w	r9, #0
 8003e2c:	db06      	blt.n	8003e3c <_dtoa_r+0xa94>
 8003e2e:	9905      	ldr	r1, [sp, #20]
 8003e30:	ea41 0909 	orr.w	r9, r1, r9
 8003e34:	9906      	ldr	r1, [sp, #24]
 8003e36:	ea59 0101 	orrs.w	r1, r9, r1
 8003e3a:	d120      	bne.n	8003e7e <_dtoa_r+0xad6>
 8003e3c:	2a00      	cmp	r2, #0
 8003e3e:	ddec      	ble.n	8003e1a <_dtoa_r+0xa72>
 8003e40:	4659      	mov	r1, fp
 8003e42:	2201      	movs	r2, #1
 8003e44:	4620      	mov	r0, r4
 8003e46:	9301      	str	r3, [sp, #4]
 8003e48:	f000 fab8 	bl	80043bc <__lshift>
 8003e4c:	4631      	mov	r1, r6
 8003e4e:	4683      	mov	fp, r0
 8003e50:	f000 fb20 	bl	8004494 <__mcmp>
 8003e54:	2800      	cmp	r0, #0
 8003e56:	9b01      	ldr	r3, [sp, #4]
 8003e58:	dc02      	bgt.n	8003e60 <_dtoa_r+0xab8>
 8003e5a:	d1de      	bne.n	8003e1a <_dtoa_r+0xa72>
 8003e5c:	07da      	lsls	r2, r3, #31
 8003e5e:	d5dc      	bpl.n	8003e1a <_dtoa_r+0xa72>
 8003e60:	2b39      	cmp	r3, #57	; 0x39
 8003e62:	d1d8      	bne.n	8003e16 <_dtoa_r+0xa6e>
 8003e64:	9a02      	ldr	r2, [sp, #8]
 8003e66:	2339      	movs	r3, #57	; 0x39
 8003e68:	7013      	strb	r3, [r2, #0]
 8003e6a:	462b      	mov	r3, r5
 8003e6c:	461d      	mov	r5, r3
 8003e6e:	3b01      	subs	r3, #1
 8003e70:	f815 2c01 	ldrb.w	r2, [r5, #-1]
 8003e74:	2a39      	cmp	r2, #57	; 0x39
 8003e76:	d050      	beq.n	8003f1a <_dtoa_r+0xb72>
 8003e78:	3201      	adds	r2, #1
 8003e7a:	701a      	strb	r2, [r3, #0]
 8003e7c:	e745      	b.n	8003d0a <_dtoa_r+0x962>
 8003e7e:	2a00      	cmp	r2, #0
 8003e80:	dd03      	ble.n	8003e8a <_dtoa_r+0xae2>
 8003e82:	2b39      	cmp	r3, #57	; 0x39
 8003e84:	d0ee      	beq.n	8003e64 <_dtoa_r+0xabc>
 8003e86:	3301      	adds	r3, #1
 8003e88:	e7c7      	b.n	8003e1a <_dtoa_r+0xa72>
 8003e8a:	9a01      	ldr	r2, [sp, #4]
 8003e8c:	9907      	ldr	r1, [sp, #28]
 8003e8e:	f802 3c01 	strb.w	r3, [r2, #-1]
 8003e92:	428a      	cmp	r2, r1
 8003e94:	d02a      	beq.n	8003eec <_dtoa_r+0xb44>
 8003e96:	4659      	mov	r1, fp
 8003e98:	2300      	movs	r3, #0
 8003e9a:	220a      	movs	r2, #10
 8003e9c:	4620      	mov	r0, r4
 8003e9e:	f000 f8dd 	bl	800405c <__multadd>
 8003ea2:	45b8      	cmp	r8, r7
 8003ea4:	4683      	mov	fp, r0
 8003ea6:	f04f 0300 	mov.w	r3, #0
 8003eaa:	f04f 020a 	mov.w	r2, #10
 8003eae:	4641      	mov	r1, r8
 8003eb0:	4620      	mov	r0, r4
 8003eb2:	d107      	bne.n	8003ec4 <_dtoa_r+0xb1c>
 8003eb4:	f000 f8d2 	bl	800405c <__multadd>
 8003eb8:	4680      	mov	r8, r0
 8003eba:	4607      	mov	r7, r0
 8003ebc:	9b01      	ldr	r3, [sp, #4]
 8003ebe:	3301      	adds	r3, #1
 8003ec0:	9301      	str	r3, [sp, #4]
 8003ec2:	e775      	b.n	8003db0 <_dtoa_r+0xa08>
 8003ec4:	f000 f8ca 	bl	800405c <__multadd>
 8003ec8:	4639      	mov	r1, r7
 8003eca:	4680      	mov	r8, r0
 8003ecc:	2300      	movs	r3, #0
 8003ece:	220a      	movs	r2, #10
 8003ed0:	4620      	mov	r0, r4
 8003ed2:	f000 f8c3 	bl	800405c <__multadd>
 8003ed6:	4607      	mov	r7, r0
 8003ed8:	e7f0      	b.n	8003ebc <_dtoa_r+0xb14>
 8003eda:	f1b9 0f00 	cmp.w	r9, #0
 8003ede:	9a00      	ldr	r2, [sp, #0]
 8003ee0:	bfcc      	ite	gt
 8003ee2:	464d      	movgt	r5, r9
 8003ee4:	2501      	movle	r5, #1
 8003ee6:	4415      	add	r5, r2
 8003ee8:	f04f 0800 	mov.w	r8, #0
 8003eec:	4659      	mov	r1, fp
 8003eee:	2201      	movs	r2, #1
 8003ef0:	4620      	mov	r0, r4
 8003ef2:	9301      	str	r3, [sp, #4]
 8003ef4:	f000 fa62 	bl	80043bc <__lshift>
 8003ef8:	4631      	mov	r1, r6
 8003efa:	4683      	mov	fp, r0
 8003efc:	f000 faca 	bl	8004494 <__mcmp>
 8003f00:	2800      	cmp	r0, #0
 8003f02:	dcb2      	bgt.n	8003e6a <_dtoa_r+0xac2>
 8003f04:	d102      	bne.n	8003f0c <_dtoa_r+0xb64>
 8003f06:	9b01      	ldr	r3, [sp, #4]
 8003f08:	07db      	lsls	r3, r3, #31
 8003f0a:	d4ae      	bmi.n	8003e6a <_dtoa_r+0xac2>
 8003f0c:	462b      	mov	r3, r5
 8003f0e:	461d      	mov	r5, r3
 8003f10:	f813 2d01 	ldrb.w	r2, [r3, #-1]!
 8003f14:	2a30      	cmp	r2, #48	; 0x30
 8003f16:	d0fa      	beq.n	8003f0e <_dtoa_r+0xb66>
 8003f18:	e6f7      	b.n	8003d0a <_dtoa_r+0x962>
 8003f1a:	9a00      	ldr	r2, [sp, #0]
 8003f1c:	429a      	cmp	r2, r3
 8003f1e:	d1a5      	bne.n	8003e6c <_dtoa_r+0xac4>
 8003f20:	f10a 0a01 	add.w	sl, sl, #1
 8003f24:	2331      	movs	r3, #49	; 0x31
 8003f26:	e779      	b.n	8003e1c <_dtoa_r+0xa74>
 8003f28:	4b13      	ldr	r3, [pc, #76]	; (8003f78 <_dtoa_r+0xbd0>)
 8003f2a:	f7ff baaf 	b.w	800348c <_dtoa_r+0xe4>
 8003f2e:	9b21      	ldr	r3, [sp, #132]	; 0x84
 8003f30:	2b00      	cmp	r3, #0
 8003f32:	f47f aa86 	bne.w	8003442 <_dtoa_r+0x9a>
 8003f36:	4b11      	ldr	r3, [pc, #68]	; (8003f7c <_dtoa_r+0xbd4>)
 8003f38:	f7ff baa8 	b.w	800348c <_dtoa_r+0xe4>
 8003f3c:	f1b9 0f00 	cmp.w	r9, #0
 8003f40:	dc03      	bgt.n	8003f4a <_dtoa_r+0xba2>
 8003f42:	9b05      	ldr	r3, [sp, #20]
 8003f44:	2b02      	cmp	r3, #2
 8003f46:	f73f aec9 	bgt.w	8003cdc <_dtoa_r+0x934>
 8003f4a:	9d00      	ldr	r5, [sp, #0]
 8003f4c:	4631      	mov	r1, r6
 8003f4e:	4658      	mov	r0, fp
 8003f50:	f7ff f99e 	bl	8003290 <quorem>
 8003f54:	f100 0330 	add.w	r3, r0, #48	; 0x30
 8003f58:	f805 3b01 	strb.w	r3, [r5], #1
 8003f5c:	9a00      	ldr	r2, [sp, #0]
 8003f5e:	1aaa      	subs	r2, r5, r2
 8003f60:	4591      	cmp	r9, r2
 8003f62:	ddba      	ble.n	8003eda <_dtoa_r+0xb32>
 8003f64:	4659      	mov	r1, fp
 8003f66:	2300      	movs	r3, #0
 8003f68:	220a      	movs	r2, #10
 8003f6a:	4620      	mov	r0, r4
 8003f6c:	f000 f876 	bl	800405c <__multadd>
 8003f70:	4683      	mov	fp, r0
 8003f72:	e7eb      	b.n	8003f4c <_dtoa_r+0xba4>
 8003f74:	080057d3 	.word	0x080057d3
 8003f78:	0800572c 	.word	0x0800572c
 8003f7c:	08005750 	.word	0x08005750

08003f80 <_localeconv_r>:
 8003f80:	4800      	ldr	r0, [pc, #0]	; (8003f84 <_localeconv_r+0x4>)
 8003f82:	4770      	bx	lr
 8003f84:	20000158 	.word	0x20000158

08003f88 <malloc>:
 8003f88:	4b02      	ldr	r3, [pc, #8]	; (8003f94 <malloc+0xc>)
 8003f8a:	4601      	mov	r1, r0
 8003f8c:	6818      	ldr	r0, [r3, #0]
 8003f8e:	f000 bbe1 	b.w	8004754 <_malloc_r>
 8003f92:	bf00      	nop
 8003f94:	20000004 	.word	0x20000004

08003f98 <_Balloc>:
 8003f98:	b570      	push	{r4, r5, r6, lr}
 8003f9a:	6a46      	ldr	r6, [r0, #36]	; 0x24
 8003f9c:	4604      	mov	r4, r0
 8003f9e:	460d      	mov	r5, r1
 8003fa0:	b976      	cbnz	r6, 8003fc0 <_Balloc+0x28>
 8003fa2:	2010      	movs	r0, #16
 8003fa4:	f7ff fff0 	bl	8003f88 <malloc>
 8003fa8:	4602      	mov	r2, r0
 8003faa:	6260      	str	r0, [r4, #36]	; 0x24
 8003fac:	b920      	cbnz	r0, 8003fb8 <_Balloc+0x20>
 8003fae:	4b18      	ldr	r3, [pc, #96]	; (8004010 <_Balloc+0x78>)
 8003fb0:	4818      	ldr	r0, [pc, #96]	; (8004014 <_Balloc+0x7c>)
 8003fb2:	2166      	movs	r1, #102	; 0x66
 8003fb4:	f000 fd94 	bl	8004ae0 <__assert_func>
 8003fb8:	e9c0 6601 	strd	r6, r6, [r0, #4]
 8003fbc:	6006      	str	r6, [r0, #0]
 8003fbe:	60c6      	str	r6, [r0, #12]
 8003fc0:	6a66      	ldr	r6, [r4, #36]	; 0x24
 8003fc2:	68f3      	ldr	r3, [r6, #12]
 8003fc4:	b183      	cbz	r3, 8003fe8 <_Balloc+0x50>
 8003fc6:	6a63      	ldr	r3, [r4, #36]	; 0x24
 8003fc8:	68db      	ldr	r3, [r3, #12]
 8003fca:	f853 0025 	ldr.w	r0, [r3, r5, lsl #2]
 8003fce:	b9b8      	cbnz	r0, 8004000 <_Balloc+0x68>
 8003fd0:	2101      	movs	r1, #1
 8003fd2:	fa01 f605 	lsl.w	r6, r1, r5
 8003fd6:	1d72      	adds	r2, r6, #5
 8003fd8:	0092      	lsls	r2, r2, #2
 8003fda:	4620      	mov	r0, r4
 8003fdc:	f000 fb5a 	bl	8004694 <_calloc_r>
 8003fe0:	b160      	cbz	r0, 8003ffc <_Balloc+0x64>
 8003fe2:	e9c0 5601 	strd	r5, r6, [r0, #4]
 8003fe6:	e00e      	b.n	8004006 <_Balloc+0x6e>
 8003fe8:	2221      	movs	r2, #33	; 0x21
 8003fea:	2104      	movs	r1, #4
 8003fec:	4620      	mov	r0, r4
 8003fee:	f000 fb51 	bl	8004694 <_calloc_r>
 8003ff2:	6a63      	ldr	r3, [r4, #36]	; 0x24
 8003ff4:	60f0      	str	r0, [r6, #12]
 8003ff6:	68db      	ldr	r3, [r3, #12]
 8003ff8:	2b00      	cmp	r3, #0
 8003ffa:	d1e4      	bne.n	8003fc6 <_Balloc+0x2e>
 8003ffc:	2000      	movs	r0, #0
 8003ffe:	bd70      	pop	{r4, r5, r6, pc}
 8004000:	6802      	ldr	r2, [r0, #0]
 8004002:	f843 2025 	str.w	r2, [r3, r5, lsl #2]
 8004006:	2300      	movs	r3, #0
 8004008:	e9c0 3303 	strd	r3, r3, [r0, #12]
 800400c:	e7f7      	b.n	8003ffe <_Balloc+0x66>
 800400e:	bf00      	nop
 8004010:	0800575d 	.word	0x0800575d
 8004014:	080057e4 	.word	0x080057e4

08004018 <_Bfree>:
 8004018:	b570      	push	{r4, r5, r6, lr}
 800401a:	6a46      	ldr	r6, [r0, #36]	; 0x24
 800401c:	4605      	mov	r5, r0
 800401e:	460c      	mov	r4, r1
 8004020:	b976      	cbnz	r6, 8004040 <_Bfree+0x28>
 8004022:	2010      	movs	r0, #16
 8004024:	f7ff ffb0 	bl	8003f88 <malloc>
 8004028:	4602      	mov	r2, r0
 800402a:	6268      	str	r0, [r5, #36]	; 0x24
 800402c:	b920      	cbnz	r0, 8004038 <_Bfree+0x20>
 800402e:	4b09      	ldr	r3, [pc, #36]	; (8004054 <_Bfree+0x3c>)
 8004030:	4809      	ldr	r0, [pc, #36]	; (8004058 <_Bfree+0x40>)
 8004032:	218a      	movs	r1, #138	; 0x8a
 8004034:	f000 fd54 	bl	8004ae0 <__assert_func>
 8004038:	e9c0 6601 	strd	r6, r6, [r0, #4]
 800403c:	6006      	str	r6, [r0, #0]
 800403e:	60c6      	str	r6, [r0, #12]
 8004040:	b13c      	cbz	r4, 8004052 <_Bfree+0x3a>
 8004042:	6a6b      	ldr	r3, [r5, #36]	; 0x24
 8004044:	6862      	ldr	r2, [r4, #4]
 8004046:	68db      	ldr	r3, [r3, #12]
 8004048:	f853 1022 	ldr.w	r1, [r3, r2, lsl #2]
 800404c:	6021      	str	r1, [r4, #0]
 800404e:	f843 4022 	str.w	r4, [r3, r2, lsl #2]
 8004052:	bd70      	pop	{r4, r5, r6, pc}
 8004054:	0800575d 	.word	0x0800575d
 8004058:	080057e4 	.word	0x080057e4

0800405c <__multadd>:
 800405c:	e92d 41f0 	stmdb	sp!, {r4, r5, r6, r7, r8, lr}
 8004060:	690e      	ldr	r6, [r1, #16]
 8004062:	4607      	mov	r7, r0
 8004064:	4698      	mov	r8, r3
 8004066:	460c      	mov	r4, r1
 8004068:	f101 0014 	add.w	r0, r1, #20
 800406c:	2300      	movs	r3, #0
 800406e:	6805      	ldr	r5, [r0, #0]
 8004070:	b2a9      	uxth	r1, r5
 8004072:	fb02 8101 	mla	r1, r2, r1, r8
 8004076:	ea4f 4c11 	mov.w	ip, r1, lsr #16
 800407a:	0c2d      	lsrs	r5, r5, #16
 800407c:	fb02 c505 	mla	r5, r2, r5, ip
 8004080:	b289      	uxth	r1, r1
 8004082:	3301      	adds	r3, #1
 8004084:	eb01 4105 	add.w	r1, r1, r5, lsl #16
 8004088:	429e      	cmp	r6, r3
 800408a:	f840 1b04 	str.w	r1, [r0], #4
 800408e:	ea4f 4815 	mov.w	r8, r5, lsr #16
 8004092:	dcec      	bgt.n	800406e <__multadd+0x12>
 8004094:	f1b8 0f00 	cmp.w	r8, #0
 8004098:	d022      	beq.n	80040e0 <__multadd+0x84>
 800409a:	68a3      	ldr	r3, [r4, #8]
 800409c:	42b3      	cmp	r3, r6
 800409e:	dc19      	bgt.n	80040d4 <__multadd+0x78>
 80040a0:	6861      	ldr	r1, [r4, #4]
 80040a2:	4638      	mov	r0, r7
 80040a4:	3101      	adds	r1, #1
 80040a6:	f7ff ff77 	bl	8003f98 <_Balloc>
 80040aa:	4605      	mov	r5, r0
 80040ac:	b928      	cbnz	r0, 80040ba <__multadd+0x5e>
 80040ae:	4602      	mov	r2, r0
 80040b0:	4b0d      	ldr	r3, [pc, #52]	; (80040e8 <__multadd+0x8c>)
 80040b2:	480e      	ldr	r0, [pc, #56]	; (80040ec <__multadd+0x90>)
 80040b4:	21b5      	movs	r1, #181	; 0xb5
 80040b6:	f000 fd13 	bl	8004ae0 <__assert_func>
 80040ba:	6922      	ldr	r2, [r4, #16]
 80040bc:	3202      	adds	r2, #2
 80040be:	f104 010c 	add.w	r1, r4, #12
 80040c2:	0092      	lsls	r2, r2, #2
 80040c4:	300c      	adds	r0, #12
 80040c6:	f7fe fc43 	bl	8002950 <memcpy>
 80040ca:	4621      	mov	r1, r4
 80040cc:	4638      	mov	r0, r7
 80040ce:	f7ff ffa3 	bl	8004018 <_Bfree>
 80040d2:	462c      	mov	r4, r5
 80040d4:	eb04 0386 	add.w	r3, r4, r6, lsl #2
 80040d8:	3601      	adds	r6, #1
 80040da:	f8c3 8014 	str.w	r8, [r3, #20]
 80040de:	6126      	str	r6, [r4, #16]
 80040e0:	4620      	mov	r0, r4
 80040e2:	e8bd 81f0 	ldmia.w	sp!, {r4, r5, r6, r7, r8, pc}
 80040e6:	bf00      	nop
 80040e8:	080057d3 	.word	0x080057d3
 80040ec:	080057e4 	.word	0x080057e4

080040f0 <__hi0bits>:
 80040f0:	0c03      	lsrs	r3, r0, #16
 80040f2:	041b      	lsls	r3, r3, #16
 80040f4:	b9d3      	cbnz	r3, 800412c <__hi0bits+0x3c>
 80040f6:	0400      	lsls	r0, r0, #16
 80040f8:	2310      	movs	r3, #16
 80040fa:	f010 4f7f 	tst.w	r0, #4278190080	; 0xff000000
 80040fe:	bf04      	itt	eq
 8004100:	0200      	lsleq	r0, r0, #8
 8004102:	3308      	addeq	r3, #8
 8004104:	f010 4f70 	tst.w	r0, #4026531840	; 0xf0000000
 8004108:	bf04      	itt	eq
 800410a:	0100      	lsleq	r0, r0, #4
 800410c:	3304      	addeq	r3, #4
 800410e:	f010 4f40 	tst.w	r0, #3221225472	; 0xc0000000
 8004112:	bf04      	itt	eq
 8004114:	0080      	lsleq	r0, r0, #2
 8004116:	3302      	addeq	r3, #2
 8004118:	2800      	cmp	r0, #0
 800411a:	db05      	blt.n	8004128 <__hi0bits+0x38>
 800411c:	f010 4f80 	tst.w	r0, #1073741824	; 0x40000000
 8004120:	f103 0301 	add.w	r3, r3, #1
 8004124:	bf08      	it	eq
 8004126:	2320      	moveq	r3, #32
 8004128:	4618      	mov	r0, r3
 800412a:	4770      	bx	lr
 800412c:	2300      	movs	r3, #0
 800412e:	e7e4      	b.n	80040fa <__hi0bits+0xa>

08004130 <__lo0bits>:
 8004130:	6803      	ldr	r3, [r0, #0]
 8004132:	f013 0207 	ands.w	r2, r3, #7
 8004136:	4601      	mov	r1, r0
 8004138:	d00b      	beq.n	8004152 <__lo0bits+0x22>
 800413a:	07da      	lsls	r2, r3, #31
 800413c:	d424      	bmi.n	8004188 <__lo0bits+0x58>
 800413e:	0798      	lsls	r0, r3, #30
 8004140:	bf49      	itett	mi
 8004142:	085b      	lsrmi	r3, r3, #1
 8004144:	089b      	lsrpl	r3, r3, #2
 8004146:	2001      	movmi	r0, #1
 8004148:	600b      	strmi	r3, [r1, #0]
 800414a:	bf5c      	itt	pl
 800414c:	600b      	strpl	r3, [r1, #0]
 800414e:	2002      	movpl	r0, #2
 8004150:	4770      	bx	lr
 8004152:	b298      	uxth	r0, r3
 8004154:	b9b0      	cbnz	r0, 8004184 <__lo0bits+0x54>
 8004156:	0c1b      	lsrs	r3, r3, #16
 8004158:	2010      	movs	r0, #16
 800415a:	f013 0fff 	tst.w	r3, #255	; 0xff
 800415e:	bf04      	itt	eq
 8004160:	0a1b      	lsreq	r3, r3, #8
 8004162:	3008      	addeq	r0, #8
 8004164:	071a      	lsls	r2, r3, #28
 8004166:	bf04      	itt	eq
 8004168:	091b      	lsreq	r3, r3, #4
 800416a:	3004      	addeq	r0, #4
 800416c:	079a      	lsls	r2, r3, #30
 800416e:	bf04      	itt	eq
 8004170:	089b      	lsreq	r3, r3, #2
 8004172:	3002      	addeq	r0, #2
 8004174:	07da      	lsls	r2, r3, #31
 8004176:	d403      	bmi.n	8004180 <__lo0bits+0x50>
 8004178:	085b      	lsrs	r3, r3, #1
 800417a:	f100 0001 	add.w	r0, r0, #1
 800417e:	d005      	beq.n	800418c <__lo0bits+0x5c>
 8004180:	600b      	str	r3, [r1, #0]
 8004182:	4770      	bx	lr
 8004184:	4610      	mov	r0, r2
 8004186:	e7e8      	b.n	800415a <__lo0bits+0x2a>
 8004188:	2000      	movs	r0, #0
 800418a:	4770      	bx	lr
 800418c:	2020      	movs	r0, #32
 800418e:	4770      	bx	lr

08004190 <__i2b>:
 8004190:	b510      	push	{r4, lr}
 8004192:	460c      	mov	r4, r1
 8004194:	2101      	movs	r1, #1
 8004196:	f7ff feff 	bl	8003f98 <_Balloc>
 800419a:	4602      	mov	r2, r0
 800419c:	b928      	cbnz	r0, 80041aa <__i2b+0x1a>
 800419e:	4b05      	ldr	r3, [pc, #20]	; (80041b4 <__i2b+0x24>)
 80041a0:	4805      	ldr	r0, [pc, #20]	; (80041b8 <__i2b+0x28>)
 80041a2:	f44f 71a0 	mov.w	r1, #320	; 0x140
 80041a6:	f000 fc9b 	bl	8004ae0 <__assert_func>
 80041aa:	2301      	movs	r3, #1
 80041ac:	6144      	str	r4, [r0, #20]
 80041ae:	6103      	str	r3, [r0, #16]
 80041b0:	bd10      	pop	{r4, pc}
 80041b2:	bf00      	nop
 80041b4:	080057d3 	.word	0x080057d3
 80041b8:	080057e4 	.word	0x080057e4

080041bc <__multiply>:
 80041bc:	e92d 4ff0 	stmdb	sp!, {r4, r5, r6, r7, r8, r9, sl, fp, lr}
 80041c0:	4614      	mov	r4, r2
 80041c2:	690a      	ldr	r2, [r1, #16]
 80041c4:	6923      	ldr	r3, [r4, #16]
 80041c6:	429a      	cmp	r2, r3
 80041c8:	bfb8      	it	lt
 80041ca:	460b      	movlt	r3, r1
 80041cc:	460d      	mov	r5, r1
 80041ce:	bfbc      	itt	lt
 80041d0:	4625      	movlt	r5, r4
 80041d2:	461c      	movlt	r4, r3
 80041d4:	f8d5 a010 	ldr.w	sl, [r5, #16]
 80041d8:	f8d4 9010 	ldr.w	r9, [r4, #16]
 80041dc:	68ab      	ldr	r3, [r5, #8]
 80041de:	6869      	ldr	r1, [r5, #4]
 80041e0:	eb0a 0709 	add.w	r7, sl, r9
 80041e4:	42bb      	cmp	r3, r7
 80041e6:	b085      	sub	sp, #20
 80041e8:	bfb8      	it	lt
 80041ea:	3101      	addlt	r1, #1
 80041ec:	f7ff fed4 	bl	8003f98 <_Balloc>
 80041f0:	b930      	cbnz	r0, 8004200 <__multiply+0x44>
 80041f2:	4602      	mov	r2, r0
 80041f4:	4b42      	ldr	r3, [pc, #264]	; (8004300 <__multiply+0x144>)
 80041f6:	4843      	ldr	r0, [pc, #268]	; (8004304 <__multiply+0x148>)
 80041f8:	f240 115d 	movw	r1, #349	; 0x15d
 80041fc:	f000 fc70 	bl	8004ae0 <__assert_func>
 8004200:	f100 0614 	add.w	r6, r0, #20
 8004204:	eb06 0887 	add.w	r8, r6, r7, lsl #2
 8004208:	4633      	mov	r3, r6
 800420a:	2200      	movs	r2, #0
 800420c:	4543      	cmp	r3, r8
 800420e:	d31e      	bcc.n	800424e <__multiply+0x92>
 8004210:	f105 0c14 	add.w	ip, r5, #20
 8004214:	f104 0314 	add.w	r3, r4, #20
 8004218:	eb0c 0c8a 	add.w	ip, ip, sl, lsl #2
 800421c:	eb03 0289 	add.w	r2, r3, r9, lsl #2
 8004220:	9202      	str	r2, [sp, #8]
 8004222:	ebac 0205 	sub.w	r2, ip, r5
 8004226:	3a15      	subs	r2, #21
 8004228:	f022 0203 	bic.w	r2, r2, #3
 800422c:	3204      	adds	r2, #4
 800422e:	f105 0115 	add.w	r1, r5, #21
 8004232:	458c      	cmp	ip, r1
 8004234:	bf38      	it	cc
 8004236:	2204      	movcc	r2, #4
 8004238:	9201      	str	r2, [sp, #4]
 800423a:	9a02      	ldr	r2, [sp, #8]
 800423c:	9303      	str	r3, [sp, #12]
 800423e:	429a      	cmp	r2, r3
 8004240:	d808      	bhi.n	8004254 <__multiply+0x98>
 8004242:	2f00      	cmp	r7, #0
 8004244:	dc55      	bgt.n	80042f2 <__multiply+0x136>
 8004246:	6107      	str	r7, [r0, #16]
 8004248:	b005      	add	sp, #20
 800424a:	e8bd 8ff0 	ldmia.w	sp!, {r4, r5, r6, r7, r8, r9, sl, fp, pc}
 800424e:	f843 2b04 	str.w	r2, [r3], #4
 8004252:	e7db      	b.n	800420c <__multiply+0x50>
 8004254:	f8b3 a000 	ldrh.w	sl, [r3]
 8004258:	f1ba 0f00 	cmp.w	sl, #0
 800425c:	d020      	beq.n	80042a0 <__multiply+0xe4>
 800425e:	f105 0e14 	add.w	lr, r5, #20
 8004262:	46b1      	mov	r9, r6
 8004264:	2200      	movs	r2, #0
 8004266:	f85e 4b04 	ldr.w	r4, [lr], #4
 800426a:	f8d9 b000 	ldr.w	fp, [r9]
 800426e:	b2a1      	uxth	r1, r4
 8004270:	fa1f fb8b 	uxth.w	fp, fp
 8004274:	fb0a b101 	mla	r1, sl, r1, fp
 8004278:	4411      	add	r1, r2
 800427a:	f8d9 2000 	ldr.w	r2, [r9]
 800427e:	0c24      	lsrs	r4, r4, #16
 8004280:	0c12      	lsrs	r2, r2, #16
 8004282:	fb0a 2404 	mla	r4, sl, r4, r2
 8004286:	eb04 4411 	add.w	r4, r4, r1, lsr #16
 800428a:	b289      	uxth	r1, r1
 800428c:	ea41 4104 	orr.w	r1, r1, r4, lsl #16
 8004290:	45f4      	cmp	ip, lr
 8004292:	f849 1b04 	str.w	r1, [r9], #4
 8004296:	ea4f 4214 	mov.w	r2, r4, lsr #16
 800429a:	d8e4      	bhi.n	8004266 <__multiply+0xaa>
 800429c:	9901      	ldr	r1, [sp, #4]
 800429e:	5072      	str	r2, [r6, r1]
 80042a0:	9a03      	ldr	r2, [sp, #12]
 80042a2:	f8b2 9002 	ldrh.w	r9, [r2, #2]
 80042a6:	3304      	adds	r3, #4
 80042a8:	f1b9 0f00 	cmp.w	r9, #0
 80042ac:	d01f      	beq.n	80042ee <__multiply+0x132>
 80042ae:	6834      	ldr	r4, [r6, #0]
 80042b0:	f105 0114 	add.w	r1, r5, #20
 80042b4:	46b6      	mov	lr, r6
 80042b6:	f04f 0a00 	mov.w	sl, #0
 80042ba:	880a      	ldrh	r2, [r1, #0]
 80042bc:	f8be b002 	ldrh.w	fp, [lr, #2]
 80042c0:	fb09 b202 	mla	r2, r9, r2, fp
 80042c4:	4492      	add	sl, r2
 80042c6:	b2a4      	uxth	r4, r4
 80042c8:	ea44 440a 	orr.w	r4, r4, sl, lsl #16
 80042cc:	f84e 4b04 	str.w	r4, [lr], #4
 80042d0:	f851 4b04 	ldr.w	r4, [r1], #4
 80042d4:	f8be 2000 	ldrh.w	r2, [lr]
 80042d8:	0c24      	lsrs	r4, r4, #16
 80042da:	fb09 2404 	mla	r4, r9, r4, r2
 80042de:	eb04 441a 	add.w	r4, r4, sl, lsr #16
 80042e2:	458c      	cmp	ip, r1
 80042e4:	ea4f 4a14 	mov.w	sl, r4, lsr #16
 80042e8:	d8e7      	bhi.n	80042ba <__multiply+0xfe>
 80042ea:	9a01      	ldr	r2, [sp, #4]
 80042ec:	50b4      	str	r4, [r6, r2]
 80042ee:	3604      	adds	r6, #4
 80042f0:	e7a3      	b.n	800423a <__multiply+0x7e>
 80042f2:	f858 3d04 	ldr.w	r3, [r8, #-4]!
 80042f6:	2b00      	cmp	r3, #0
 80042f8:	d1a5      	bne.n	8004246 <__multiply+0x8a>
 80042fa:	3f01      	subs	r7, #1
 80042fc:	e7a1      	b.n	8004242 <__multiply+0x86>
 80042fe:	bf00      	nop
 8004300:	080057d3 	.word	0x080057d3
 8004304:	080057e4 	.word	0x080057e4

08004308 <__pow5mult>:
 8004308:	e92d 43f8 	stmdb	sp!, {r3, r4, r5, r6, r7, r8, r9, lr}
 800430c:	4615      	mov	r5, r2
 800430e:	f012 0203 	ands.w	r2, r2, #3
 8004312:	4606      	mov	r6, r0
 8004314:	460f      	mov	r7, r1
 8004316:	d007      	beq.n	8004328 <__pow5mult+0x20>
 8004318:	4c25      	ldr	r4, [pc, #148]	; (80043b0 <__pow5mult+0xa8>)
 800431a:	3a01      	subs	r2, #1
 800431c:	2300      	movs	r3, #0
 800431e:	f854 2022 	ldr.w	r2, [r4, r2, lsl #2]
 8004322:	f7ff fe9b 	bl	800405c <__multadd>
 8004326:	4607      	mov	r7, r0
 8004328:	10ad      	asrs	r5, r5, #2
 800432a:	d03d      	beq.n	80043a8 <__pow5mult+0xa0>
 800432c:	6a74      	ldr	r4, [r6, #36]	; 0x24
 800432e:	b97c      	cbnz	r4, 8004350 <__pow5mult+0x48>
 8004330:	2010      	movs	r0, #16
 8004332:	f7ff fe29 	bl	8003f88 <malloc>
 8004336:	4602      	mov	r2, r0
 8004338:	6270      	str	r0, [r6, #36]	; 0x24
 800433a:	b928      	cbnz	r0, 8004348 <__pow5mult+0x40>
 800433c:	4b1d      	ldr	r3, [pc, #116]	; (80043b4 <__pow5mult+0xac>)
 800433e:	481e      	ldr	r0, [pc, #120]	; (80043b8 <__pow5mult+0xb0>)
 8004340:	f44f 71d7 	mov.w	r1, #430	; 0x1ae
 8004344:	f000 fbcc 	bl	8004ae0 <__assert_func>
 8004348:	e9c0 4401 	strd	r4, r4, [r0, #4]
 800434c:	6004      	str	r4, [r0, #0]
 800434e:	60c4      	str	r4, [r0, #12]
 8004350:	f8d6 8024 	ldr.w	r8, [r6, #36]	; 0x24
 8004354:	f8d8 4008 	ldr.w	r4, [r8, #8]
 8004358:	b94c      	cbnz	r4, 800436e <__pow5mult+0x66>
 800435a:	f240 2171 	movw	r1, #625	; 0x271
 800435e:	4630      	mov	r0, r6
 8004360:	f7ff ff16 	bl	8004190 <__i2b>
 8004364:	2300      	movs	r3, #0
 8004366:	f8c8 0008 	str.w	r0, [r8, #8]
 800436a:	4604      	mov	r4, r0
 800436c:	6003      	str	r3, [r0, #0]
 800436e:	f04f 0900 	mov.w	r9, #0
 8004372:	07eb      	lsls	r3, r5, #31
 8004374:	d50a      	bpl.n	800438c <__pow5mult+0x84>
 8004376:	4639      	mov	r1, r7
 8004378:	4622      	mov	r2, r4
 800437a:	4630      	mov	r0, r6
 800437c:	f7ff ff1e 	bl	80041bc <__multiply>
 8004380:	4639      	mov	r1, r7
 8004382:	4680      	mov	r8, r0
 8004384:	4630      	mov	r0, r6
 8004386:	f7ff fe47 	bl	8004018 <_Bfree>
 800438a:	4647      	mov	r7, r8
 800438c:	106d      	asrs	r5, r5, #1
 800438e:	d00b      	beq.n	80043a8 <__pow5mult+0xa0>
 8004390:	6820      	ldr	r0, [r4, #0]
 8004392:	b938      	cbnz	r0, 80043a4 <__pow5mult+0x9c>
 8004394:	4622      	mov	r2, r4
 8004396:	4621      	mov	r1, r4
 8004398:	4630      	mov	r0, r6
 800439a:	f7ff ff0f 	bl	80041bc <__multiply>
 800439e:	6020      	str	r0, [r4, #0]
 80043a0:	f8c0 9000 	str.w	r9, [r0]
 80043a4:	4604      	mov	r4, r0
 80043a6:	e7e4      	b.n	8004372 <__pow5mult+0x6a>
 80043a8:	4638      	mov	r0, r7
 80043aa:	e8bd 83f8 	ldmia.w	sp!, {r3, r4, r5, r6, r7, r8, r9, pc}
 80043ae:	bf00      	nop
 80043b0:	08005938 	.word	0x08005938
 80043b4:	0800575d 	.word	0x0800575d
 80043b8:	080057e4 	.word	0x080057e4

080043bc <__lshift>:
 80043bc:	e92d 47f0 	stmdb	sp!, {r4, r5, r6, r7, r8, r9, sl, lr}
 80043c0:	460c      	mov	r4, r1
 80043c2:	6849      	ldr	r1, [r1, #4]
 80043c4:	6923      	ldr	r3, [r4, #16]
 80043c6:	eb03 1862 	add.w	r8, r3, r2, asr #5
 80043ca:	68a3      	ldr	r3, [r4, #8]
 80043cc:	4607      	mov	r7, r0
 80043ce:	4691      	mov	r9, r2
 80043d0:	ea4f 1a62 	mov.w	sl, r2, asr #5
 80043d4:	f108 0601 	add.w	r6, r8, #1
 80043d8:	42b3      	cmp	r3, r6
 80043da:	db0b      	blt.n	80043f4 <__lshift+0x38>
 80043dc:	4638      	mov	r0, r7
 80043de:	f7ff fddb 	bl	8003f98 <_Balloc>
 80043e2:	4605      	mov	r5, r0
 80043e4:	b948      	cbnz	r0, 80043fa <__lshift+0x3e>
 80043e6:	4602      	mov	r2, r0
 80043e8:	4b28      	ldr	r3, [pc, #160]	; (800448c <__lshift+0xd0>)
 80043ea:	4829      	ldr	r0, [pc, #164]	; (8004490 <__lshift+0xd4>)
 80043ec:	f240 11d9 	movw	r1, #473	; 0x1d9
 80043f0:	f000 fb76 	bl	8004ae0 <__assert_func>
 80043f4:	3101      	adds	r1, #1
 80043f6:	005b      	lsls	r3, r3, #1
 80043f8:	e7ee      	b.n	80043d8 <__lshift+0x1c>
 80043fa:	2300      	movs	r3, #0
 80043fc:	f100 0114 	add.w	r1, r0, #20
 8004400:	f100 0210 	add.w	r2, r0, #16
 8004404:	4618      	mov	r0, r3
 8004406:	4553      	cmp	r3, sl
 8004408:	db33      	blt.n	8004472 <__lshift+0xb6>
 800440a:	6920      	ldr	r0, [r4, #16]
 800440c:	ea2a 7aea 	bic.w	sl, sl, sl, asr #31
 8004410:	f104 0314 	add.w	r3, r4, #20
 8004414:	f019 091f 	ands.w	r9, r9, #31
 8004418:	eb01 018a 	add.w	r1, r1, sl, lsl #2
 800441c:	eb03 0c80 	add.w	ip, r3, r0, lsl #2
 8004420:	d02b      	beq.n	800447a <__lshift+0xbe>
 8004422:	f1c9 0e20 	rsb	lr, r9, #32
 8004426:	468a      	mov	sl, r1
 8004428:	2200      	movs	r2, #0
 800442a:	6818      	ldr	r0, [r3, #0]
 800442c:	fa00 f009 	lsl.w	r0, r0, r9
 8004430:	4302      	orrs	r2, r0
 8004432:	f84a 2b04 	str.w	r2, [sl], #4
 8004436:	f853 2b04 	ldr.w	r2, [r3], #4
 800443a:	459c      	cmp	ip, r3
 800443c:	fa22 f20e 	lsr.w	r2, r2, lr
 8004440:	d8f3      	bhi.n	800442a <__lshift+0x6e>
 8004442:	ebac 0304 	sub.w	r3, ip, r4
 8004446:	3b15      	subs	r3, #21
 8004448:	f023 0303 	bic.w	r3, r3, #3
 800444c:	3304      	adds	r3, #4
 800444e:	f104 0015 	add.w	r0, r4, #21
 8004452:	4584      	cmp	ip, r0
 8004454:	bf38      	it	cc
 8004456:	2304      	movcc	r3, #4
 8004458:	50ca      	str	r2, [r1, r3]
 800445a:	b10a      	cbz	r2, 8004460 <__lshift+0xa4>
 800445c:	f108 0602 	add.w	r6, r8, #2
 8004460:	3e01      	subs	r6, #1
 8004462:	4638      	mov	r0, r7
 8004464:	612e      	str	r6, [r5, #16]
 8004466:	4621      	mov	r1, r4
 8004468:	f7ff fdd6 	bl	8004018 <_Bfree>
 800446c:	4628      	mov	r0, r5
 800446e:	e8bd 87f0 	ldmia.w	sp!, {r4, r5, r6, r7, r8, r9, sl, pc}
 8004472:	f842 0f04 	str.w	r0, [r2, #4]!
 8004476:	3301      	adds	r3, #1
 8004478:	e7c5      	b.n	8004406 <__lshift+0x4a>
 800447a:	3904      	subs	r1, #4
 800447c:	f853 2b04 	ldr.w	r2, [r3], #4
 8004480:	f841 2f04 	str.w	r2, [r1, #4]!
 8004484:	459c      	cmp	ip, r3
 8004486:	d8f9      	bhi.n	800447c <__lshift+0xc0>
 8004488:	e7ea      	b.n	8004460 <__lshift+0xa4>
 800448a:	bf00      	nop
 800448c:	080057d3 	.word	0x080057d3
 8004490:	080057e4 	.word	0x080057e4

08004494 <__mcmp>:
 8004494:	b530      	push	{r4, r5, lr}
 8004496:	6902      	ldr	r2, [r0, #16]
 8004498:	690c      	ldr	r4, [r1, #16]
 800449a:	1b12      	subs	r2, r2, r4
 800449c:	d10e      	bne.n	80044bc <__mcmp+0x28>
 800449e:	f100 0314 	add.w	r3, r0, #20
 80044a2:	3114      	adds	r1, #20
 80044a4:	eb03 0084 	add.w	r0, r3, r4, lsl #2
 80044a8:	eb01 0184 	add.w	r1, r1, r4, lsl #2
 80044ac:	f850 5d04 	ldr.w	r5, [r0, #-4]!
 80044b0:	f851 4d04 	ldr.w	r4, [r1, #-4]!
 80044b4:	42a5      	cmp	r5, r4
 80044b6:	d003      	beq.n	80044c0 <__mcmp+0x2c>
 80044b8:	d305      	bcc.n	80044c6 <__mcmp+0x32>
 80044ba:	2201      	movs	r2, #1
 80044bc:	4610      	mov	r0, r2
 80044be:	bd30      	pop	{r4, r5, pc}
 80044c0:	4283      	cmp	r3, r0
 80044c2:	d3f3      	bcc.n	80044ac <__mcmp+0x18>
 80044c4:	e7fa      	b.n	80044bc <__mcmp+0x28>
 80044c6:	f04f 32ff 	mov.w	r2, #4294967295
 80044ca:	e7f7      	b.n	80044bc <__mcmp+0x28>

080044cc <__mdiff>:
 80044cc:	e92d 4ff8 	stmdb	sp!, {r3, r4, r5, r6, r7, r8, r9, sl, fp, lr}
 80044d0:	460c      	mov	r4, r1
 80044d2:	4606      	mov	r6, r0
 80044d4:	4611      	mov	r1, r2
 80044d6:	4620      	mov	r0, r4
 80044d8:	4617      	mov	r7, r2
 80044da:	f7ff ffdb 	bl	8004494 <__mcmp>
 80044de:	1e05      	subs	r5, r0, #0
 80044e0:	d110      	bne.n	8004504 <__mdiff+0x38>
 80044e2:	4629      	mov	r1, r5
 80044e4:	4630      	mov	r0, r6
 80044e6:	f7ff fd57 	bl	8003f98 <_Balloc>
 80044ea:	b930      	cbnz	r0, 80044fa <__mdiff+0x2e>
 80044ec:	4b39      	ldr	r3, [pc, #228]	; (80045d4 <__mdiff+0x108>)
 80044ee:	4602      	mov	r2, r0
 80044f0:	f240 2132 	movw	r1, #562	; 0x232
 80044f4:	4838      	ldr	r0, [pc, #224]	; (80045d8 <__mdiff+0x10c>)
 80044f6:	f000 faf3 	bl	8004ae0 <__assert_func>
 80044fa:	2301      	movs	r3, #1
 80044fc:	e9c0 3504 	strd	r3, r5, [r0, #16]
 8004500:	e8bd 8ff8 	ldmia.w	sp!, {r3, r4, r5, r6, r7, r8, r9, sl, fp, pc}
 8004504:	bfa4      	itt	ge
 8004506:	463b      	movge	r3, r7
 8004508:	4627      	movge	r7, r4
 800450a:	4630      	mov	r0, r6
 800450c:	6879      	ldr	r1, [r7, #4]
 800450e:	bfa6      	itte	ge
 8004510:	461c      	movge	r4, r3
 8004512:	2500      	movge	r5, #0
 8004514:	2501      	movlt	r5, #1
 8004516:	f7ff fd3f 	bl	8003f98 <_Balloc>
 800451a:	b920      	cbnz	r0, 8004526 <__mdiff+0x5a>
 800451c:	4b2d      	ldr	r3, [pc, #180]	; (80045d4 <__mdiff+0x108>)
 800451e:	4602      	mov	r2, r0
 8004520:	f44f 7110 	mov.w	r1, #576	; 0x240
 8004524:	e7e6      	b.n	80044f4 <__mdiff+0x28>
 8004526:	693e      	ldr	r6, [r7, #16]
 8004528:	60c5      	str	r5, [r0, #12]
 800452a:	6925      	ldr	r5, [r4, #16]
 800452c:	f107 0114 	add.w	r1, r7, #20
 8004530:	f104 0914 	add.w	r9, r4, #20
 8004534:	f100 0e14 	add.w	lr, r0, #20
 8004538:	f107 0210 	add.w	r2, r7, #16
 800453c:	eb01 0c86 	add.w	ip, r1, r6, lsl #2
 8004540:	eb09 0585 	add.w	r5, r9, r5, lsl #2
 8004544:	46f2      	mov	sl, lr
 8004546:	2700      	movs	r7, #0
 8004548:	f859 3b04 	ldr.w	r3, [r9], #4
 800454c:	f852 bf04 	ldr.w	fp, [r2, #4]!
 8004550:	fa1f f883 	uxth.w	r8, r3
 8004554:	fa17 f78b 	uxtah	r7, r7, fp
 8004558:	0c1b      	lsrs	r3, r3, #16
 800455a:	eba7 0808 	sub.w	r8, r7, r8
 800455e:	ebc3 431b 	rsb	r3, r3, fp, lsr #16
 8004562:	eb03 4328 	add.w	r3, r3, r8, asr #16
 8004566:	fa1f f888 	uxth.w	r8, r8
 800456a:	141f      	asrs	r7, r3, #16
 800456c:	454d      	cmp	r5, r9
 800456e:	ea48 4303 	orr.w	r3, r8, r3, lsl #16
 8004572:	f84a 3b04 	str.w	r3, [sl], #4
 8004576:	d8e7      	bhi.n	8004548 <__mdiff+0x7c>
 8004578:	1b2b      	subs	r3, r5, r4
 800457a:	3b15      	subs	r3, #21
 800457c:	f023 0303 	bic.w	r3, r3, #3
 8004580:	3304      	adds	r3, #4
 8004582:	3415      	adds	r4, #21
 8004584:	42a5      	cmp	r5, r4
 8004586:	bf38      	it	cc
 8004588:	2304      	movcc	r3, #4
 800458a:	4419      	add	r1, r3
 800458c:	4473      	add	r3, lr
 800458e:	469e      	mov	lr, r3
 8004590:	460d      	mov	r5, r1
 8004592:	4565      	cmp	r5, ip
 8004594:	d30e      	bcc.n	80045b4 <__mdiff+0xe8>
 8004596:	f10c 0203 	add.w	r2, ip, #3
 800459a:	1a52      	subs	r2, r2, r1
 800459c:	f022 0203 	bic.w	r2, r2, #3
 80045a0:	3903      	subs	r1, #3
 80045a2:	458c      	cmp	ip, r1
 80045a4:	bf38      	it	cc
 80045a6:	2200      	movcc	r2, #0
 80045a8:	441a      	add	r2, r3
 80045aa:	f852 3d04 	ldr.w	r3, [r2, #-4]!
 80045ae:	b17b      	cbz	r3, 80045d0 <__mdiff+0x104>
 80045b0:	6106      	str	r6, [r0, #16]
 80045b2:	e7a5      	b.n	8004500 <__mdiff+0x34>
 80045b4:	f855 8b04 	ldr.w	r8, [r5], #4
 80045b8:	fa17 f488 	uxtah	r4, r7, r8
 80045bc:	1422      	asrs	r2, r4, #16
 80045be:	eb02 4218 	add.w	r2, r2, r8, lsr #16
 80045c2:	b2a4      	uxth	r4, r4
 80045c4:	ea44 4402 	orr.w	r4, r4, r2, lsl #16
 80045c8:	f84e 4b04 	str.w	r4, [lr], #4
 80045cc:	1417      	asrs	r7, r2, #16
 80045ce:	e7e0      	b.n	8004592 <__mdiff+0xc6>
 80045d0:	3e01      	subs	r6, #1
 80045d2:	e7ea      	b.n	80045aa <__mdiff+0xde>
 80045d4:	080057d3 	.word	0x080057d3
 80045d8:	080057e4 	.word	0x080057e4

080045dc <__d2b>:
 80045dc:	e92d 43f7 	stmdb	sp!, {r0, r1, r2, r4, r5, r6, r7, r8, r9, lr}
 80045e0:	4689      	mov	r9, r1
 80045e2:	2101      	movs	r1, #1
 80045e4:	ec57 6b10 	vmov	r6, r7, d0
 80045e8:	4690      	mov	r8, r2
 80045ea:	f7ff fcd5 	bl	8003f98 <_Balloc>
 80045ee:	4604      	mov	r4, r0
 80045f0:	b930      	cbnz	r0, 8004600 <__d2b+0x24>
 80045f2:	4602      	mov	r2, r0
 80045f4:	4b25      	ldr	r3, [pc, #148]	; (800468c <__d2b+0xb0>)
 80045f6:	4826      	ldr	r0, [pc, #152]	; (8004690 <__d2b+0xb4>)
 80045f8:	f240 310a 	movw	r1, #778	; 0x30a
 80045fc:	f000 fa70 	bl	8004ae0 <__assert_func>
 8004600:	f3c7 550a 	ubfx	r5, r7, #20, #11
 8004604:	f3c7 0313 	ubfx	r3, r7, #0, #20
 8004608:	bb35      	cbnz	r5, 8004658 <__d2b+0x7c>
 800460a:	2e00      	cmp	r6, #0
 800460c:	9301      	str	r3, [sp, #4]
 800460e:	d028      	beq.n	8004662 <__d2b+0x86>
 8004610:	4668      	mov	r0, sp
 8004612:	9600      	str	r6, [sp, #0]
 8004614:	f7ff fd8c 	bl	8004130 <__lo0bits>
 8004618:	9900      	ldr	r1, [sp, #0]
 800461a:	b300      	cbz	r0, 800465e <__d2b+0x82>
 800461c:	9a01      	ldr	r2, [sp, #4]
 800461e:	f1c0 0320 	rsb	r3, r0, #32
 8004622:	fa02 f303 	lsl.w	r3, r2, r3
 8004626:	430b      	orrs	r3, r1
 8004628:	40c2      	lsrs	r2, r0
 800462a:	6163      	str	r3, [r4, #20]
 800462c:	9201      	str	r2, [sp, #4]
 800462e:	9b01      	ldr	r3, [sp, #4]
 8004630:	61a3      	str	r3, [r4, #24]
 8004632:	2b00      	cmp	r3, #0
 8004634:	bf14      	ite	ne
 8004636:	2202      	movne	r2, #2
 8004638:	2201      	moveq	r2, #1
 800463a:	6122      	str	r2, [r4, #16]
 800463c:	b1d5      	cbz	r5, 8004674 <__d2b+0x98>
 800463e:	f2a5 4533 	subw	r5, r5, #1075	; 0x433
 8004642:	4405      	add	r5, r0
 8004644:	f8c9 5000 	str.w	r5, [r9]
 8004648:	f1c0 0035 	rsb	r0, r0, #53	; 0x35
 800464c:	f8c8 0000 	str.w	r0, [r8]
 8004650:	4620      	mov	r0, r4
 8004652:	b003      	add	sp, #12
 8004654:	e8bd 83f0 	ldmia.w	sp!, {r4, r5, r6, r7, r8, r9, pc}
 8004658:	f443 1380 	orr.w	r3, r3, #1048576	; 0x100000
 800465c:	e7d5      	b.n	800460a <__d2b+0x2e>
 800465e:	6161      	str	r1, [r4, #20]
 8004660:	e7e5      	b.n	800462e <__d2b+0x52>
 8004662:	a801      	add	r0, sp, #4
 8004664:	f7ff fd64 	bl	8004130 <__lo0bits>
 8004668:	9b01      	ldr	r3, [sp, #4]
 800466a:	6163      	str	r3, [r4, #20]
 800466c:	2201      	movs	r2, #1
 800466e:	6122      	str	r2, [r4, #16]
 8004670:	3020      	adds	r0, #32
 8004672:	e7e3      	b.n	800463c <__d2b+0x60>
 8004674:	eb04 0382 	add.w	r3, r4, r2, lsl #2
 8004678:	f2a0 4032 	subw	r0, r0, #1074	; 0x432
 800467c:	f8c9 0000 	str.w	r0, [r9]
 8004680:	6918      	ldr	r0, [r3, #16]
 8004682:	f7ff fd35 	bl	80040f0 <__hi0bits>
 8004686:	ebc0 1042 	rsb	r0, r0, r2, lsl #5
 800468a:	e7df      	b.n	800464c <__d2b+0x70>
 800468c:	080057d3 	.word	0x080057d3
 8004690:	080057e4 	.word	0x080057e4

08004694 <_calloc_r>:
 8004694:	b513      	push	{r0, r1, r4, lr}
 8004696:	434a      	muls	r2, r1
 8004698:	4611      	mov	r1, r2
 800469a:	9201      	str	r2, [sp, #4]
 800469c:	f000 f85a 	bl	8004754 <_malloc_r>
 80046a0:	4604      	mov	r4, r0
 80046a2:	b118      	cbz	r0, 80046ac <_calloc_r+0x18>
 80046a4:	9a01      	ldr	r2, [sp, #4]
 80046a6:	2100      	movs	r1, #0
 80046a8:	f7fe f960 	bl	800296c <memset>
 80046ac:	4620      	mov	r0, r4
 80046ae:	b002      	add	sp, #8
 80046b0:	bd10      	pop	{r4, pc}
	...

080046b4 <_free_r>:
 80046b4:	b537      	push	{r0, r1, r2, r4, r5, lr}
 80046b6:	2900      	cmp	r1, #0
 80046b8:	d048      	beq.n	800474c <_free_r+0x98>
 80046ba:	f851 3c04 	ldr.w	r3, [r1, #-4]
 80046be:	9001      	str	r0, [sp, #4]
 80046c0:	2b00      	cmp	r3, #0
 80046c2:	f1a1 0404 	sub.w	r4, r1, #4
 80046c6:	bfb8      	it	lt
 80046c8:	18e4      	addlt	r4, r4, r3
 80046ca:	f000 fa65 	bl	8004b98 <__malloc_lock>
 80046ce:	4a20      	ldr	r2, [pc, #128]	; (8004750 <_free_r+0x9c>)
 80046d0:	9801      	ldr	r0, [sp, #4]
 80046d2:	6813      	ldr	r3, [r2, #0]
 80046d4:	4615      	mov	r5, r2
 80046d6:	b933      	cbnz	r3, 80046e6 <_free_r+0x32>
 80046d8:	6063      	str	r3, [r4, #4]
 80046da:	6014      	str	r4, [r2, #0]
 80046dc:	b003      	add	sp, #12
 80046de:	e8bd 4030 	ldmia.w	sp!, {r4, r5, lr}
 80046e2:	f000 ba5f 	b.w	8004ba4 <__malloc_unlock>
 80046e6:	42a3      	cmp	r3, r4
 80046e8:	d90b      	bls.n	8004702 <_free_r+0x4e>
 80046ea:	6821      	ldr	r1, [r4, #0]
 80046ec:	1862      	adds	r2, r4, r1
 80046ee:	4293      	cmp	r3, r2
 80046f0:	bf04      	itt	eq
 80046f2:	681a      	ldreq	r2, [r3, #0]
 80046f4:	685b      	ldreq	r3, [r3, #4]
 80046f6:	6063      	str	r3, [r4, #4]
 80046f8:	bf04      	itt	eq
 80046fa:	1852      	addeq	r2, r2, r1
 80046fc:	6022      	streq	r2, [r4, #0]
 80046fe:	602c      	str	r4, [r5, #0]
 8004700:	e7ec      	b.n	80046dc <_free_r+0x28>
 8004702:	461a      	mov	r2, r3
 8004704:	685b      	ldr	r3, [r3, #4]
 8004706:	b10b      	cbz	r3, 800470c <_free_r+0x58>
 8004708:	42a3      	cmp	r3, r4
 800470a:	d9fa      	bls.n	8004702 <_free_r+0x4e>
 800470c:	6811      	ldr	r1, [r2, #0]
 800470e:	1855      	adds	r5, r2, r1
 8004710:	42a5      	cmp	r5, r4
 8004712:	d10b      	bne.n	800472c <_free_r+0x78>
 8004714:	6824      	ldr	r4, [r4, #0]
 8004716:	4421      	add	r1, r4
 8004718:	1854      	adds	r4, r2, r1
 800471a:	42a3      	cmp	r3, r4
 800471c:	6011      	str	r1, [r2, #0]
 800471e:	d1dd      	bne.n	80046dc <_free_r+0x28>
 8004720:	681c      	ldr	r4, [r3, #0]
 8004722:	685b      	ldr	r3, [r3, #4]
 8004724:	6053      	str	r3, [r2, #4]
 8004726:	4421      	add	r1, r4
 8004728:	6011      	str	r1, [r2, #0]
 800472a:	e7d7      	b.n	80046dc <_free_r+0x28>
 800472c:	d902      	bls.n	8004734 <_free_r+0x80>
 800472e:	230c      	movs	r3, #12
 8004730:	6003      	str	r3, [r0, #0]
 8004732:	e7d3      	b.n	80046dc <_free_r+0x28>
 8004734:	6825      	ldr	r5, [r4, #0]
 8004736:	1961      	adds	r1, r4, r5
 8004738:	428b      	cmp	r3, r1
 800473a:	bf04      	itt	eq
 800473c:	6819      	ldreq	r1, [r3, #0]
 800473e:	685b      	ldreq	r3, [r3, #4]
 8004740:	6063      	str	r3, [r4, #4]
 8004742:	bf04      	itt	eq
 8004744:	1949      	addeq	r1, r1, r5
 8004746:	6021      	streq	r1, [r4, #0]
 8004748:	6054      	str	r4, [r2, #4]
 800474a:	e7c7      	b.n	80046dc <_free_r+0x28>
 800474c:	b003      	add	sp, #12
 800474e:	bd30      	pop	{r4, r5, pc}
 8004750:	20000204 	.word	0x20000204

08004754 <_malloc_r>:
 8004754:	b5f8      	push	{r3, r4, r5, r6, r7, lr}
 8004756:	1ccd      	adds	r5, r1, #3
 8004758:	f025 0503 	bic.w	r5, r5, #3
 800475c:	3508      	adds	r5, #8
 800475e:	2d0c      	cmp	r5, #12
 8004760:	bf38      	it	cc
 8004762:	250c      	movcc	r5, #12
 8004764:	2d00      	cmp	r5, #0
 8004766:	4606      	mov	r6, r0
 8004768:	db01      	blt.n	800476e <_malloc_r+0x1a>
 800476a:	42a9      	cmp	r1, r5
 800476c:	d903      	bls.n	8004776 <_malloc_r+0x22>
 800476e:	230c      	movs	r3, #12
 8004770:	6033      	str	r3, [r6, #0]
 8004772:	2000      	movs	r0, #0
 8004774:	bdf8      	pop	{r3, r4, r5, r6, r7, pc}
 8004776:	f000 fa0f 	bl	8004b98 <__malloc_lock>
 800477a:	4921      	ldr	r1, [pc, #132]	; (8004800 <_malloc_r+0xac>)
 800477c:	680a      	ldr	r2, [r1, #0]
 800477e:	4614      	mov	r4, r2
 8004780:	b99c      	cbnz	r4, 80047aa <_malloc_r+0x56>
 8004782:	4f20      	ldr	r7, [pc, #128]	; (8004804 <_malloc_r+0xb0>)
 8004784:	683b      	ldr	r3, [r7, #0]
 8004786:	b923      	cbnz	r3, 8004792 <_malloc_r+0x3e>
 8004788:	4621      	mov	r1, r4
 800478a:	4630      	mov	r0, r6
 800478c:	f000 f998 	bl	8004ac0 <_sbrk_r>
 8004790:	6038      	str	r0, [r7, #0]
 8004792:	4629      	mov	r1, r5
 8004794:	4630      	mov	r0, r6
 8004796:	f000 f993 	bl	8004ac0 <_sbrk_r>
 800479a:	1c43      	adds	r3, r0, #1
 800479c:	d123      	bne.n	80047e6 <_malloc_r+0x92>
 800479e:	230c      	movs	r3, #12
 80047a0:	6033      	str	r3, [r6, #0]
 80047a2:	4630      	mov	r0, r6
 80047a4:	f000 f9fe 	bl	8004ba4 <__malloc_unlock>
 80047a8:	e7e3      	b.n	8004772 <_malloc_r+0x1e>
 80047aa:	6823      	ldr	r3, [r4, #0]
 80047ac:	1b5b      	subs	r3, r3, r5
 80047ae:	d417      	bmi.n	80047e0 <_malloc_r+0x8c>
 80047b0:	2b0b      	cmp	r3, #11
 80047b2:	d903      	bls.n	80047bc <_malloc_r+0x68>
 80047b4:	6023      	str	r3, [r4, #0]
 80047b6:	441c      	add	r4, r3
 80047b8:	6025      	str	r5, [r4, #0]
 80047ba:	e004      	b.n	80047c6 <_malloc_r+0x72>
 80047bc:	6863      	ldr	r3, [r4, #4]
 80047be:	42a2      	cmp	r2, r4
 80047c0:	bf0c      	ite	eq
 80047c2:	600b      	streq	r3, [r1, #0]
 80047c4:	6053      	strne	r3, [r2, #4]
 80047c6:	4630      	mov	r0, r6
 80047c8:	f000 f9ec 	bl	8004ba4 <__malloc_unlock>
 80047cc:	f104 000b 	add.w	r0, r4, #11
 80047d0:	1d23      	adds	r3, r4, #4
 80047d2:	f020 0007 	bic.w	r0, r0, #7
 80047d6:	1ac2      	subs	r2, r0, r3
 80047d8:	d0cc      	beq.n	8004774 <_malloc_r+0x20>
 80047da:	1a1b      	subs	r3, r3, r0
 80047dc:	50a3      	str	r3, [r4, r2]
 80047de:	e7c9      	b.n	8004774 <_malloc_r+0x20>
 80047e0:	4622      	mov	r2, r4
 80047e2:	6864      	ldr	r4, [r4, #4]
 80047e4:	e7cc      	b.n	8004780 <_malloc_r+0x2c>
 80047e6:	1cc4      	adds	r4, r0, #3
 80047e8:	f024 0403 	bic.w	r4, r4, #3
 80047ec:	42a0      	cmp	r0, r4
 80047ee:	d0e3      	beq.n	80047b8 <_malloc_r+0x64>
 80047f0:	1a21      	subs	r1, r4, r0
 80047f2:	4630      	mov	r0, r6
 80047f4:	f000 f964 	bl	8004ac0 <_sbrk_r>
 80047f8:	3001      	adds	r0, #1
 80047fa:	d1dd      	bne.n	80047b8 <_malloc_r+0x64>
 80047fc:	e7cf      	b.n	800479e <_malloc_r+0x4a>
 80047fe:	bf00      	nop
 8004800:	20000204 	.word	0x20000204
 8004804:	20000208 	.word	0x20000208

08004808 <__ssputs_r>:
 8004808:	e92d 47f0 	stmdb	sp!, {r4, r5, r6, r7, r8, r9, sl, lr}
 800480c:	688e      	ldr	r6, [r1, #8]
 800480e:	429e      	cmp	r6, r3
 8004810:	4682      	mov	sl, r0
 8004812:	460c      	mov	r4, r1
 8004814:	4690      	mov	r8, r2
 8004816:	461f      	mov	r7, r3
 8004818:	d838      	bhi.n	800488c <__ssputs_r+0x84>
 800481a:	898a      	ldrh	r2, [r1, #12]
 800481c:	f412 6f90 	tst.w	r2, #1152	; 0x480
 8004820:	d032      	beq.n	8004888 <__ssputs_r+0x80>
 8004822:	6825      	ldr	r5, [r4, #0]
 8004824:	6909      	ldr	r1, [r1, #16]
 8004826:	eba5 0901 	sub.w	r9, r5, r1
 800482a:	6965      	ldr	r5, [r4, #20]
 800482c:	eb05 0545 	add.w	r5, r5, r5, lsl #1
 8004830:	eb05 75d5 	add.w	r5, r5, r5, lsr #31
 8004834:	3301      	adds	r3, #1
 8004836:	444b      	add	r3, r9
 8004838:	106d      	asrs	r5, r5, #1
 800483a:	429d      	cmp	r5, r3
 800483c:	bf38      	it	cc
 800483e:	461d      	movcc	r5, r3
 8004840:	0553      	lsls	r3, r2, #21
 8004842:	d531      	bpl.n	80048a8 <__ssputs_r+0xa0>
 8004844:	4629      	mov	r1, r5
 8004846:	f7ff ff85 	bl	8004754 <_malloc_r>
 800484a:	4606      	mov	r6, r0
 800484c:	b950      	cbnz	r0, 8004864 <__ssputs_r+0x5c>
 800484e:	230c      	movs	r3, #12
 8004850:	f8ca 3000 	str.w	r3, [sl]
 8004854:	89a3      	ldrh	r3, [r4, #12]
 8004856:	f043 0340 	orr.w	r3, r3, #64	; 0x40
 800485a:	81a3      	strh	r3, [r4, #12]
 800485c:	f04f 30ff 	mov.w	r0, #4294967295
 8004860:	e8bd 87f0 	ldmia.w	sp!, {r4, r5, r6, r7, r8, r9, sl, pc}
 8004864:	6921      	ldr	r1, [r4, #16]
 8004866:	464a      	mov	r2, r9
 8004868:	f7fe f872 	bl	8002950 <memcpy>
 800486c:	89a3      	ldrh	r3, [r4, #12]
 800486e:	f423 6390 	bic.w	r3, r3, #1152	; 0x480
 8004872:	f043 0380 	orr.w	r3, r3, #128	; 0x80
 8004876:	81a3      	strh	r3, [r4, #12]
 8004878:	6126      	str	r6, [r4, #16]
 800487a:	6165      	str	r5, [r4, #20]
 800487c:	444e      	add	r6, r9
 800487e:	eba5 0509 	sub.w	r5, r5, r9
 8004882:	6026      	str	r6, [r4, #0]
 8004884:	60a5      	str	r5, [r4, #8]
 8004886:	463e      	mov	r6, r7
 8004888:	42be      	cmp	r6, r7
 800488a:	d900      	bls.n	800488e <__ssputs_r+0x86>
 800488c:	463e      	mov	r6, r7
 800488e:	4632      	mov	r2, r6
 8004890:	6820      	ldr	r0, [r4, #0]
 8004892:	4641      	mov	r1, r8
 8004894:	f000 f966 	bl	8004b64 <memmove>
 8004898:	68a3      	ldr	r3, [r4, #8]
 800489a:	6822      	ldr	r2, [r4, #0]
 800489c:	1b9b      	subs	r3, r3, r6
 800489e:	4432      	add	r2, r6
 80048a0:	60a3      	str	r3, [r4, #8]
 80048a2:	6022      	str	r2, [r4, #0]
 80048a4:	2000      	movs	r0, #0
 80048a6:	e7db      	b.n	8004860 <__ssputs_r+0x58>
 80048a8:	462a      	mov	r2, r5
 80048aa:	f000 f981 	bl	8004bb0 <_realloc_r>
 80048ae:	4606      	mov	r6, r0
 80048b0:	2800      	cmp	r0, #0
 80048b2:	d1e1      	bne.n	8004878 <__ssputs_r+0x70>
 80048b4:	6921      	ldr	r1, [r4, #16]
 80048b6:	4650      	mov	r0, sl
 80048b8:	f7ff fefc 	bl	80046b4 <_free_r>
 80048bc:	e7c7      	b.n	800484e <__ssputs_r+0x46>
	...

080048c0 <_svfiprintf_r>:
 80048c0:	e92d 4ff0 	stmdb	sp!, {r4, r5, r6, r7, r8, r9, sl, fp, lr}
 80048c4:	4698      	mov	r8, r3
 80048c6:	898b      	ldrh	r3, [r1, #12]
 80048c8:	061b      	lsls	r3, r3, #24
 80048ca:	b09d      	sub	sp, #116	; 0x74
 80048cc:	4607      	mov	r7, r0
 80048ce:	460d      	mov	r5, r1
 80048d0:	4614      	mov	r4, r2
 80048d2:	d50e      	bpl.n	80048f2 <_svfiprintf_r+0x32>
 80048d4:	690b      	ldr	r3, [r1, #16]
 80048d6:	b963      	cbnz	r3, 80048f2 <_svfiprintf_r+0x32>
 80048d8:	2140      	movs	r1, #64	; 0x40
 80048da:	f7ff ff3b 	bl	8004754 <_malloc_r>
 80048de:	6028      	str	r0, [r5, #0]
 80048e0:	6128      	str	r0, [r5, #16]
 80048e2:	b920      	cbnz	r0, 80048ee <_svfiprintf_r+0x2e>
 80048e4:	230c      	movs	r3, #12
 80048e6:	603b      	str	r3, [r7, #0]
 80048e8:	f04f 30ff 	mov.w	r0, #4294967295
 80048ec:	e0d1      	b.n	8004a92 <_svfiprintf_r+0x1d2>
 80048ee:	2340      	movs	r3, #64	; 0x40
 80048f0:	616b      	str	r3, [r5, #20]
 80048f2:	2300      	movs	r3, #0
 80048f4:	9309      	str	r3, [sp, #36]	; 0x24
 80048f6:	2320      	movs	r3, #32
 80048f8:	f88d 3029 	strb.w	r3, [sp, #41]	; 0x29
 80048fc:	f8cd 800c 	str.w	r8, [sp, #12]
 8004900:	2330      	movs	r3, #48	; 0x30
 8004902:	f8df 81a8 	ldr.w	r8, [pc, #424]	; 8004aac <_svfiprintf_r+0x1ec>
 8004906:	f88d 302a 	strb.w	r3, [sp, #42]	; 0x2a
 800490a:	f04f 0901 	mov.w	r9, #1
 800490e:	4623      	mov	r3, r4
 8004910:	469a      	mov	sl, r3
 8004912:	f813 2b01 	ldrb.w	r2, [r3], #1
 8004916:	b10a      	cbz	r2, 800491c <_svfiprintf_r+0x5c>
 8004918:	2a25      	cmp	r2, #37	; 0x25
 800491a:	d1f9      	bne.n	8004910 <_svfiprintf_r+0x50>
 800491c:	ebba 0b04 	subs.w	fp, sl, r4
 8004920:	d00b      	beq.n	800493a <_svfiprintf_r+0x7a>
 8004922:	465b      	mov	r3, fp
 8004924:	4622      	mov	r2, r4
 8004926:	4629      	mov	r1, r5
 8004928:	4638      	mov	r0, r7
 800492a:	f7ff ff6d 	bl	8004808 <__ssputs_r>
 800492e:	3001      	adds	r0, #1
 8004930:	f000 80aa 	beq.w	8004a88 <_svfiprintf_r+0x1c8>
 8004934:	9a09      	ldr	r2, [sp, #36]	; 0x24
 8004936:	445a      	add	r2, fp
 8004938:	9209      	str	r2, [sp, #36]	; 0x24
 800493a:	f89a 3000 	ldrb.w	r3, [sl]
 800493e:	2b00      	cmp	r3, #0
 8004940:	f000 80a2 	beq.w	8004a88 <_svfiprintf_r+0x1c8>
 8004944:	2300      	movs	r3, #0
 8004946:	f04f 32ff 	mov.w	r2, #4294967295
 800494a:	e9cd 2305 	strd	r2, r3, [sp, #20]
 800494e:	f10a 0a01 	add.w	sl, sl, #1
 8004952:	9304      	str	r3, [sp, #16]
 8004954:	9307      	str	r3, [sp, #28]
 8004956:	f88d 3053 	strb.w	r3, [sp, #83]	; 0x53
 800495a:	931a      	str	r3, [sp, #104]	; 0x68
 800495c:	4654      	mov	r4, sl
 800495e:	2205      	movs	r2, #5
 8004960:	f814 1b01 	ldrb.w	r1, [r4], #1
 8004964:	4851      	ldr	r0, [pc, #324]	; (8004aac <_svfiprintf_r+0x1ec>)
 8004966:	f7fb fc3b 	bl	80001e0 <memchr>
 800496a:	9a04      	ldr	r2, [sp, #16]
 800496c:	b9d8      	cbnz	r0, 80049a6 <_svfiprintf_r+0xe6>
 800496e:	06d0      	lsls	r0, r2, #27
 8004970:	bf44      	itt	mi
 8004972:	2320      	movmi	r3, #32
 8004974:	f88d 3053 	strbmi.w	r3, [sp, #83]	; 0x53
 8004978:	0711      	lsls	r1, r2, #28
 800497a:	bf44      	itt	mi
 800497c:	232b      	movmi	r3, #43	; 0x2b
 800497e:	f88d 3053 	strbmi.w	r3, [sp, #83]	; 0x53
 8004982:	f89a 3000 	ldrb.w	r3, [sl]
 8004986:	2b2a      	cmp	r3, #42	; 0x2a
 8004988:	d015      	beq.n	80049b6 <_svfiprintf_r+0xf6>
 800498a:	9a07      	ldr	r2, [sp, #28]
 800498c:	4654      	mov	r4, sl
 800498e:	2000      	movs	r0, #0
 8004990:	f04f 0c0a 	mov.w	ip, #10
 8004994:	4621      	mov	r1, r4
 8004996:	f811 3b01 	ldrb.w	r3, [r1], #1
 800499a:	3b30      	subs	r3, #48	; 0x30
 800499c:	2b09      	cmp	r3, #9
 800499e:	d94e      	bls.n	8004a3e <_svfiprintf_r+0x17e>
 80049a0:	b1b0      	cbz	r0, 80049d0 <_svfiprintf_r+0x110>
 80049a2:	9207      	str	r2, [sp, #28]
 80049a4:	e014      	b.n	80049d0 <_svfiprintf_r+0x110>
 80049a6:	eba0 0308 	sub.w	r3, r0, r8
 80049aa:	fa09 f303 	lsl.w	r3, r9, r3
 80049ae:	4313      	orrs	r3, r2
 80049b0:	9304      	str	r3, [sp, #16]
 80049b2:	46a2      	mov	sl, r4
 80049b4:	e7d2      	b.n	800495c <_svfiprintf_r+0x9c>
 80049b6:	9b03      	ldr	r3, [sp, #12]
 80049b8:	1d19      	adds	r1, r3, #4
 80049ba:	681b      	ldr	r3, [r3, #0]
 80049bc:	9103      	str	r1, [sp, #12]
 80049be:	2b00      	cmp	r3, #0
 80049c0:	bfbb      	ittet	lt
 80049c2:	425b      	neglt	r3, r3
 80049c4:	f042 0202 	orrlt.w	r2, r2, #2
 80049c8:	9307      	strge	r3, [sp, #28]
 80049ca:	9307      	strlt	r3, [sp, #28]
 80049cc:	bfb8      	it	lt
 80049ce:	9204      	strlt	r2, [sp, #16]
 80049d0:	7823      	ldrb	r3, [r4, #0]
 80049d2:	2b2e      	cmp	r3, #46	; 0x2e
 80049d4:	d10c      	bne.n	80049f0 <_svfiprintf_r+0x130>
 80049d6:	7863      	ldrb	r3, [r4, #1]
 80049d8:	2b2a      	cmp	r3, #42	; 0x2a
 80049da:	d135      	bne.n	8004a48 <_svfiprintf_r+0x188>
 80049dc:	9b03      	ldr	r3, [sp, #12]
 80049de:	1d1a      	adds	r2, r3, #4
 80049e0:	681b      	ldr	r3, [r3, #0]
 80049e2:	9203      	str	r2, [sp, #12]
 80049e4:	2b00      	cmp	r3, #0
 80049e6:	bfb8      	it	lt
 80049e8:	f04f 33ff 	movlt.w	r3, #4294967295
 80049ec:	3402      	adds	r4, #2
 80049ee:	9305      	str	r3, [sp, #20]
 80049f0:	f8df a0c8 	ldr.w	sl, [pc, #200]	; 8004abc <_svfiprintf_r+0x1fc>
 80049f4:	7821      	ldrb	r1, [r4, #0]
 80049f6:	2203      	movs	r2, #3
 80049f8:	4650      	mov	r0, sl
 80049fa:	f7fb fbf1 	bl	80001e0 <memchr>
 80049fe:	b140      	cbz	r0, 8004a12 <_svfiprintf_r+0x152>
 8004a00:	2340      	movs	r3, #64	; 0x40
 8004a02:	eba0 000a 	sub.w	r0, r0, sl
 8004a06:	fa03 f000 	lsl.w	r0, r3, r0
 8004a0a:	9b04      	ldr	r3, [sp, #16]
 8004a0c:	4303      	orrs	r3, r0
 8004a0e:	3401      	adds	r4, #1
 8004a10:	9304      	str	r3, [sp, #16]
 8004a12:	f814 1b01 	ldrb.w	r1, [r4], #1
 8004a16:	4826      	ldr	r0, [pc, #152]	; (8004ab0 <_svfiprintf_r+0x1f0>)
 8004a18:	f88d 1028 	strb.w	r1, [sp, #40]	; 0x28
 8004a1c:	2206      	movs	r2, #6
 8004a1e:	f7fb fbdf 	bl	80001e0 <memchr>
 8004a22:	2800      	cmp	r0, #0
 8004a24:	d038      	beq.n	8004a98 <_svfiprintf_r+0x1d8>
 8004a26:	4b23      	ldr	r3, [pc, #140]	; (8004ab4 <_svfiprintf_r+0x1f4>)
 8004a28:	bb1b      	cbnz	r3, 8004a72 <_svfiprintf_r+0x1b2>
 8004a2a:	9b03      	ldr	r3, [sp, #12]
 8004a2c:	3307      	adds	r3, #7
 8004a2e:	f023 0307 	bic.w	r3, r3, #7
 8004a32:	3308      	adds	r3, #8
 8004a34:	9303      	str	r3, [sp, #12]
 8004a36:	9b09      	ldr	r3, [sp, #36]	; 0x24
 8004a38:	4433      	add	r3, r6
 8004a3a:	9309      	str	r3, [sp, #36]	; 0x24
 8004a3c:	e767      	b.n	800490e <_svfiprintf_r+0x4e>
 8004a3e:	fb0c 3202 	mla	r2, ip, r2, r3
 8004a42:	460c      	mov	r4, r1
 8004a44:	2001      	movs	r0, #1
 8004a46:	e7a5      	b.n	8004994 <_svfiprintf_r+0xd4>
 8004a48:	2300      	movs	r3, #0
 8004a4a:	3401      	adds	r4, #1
 8004a4c:	9305      	str	r3, [sp, #20]
 8004a4e:	4619      	mov	r1, r3
 8004a50:	f04f 0c0a 	mov.w	ip, #10
 8004a54:	4620      	mov	r0, r4
 8004a56:	f810 2b01 	ldrb.w	r2, [r0], #1
 8004a5a:	3a30      	subs	r2, #48	; 0x30
 8004a5c:	2a09      	cmp	r2, #9
 8004a5e:	d903      	bls.n	8004a68 <_svfiprintf_r+0x1a8>
 8004a60:	2b00      	cmp	r3, #0
 8004a62:	d0c5      	beq.n	80049f0 <_svfiprintf_r+0x130>
 8004a64:	9105      	str	r1, [sp, #20]
 8004a66:	e7c3      	b.n	80049f0 <_svfiprintf_r+0x130>
 8004a68:	fb0c 2101 	mla	r1, ip, r1, r2
 8004a6c:	4604      	mov	r4, r0
 8004a6e:	2301      	movs	r3, #1
 8004a70:	e7f0      	b.n	8004a54 <_svfiprintf_r+0x194>
 8004a72:	ab03      	add	r3, sp, #12
 8004a74:	9300      	str	r3, [sp, #0]
 8004a76:	462a      	mov	r2, r5
 8004a78:	4b0f      	ldr	r3, [pc, #60]	; (8004ab8 <_svfiprintf_r+0x1f8>)
 8004a7a:	a904      	add	r1, sp, #16
 8004a7c:	4638      	mov	r0, r7
 8004a7e:	f7fe f81d 	bl	8002abc <_printf_float>
 8004a82:	1c42      	adds	r2, r0, #1
 8004a84:	4606      	mov	r6, r0
 8004a86:	d1d6      	bne.n	8004a36 <_svfiprintf_r+0x176>
 8004a88:	89ab      	ldrh	r3, [r5, #12]
 8004a8a:	065b      	lsls	r3, r3, #25
 8004a8c:	f53f af2c 	bmi.w	80048e8 <_svfiprintf_r+0x28>
 8004a90:	9809      	ldr	r0, [sp, #36]	; 0x24
 8004a92:	b01d      	add	sp, #116	; 0x74
 8004a94:	e8bd 8ff0 	ldmia.w	sp!, {r4, r5, r6, r7, r8, r9, sl, fp, pc}
 8004a98:	ab03      	add	r3, sp, #12
 8004a9a:	9300      	str	r3, [sp, #0]
 8004a9c:	462a      	mov	r2, r5
 8004a9e:	4b06      	ldr	r3, [pc, #24]	; (8004ab8 <_svfiprintf_r+0x1f8>)
 8004aa0:	a904      	add	r1, sp, #16
 8004aa2:	4638      	mov	r0, r7
 8004aa4:	f7fe faae 	bl	8003004 <_printf_i>
 8004aa8:	e7eb      	b.n	8004a82 <_svfiprintf_r+0x1c2>
 8004aaa:	bf00      	nop
 8004aac:	08005944 	.word	0x08005944
 8004ab0:	0800594e 	.word	0x0800594e
 8004ab4:	08002abd 	.word	0x08002abd
 8004ab8:	08004809 	.word	0x08004809
 8004abc:	0800594a 	.word	0x0800594a

08004ac0 <_sbrk_r>:
 8004ac0:	b538      	push	{r3, r4, r5, lr}
 8004ac2:	4d06      	ldr	r5, [pc, #24]	; (8004adc <_sbrk_r+0x1c>)
 8004ac4:	2300      	movs	r3, #0
 8004ac6:	4604      	mov	r4, r0
 8004ac8:	4608      	mov	r0, r1
 8004aca:	602b      	str	r3, [r5, #0]
 8004acc:	f7fd f986 	bl	8001ddc <_sbrk>
 8004ad0:	1c43      	adds	r3, r0, #1
 8004ad2:	d102      	bne.n	8004ada <_sbrk_r+0x1a>
 8004ad4:	682b      	ldr	r3, [r5, #0]
 8004ad6:	b103      	cbz	r3, 8004ada <_sbrk_r+0x1a>
 8004ad8:	6023      	str	r3, [r4, #0]
 8004ada:	bd38      	pop	{r3, r4, r5, pc}
 8004adc:	20000314 	.word	0x20000314

08004ae0 <__assert_func>:
 8004ae0:	b51f      	push	{r0, r1, r2, r3, r4, lr}
 8004ae2:	4614      	mov	r4, r2
 8004ae4:	461a      	mov	r2, r3
 8004ae6:	4b09      	ldr	r3, [pc, #36]	; (8004b0c <__assert_func+0x2c>)
 8004ae8:	681b      	ldr	r3, [r3, #0]
 8004aea:	4605      	mov	r5, r0
 8004aec:	68d8      	ldr	r0, [r3, #12]
 8004aee:	b14c      	cbz	r4, 8004b04 <__assert_func+0x24>
 8004af0:	4b07      	ldr	r3, [pc, #28]	; (8004b10 <__assert_func+0x30>)
 8004af2:	9100      	str	r1, [sp, #0]
 8004af4:	e9cd 3401 	strd	r3, r4, [sp, #4]
 8004af8:	4906      	ldr	r1, [pc, #24]	; (8004b14 <__assert_func+0x34>)
 8004afa:	462b      	mov	r3, r5
 8004afc:	f000 f80e 	bl	8004b1c <fiprintf>
 8004b00:	f000 faa4 	bl	800504c <abort>
 8004b04:	4b04      	ldr	r3, [pc, #16]	; (8004b18 <__assert_func+0x38>)
 8004b06:	461c      	mov	r4, r3
 8004b08:	e7f3      	b.n	8004af2 <__assert_func+0x12>
 8004b0a:	bf00      	nop
 8004b0c:	20000004 	.word	0x20000004
 8004b10:	08005955 	.word	0x08005955
 8004b14:	08005962 	.word	0x08005962
 8004b18:	08005990 	.word	0x08005990

08004b1c <fiprintf>:
 8004b1c:	b40e      	push	{r1, r2, r3}
 8004b1e:	b503      	push	{r0, r1, lr}
 8004b20:	4601      	mov	r1, r0
 8004b22:	ab03      	add	r3, sp, #12
 8004b24:	4805      	ldr	r0, [pc, #20]	; (8004b3c <fiprintf+0x20>)
 8004b26:	f853 2b04 	ldr.w	r2, [r3], #4
 8004b2a:	6800      	ldr	r0, [r0, #0]
 8004b2c:	9301      	str	r3, [sp, #4]
 8004b2e:	f000 f88f 	bl	8004c50 <_vfiprintf_r>
 8004b32:	b002      	add	sp, #8
 8004b34:	f85d eb04 	ldr.w	lr, [sp], #4
 8004b38:	b003      	add	sp, #12
 8004b3a:	4770      	bx	lr
 8004b3c:	20000004 	.word	0x20000004

08004b40 <__ascii_mbtowc>:
 8004b40:	b082      	sub	sp, #8
 8004b42:	b901      	cbnz	r1, 8004b46 <__ascii_mbtowc+0x6>
 8004b44:	a901      	add	r1, sp, #4
 8004b46:	b142      	cbz	r2, 8004b5a <__ascii_mbtowc+0x1a>
 8004b48:	b14b      	cbz	r3, 8004b5e <__ascii_mbtowc+0x1e>
 8004b4a:	7813      	ldrb	r3, [r2, #0]
 8004b4c:	600b      	str	r3, [r1, #0]
 8004b4e:	7812      	ldrb	r2, [r2, #0]
 8004b50:	1e10      	subs	r0, r2, #0
 8004b52:	bf18      	it	ne
 8004b54:	2001      	movne	r0, #1
 8004b56:	b002      	add	sp, #8
 8004b58:	4770      	bx	lr
 8004b5a:	4610      	mov	r0, r2
 8004b5c:	e7fb      	b.n	8004b56 <__ascii_mbtowc+0x16>
 8004b5e:	f06f 0001 	mvn.w	r0, #1
 8004b62:	e7f8      	b.n	8004b56 <__ascii_mbtowc+0x16>

08004b64 <memmove>:
 8004b64:	4288      	cmp	r0, r1
 8004b66:	b510      	push	{r4, lr}
 8004b68:	eb01 0402 	add.w	r4, r1, r2
 8004b6c:	d902      	bls.n	8004b74 <memmove+0x10>
 8004b6e:	4284      	cmp	r4, r0
 8004b70:	4623      	mov	r3, r4
 8004b72:	d807      	bhi.n	8004b84 <memmove+0x20>
 8004b74:	1e43      	subs	r3, r0, #1
 8004b76:	42a1      	cmp	r1, r4
 8004b78:	d008      	beq.n	8004b8c <memmove+0x28>
 8004b7a:	f811 2b01 	ldrb.w	r2, [r1], #1
 8004b7e:	f803 2f01 	strb.w	r2, [r3, #1]!
 8004b82:	e7f8      	b.n	8004b76 <memmove+0x12>
 8004b84:	4402      	add	r2, r0
 8004b86:	4601      	mov	r1, r0
 8004b88:	428a      	cmp	r2, r1
 8004b8a:	d100      	bne.n	8004b8e <memmove+0x2a>
 8004b8c:	bd10      	pop	{r4, pc}
 8004b8e:	f813 4d01 	ldrb.w	r4, [r3, #-1]!
 8004b92:	f802 4d01 	strb.w	r4, [r2, #-1]!
 8004b96:	e7f7      	b.n	8004b88 <memmove+0x24>

08004b98 <__malloc_lock>:
 8004b98:	4801      	ldr	r0, [pc, #4]	; (8004ba0 <__malloc_lock+0x8>)
 8004b9a:	f000 bc17 	b.w	80053cc <__retarget_lock_acquire_recursive>
 8004b9e:	bf00      	nop
 8004ba0:	2000031c 	.word	0x2000031c

08004ba4 <__malloc_unlock>:
 8004ba4:	4801      	ldr	r0, [pc, #4]	; (8004bac <__malloc_unlock+0x8>)
 8004ba6:	f000 bc12 	b.w	80053ce <__retarget_lock_release_recursive>
 8004baa:	bf00      	nop
 8004bac:	2000031c 	.word	0x2000031c

08004bb0 <_realloc_r>:
 8004bb0:	b5f8      	push	{r3, r4, r5, r6, r7, lr}
 8004bb2:	4607      	mov	r7, r0
 8004bb4:	4614      	mov	r4, r2
 8004bb6:	460e      	mov	r6, r1
 8004bb8:	b921      	cbnz	r1, 8004bc4 <_realloc_r+0x14>
 8004bba:	e8bd 40f8 	ldmia.w	sp!, {r3, r4, r5, r6, r7, lr}
 8004bbe:	4611      	mov	r1, r2
 8004bc0:	f7ff bdc8 	b.w	8004754 <_malloc_r>
 8004bc4:	b922      	cbnz	r2, 8004bd0 <_realloc_r+0x20>
 8004bc6:	f7ff fd75 	bl	80046b4 <_free_r>
 8004bca:	4625      	mov	r5, r4
 8004bcc:	4628      	mov	r0, r5
 8004bce:	bdf8      	pop	{r3, r4, r5, r6, r7, pc}
 8004bd0:	f000 fc62 	bl	8005498 <_malloc_usable_size_r>
 8004bd4:	42a0      	cmp	r0, r4
 8004bd6:	d20f      	bcs.n	8004bf8 <_realloc_r+0x48>
 8004bd8:	4621      	mov	r1, r4
 8004bda:	4638      	mov	r0, r7
 8004bdc:	f7ff fdba 	bl	8004754 <_malloc_r>
 8004be0:	4605      	mov	r5, r0
 8004be2:	2800      	cmp	r0, #0
 8004be4:	d0f2      	beq.n	8004bcc <_realloc_r+0x1c>
 8004be6:	4631      	mov	r1, r6
 8004be8:	4622      	mov	r2, r4
 8004bea:	f7fd feb1 	bl	8002950 <memcpy>
 8004bee:	4631      	mov	r1, r6
 8004bf0:	4638      	mov	r0, r7
 8004bf2:	f7ff fd5f 	bl	80046b4 <_free_r>
 8004bf6:	e7e9      	b.n	8004bcc <_realloc_r+0x1c>
 8004bf8:	4635      	mov	r5, r6
 8004bfa:	e7e7      	b.n	8004bcc <_realloc_r+0x1c>

08004bfc <__sfputc_r>:
 8004bfc:	6893      	ldr	r3, [r2, #8]
 8004bfe:	3b01      	subs	r3, #1
 8004c00:	2b00      	cmp	r3, #0
 8004c02:	b410      	push	{r4}
 8004c04:	6093      	str	r3, [r2, #8]
 8004c06:	da08      	bge.n	8004c1a <__sfputc_r+0x1e>
 8004c08:	6994      	ldr	r4, [r2, #24]
 8004c0a:	42a3      	cmp	r3, r4
 8004c0c:	db01      	blt.n	8004c12 <__sfputc_r+0x16>
 8004c0e:	290a      	cmp	r1, #10
 8004c10:	d103      	bne.n	8004c1a <__sfputc_r+0x1e>
 8004c12:	f85d 4b04 	ldr.w	r4, [sp], #4
 8004c16:	f000 b94b 	b.w	8004eb0 <__swbuf_r>
 8004c1a:	6813      	ldr	r3, [r2, #0]
 8004c1c:	1c58      	adds	r0, r3, #1
 8004c1e:	6010      	str	r0, [r2, #0]
 8004c20:	7019      	strb	r1, [r3, #0]
 8004c22:	4608      	mov	r0, r1
 8004c24:	f85d 4b04 	ldr.w	r4, [sp], #4
 8004c28:	4770      	bx	lr

08004c2a <__sfputs_r>:
 8004c2a:	b5f8      	push	{r3, r4, r5, r6, r7, lr}
 8004c2c:	4606      	mov	r6, r0
 8004c2e:	460f      	mov	r7, r1
 8004c30:	4614      	mov	r4, r2
 8004c32:	18d5      	adds	r5, r2, r3
 8004c34:	42ac      	cmp	r4, r5
 8004c36:	d101      	bne.n	8004c3c <__sfputs_r+0x12>
 8004c38:	2000      	movs	r0, #0
 8004c3a:	e007      	b.n	8004c4c <__sfputs_r+0x22>
 8004c3c:	f814 1b01 	ldrb.w	r1, [r4], #1
 8004c40:	463a      	mov	r2, r7
 8004c42:	4630      	mov	r0, r6
 8004c44:	f7ff ffda 	bl	8004bfc <__sfputc_r>
 8004c48:	1c43      	adds	r3, r0, #1
 8004c4a:	d1f3      	bne.n	8004c34 <__sfputs_r+0xa>
 8004c4c:	bdf8      	pop	{r3, r4, r5, r6, r7, pc}
	...

08004c50 <_vfiprintf_r>:
 8004c50:	e92d 4ff0 	stmdb	sp!, {r4, r5, r6, r7, r8, r9, sl, fp, lr}
 8004c54:	460d      	mov	r5, r1
 8004c56:	b09d      	sub	sp, #116	; 0x74
 8004c58:	4614      	mov	r4, r2
 8004c5a:	4698      	mov	r8, r3
 8004c5c:	4606      	mov	r6, r0
 8004c5e:	b118      	cbz	r0, 8004c68 <_vfiprintf_r+0x18>
 8004c60:	6983      	ldr	r3, [r0, #24]
 8004c62:	b90b      	cbnz	r3, 8004c68 <_vfiprintf_r+0x18>
 8004c64:	f000 fb14 	bl	8005290 <__sinit>
 8004c68:	4b89      	ldr	r3, [pc, #548]	; (8004e90 <_vfiprintf_r+0x240>)
 8004c6a:	429d      	cmp	r5, r3
 8004c6c:	d11b      	bne.n	8004ca6 <_vfiprintf_r+0x56>
 8004c6e:	6875      	ldr	r5, [r6, #4]
 8004c70:	6e6b      	ldr	r3, [r5, #100]	; 0x64
 8004c72:	07d9      	lsls	r1, r3, #31
 8004c74:	d405      	bmi.n	8004c82 <_vfiprintf_r+0x32>
 8004c76:	89ab      	ldrh	r3, [r5, #12]
 8004c78:	059a      	lsls	r2, r3, #22
 8004c7a:	d402      	bmi.n	8004c82 <_vfiprintf_r+0x32>
 8004c7c:	6da8      	ldr	r0, [r5, #88]	; 0x58
 8004c7e:	f000 fba5 	bl	80053cc <__retarget_lock_acquire_recursive>
 8004c82:	89ab      	ldrh	r3, [r5, #12]
 8004c84:	071b      	lsls	r3, r3, #28
 8004c86:	d501      	bpl.n	8004c8c <_vfiprintf_r+0x3c>
 8004c88:	692b      	ldr	r3, [r5, #16]
 8004c8a:	b9eb      	cbnz	r3, 8004cc8 <_vfiprintf_r+0x78>
 8004c8c:	4629      	mov	r1, r5
 8004c8e:	4630      	mov	r0, r6
 8004c90:	f000 f96e 	bl	8004f70 <__swsetup_r>
 8004c94:	b1c0      	cbz	r0, 8004cc8 <_vfiprintf_r+0x78>
 8004c96:	6e6b      	ldr	r3, [r5, #100]	; 0x64
 8004c98:	07dc      	lsls	r4, r3, #31
 8004c9a:	d50e      	bpl.n	8004cba <_vfiprintf_r+0x6a>
 8004c9c:	f04f 30ff 	mov.w	r0, #4294967295
 8004ca0:	b01d      	add	sp, #116	; 0x74
 8004ca2:	e8bd 8ff0 	ldmia.w	sp!, {r4, r5, r6, r7, r8, r9, sl, fp, pc}
 8004ca6:	4b7b      	ldr	r3, [pc, #492]	; (8004e94 <_vfiprintf_r+0x244>)
 8004ca8:	429d      	cmp	r5, r3
 8004caa:	d101      	bne.n	8004cb0 <_vfiprintf_r+0x60>
 8004cac:	68b5      	ldr	r5, [r6, #8]
 8004cae:	e7df      	b.n	8004c70 <_vfiprintf_r+0x20>
 8004cb0:	4b79      	ldr	r3, [pc, #484]	; (8004e98 <_vfiprintf_r+0x248>)
 8004cb2:	429d      	cmp	r5, r3
 8004cb4:	bf08      	it	eq
 8004cb6:	68f5      	ldreq	r5, [r6, #12]
 8004cb8:	e7da      	b.n	8004c70 <_vfiprintf_r+0x20>
 8004cba:	89ab      	ldrh	r3, [r5, #12]
 8004cbc:	0598      	lsls	r0, r3, #22
 8004cbe:	d4ed      	bmi.n	8004c9c <_vfiprintf_r+0x4c>
 8004cc0:	6da8      	ldr	r0, [r5, #88]	; 0x58
 8004cc2:	f000 fb84 	bl	80053ce <__retarget_lock_release_recursive>
 8004cc6:	e7e9      	b.n	8004c9c <_vfiprintf_r+0x4c>
 8004cc8:	2300      	movs	r3, #0
 8004cca:	9309      	str	r3, [sp, #36]	; 0x24
 8004ccc:	2320      	movs	r3, #32
 8004cce:	f88d 3029 	strb.w	r3, [sp, #41]	; 0x29
 8004cd2:	f8cd 800c 	str.w	r8, [sp, #12]
 8004cd6:	2330      	movs	r3, #48	; 0x30
 8004cd8:	f8df 81c0 	ldr.w	r8, [pc, #448]	; 8004e9c <_vfiprintf_r+0x24c>
 8004cdc:	f88d 302a 	strb.w	r3, [sp, #42]	; 0x2a
 8004ce0:	f04f 0901 	mov.w	r9, #1
 8004ce4:	4623      	mov	r3, r4
 8004ce6:	469a      	mov	sl, r3
 8004ce8:	f813 2b01 	ldrb.w	r2, [r3], #1
 8004cec:	b10a      	cbz	r2, 8004cf2 <_vfiprintf_r+0xa2>
 8004cee:	2a25      	cmp	r2, #37	; 0x25
 8004cf0:	d1f9      	bne.n	8004ce6 <_vfiprintf_r+0x96>
 8004cf2:	ebba 0b04 	subs.w	fp, sl, r4
 8004cf6:	d00b      	beq.n	8004d10 <_vfiprintf_r+0xc0>
 8004cf8:	465b      	mov	r3, fp
 8004cfa:	4622      	mov	r2, r4
 8004cfc:	4629      	mov	r1, r5
 8004cfe:	4630      	mov	r0, r6
 8004d00:	f7ff ff93 	bl	8004c2a <__sfputs_r>
 8004d04:	3001      	adds	r0, #1
 8004d06:	f000 80aa 	beq.w	8004e5e <_vfiprintf_r+0x20e>
 8004d0a:	9a09      	ldr	r2, [sp, #36]	; 0x24
 8004d0c:	445a      	add	r2, fp
 8004d0e:	9209      	str	r2, [sp, #36]	; 0x24
 8004d10:	f89a 3000 	ldrb.w	r3, [sl]
 8004d14:	2b00      	cmp	r3, #0
 8004d16:	f000 80a2 	beq.w	8004e5e <_vfiprintf_r+0x20e>
 8004d1a:	2300      	movs	r3, #0
 8004d1c:	f04f 32ff 	mov.w	r2, #4294967295
 8004d20:	e9cd 2305 	strd	r2, r3, [sp, #20]
 8004d24:	f10a 0a01 	add.w	sl, sl, #1
 8004d28:	9304      	str	r3, [sp, #16]
 8004d2a:	9307      	str	r3, [sp, #28]
 8004d2c:	f88d 3053 	strb.w	r3, [sp, #83]	; 0x53
 8004d30:	931a      	str	r3, [sp, #104]	; 0x68
 8004d32:	4654      	mov	r4, sl
 8004d34:	2205      	movs	r2, #5
 8004d36:	f814 1b01 	ldrb.w	r1, [r4], #1
 8004d3a:	4858      	ldr	r0, [pc, #352]	; (8004e9c <_vfiprintf_r+0x24c>)
 8004d3c:	f7fb fa50 	bl	80001e0 <memchr>
 8004d40:	9a04      	ldr	r2, [sp, #16]
 8004d42:	b9d8      	cbnz	r0, 8004d7c <_vfiprintf_r+0x12c>
 8004d44:	06d1      	lsls	r1, r2, #27
 8004d46:	bf44      	itt	mi
 8004d48:	2320      	movmi	r3, #32
 8004d4a:	f88d 3053 	strbmi.w	r3, [sp, #83]	; 0x53
 8004d4e:	0713      	lsls	r3, r2, #28
 8004d50:	bf44      	itt	mi
 8004d52:	232b      	movmi	r3, #43	; 0x2b
 8004d54:	f88d 3053 	strbmi.w	r3, [sp, #83]	; 0x53
 8004d58:	f89a 3000 	ldrb.w	r3, [sl]
 8004d5c:	2b2a      	cmp	r3, #42	; 0x2a
 8004d5e:	d015      	beq.n	8004d8c <_vfiprintf_r+0x13c>
 8004d60:	9a07      	ldr	r2, [sp, #28]
 8004d62:	4654      	mov	r4, sl
 8004d64:	2000      	movs	r0, #0
 8004d66:	f04f 0c0a 	mov.w	ip, #10
 8004d6a:	4621      	mov	r1, r4
 8004d6c:	f811 3b01 	ldrb.w	r3, [r1], #1
 8004d70:	3b30      	subs	r3, #48	; 0x30
 8004d72:	2b09      	cmp	r3, #9
 8004d74:	d94e      	bls.n	8004e14 <_vfiprintf_r+0x1c4>
 8004d76:	b1b0      	cbz	r0, 8004da6 <_vfiprintf_r+0x156>
 8004d78:	9207      	str	r2, [sp, #28]
 8004d7a:	e014      	b.n	8004da6 <_vfiprintf_r+0x156>
 8004d7c:	eba0 0308 	sub.w	r3, r0, r8
 8004d80:	fa09 f303 	lsl.w	r3, r9, r3
 8004d84:	4313      	orrs	r3, r2
 8004d86:	9304      	str	r3, [sp, #16]
 8004d88:	46a2      	mov	sl, r4
 8004d8a:	e7d2      	b.n	8004d32 <_vfiprintf_r+0xe2>
 8004d8c:	9b03      	ldr	r3, [sp, #12]
 8004d8e:	1d19      	adds	r1, r3, #4
 8004d90:	681b      	ldr	r3, [r3, #0]
 8004d92:	9103      	str	r1, [sp, #12]
 8004d94:	2b00      	cmp	r3, #0
 8004d96:	bfbb      	ittet	lt
 8004d98:	425b      	neglt	r3, r3
 8004d9a:	f042 0202 	orrlt.w	r2, r2, #2
 8004d9e:	9307      	strge	r3, [sp, #28]
 8004da0:	9307      	strlt	r3, [sp, #28]
 8004da2:	bfb8      	it	lt
 8004da4:	9204      	strlt	r2, [sp, #16]
 8004da6:	7823      	ldrb	r3, [r4, #0]
 8004da8:	2b2e      	cmp	r3, #46	; 0x2e
 8004daa:	d10c      	bne.n	8004dc6 <_vfiprintf_r+0x176>
 8004dac:	7863      	ldrb	r3, [r4, #1]
 8004dae:	2b2a      	cmp	r3, #42	; 0x2a
 8004db0:	d135      	bne.n	8004e1e <_vfiprintf_r+0x1ce>
 8004db2:	9b03      	ldr	r3, [sp, #12]
 8004db4:	1d1a      	adds	r2, r3, #4
 8004db6:	681b      	ldr	r3, [r3, #0]
 8004db8:	9203      	str	r2, [sp, #12]
 8004dba:	2b00      	cmp	r3, #0
 8004dbc:	bfb8      	it	lt
 8004dbe:	f04f 33ff 	movlt.w	r3, #4294967295
 8004dc2:	3402      	adds	r4, #2
 8004dc4:	9305      	str	r3, [sp, #20]
 8004dc6:	f8df a0e4 	ldr.w	sl, [pc, #228]	; 8004eac <_vfiprintf_r+0x25c>
 8004dca:	7821      	ldrb	r1, [r4, #0]
 8004dcc:	2203      	movs	r2, #3
 8004dce:	4650      	mov	r0, sl
 8004dd0:	f7fb fa06 	bl	80001e0 <memchr>
 8004dd4:	b140      	cbz	r0, 8004de8 <_vfiprintf_r+0x198>
 8004dd6:	2340      	movs	r3, #64	; 0x40
 8004dd8:	eba0 000a 	sub.w	r0, r0, sl
 8004ddc:	fa03 f000 	lsl.w	r0, r3, r0
 8004de0:	9b04      	ldr	r3, [sp, #16]
 8004de2:	4303      	orrs	r3, r0
 8004de4:	3401      	adds	r4, #1
 8004de6:	9304      	str	r3, [sp, #16]
 8004de8:	f814 1b01 	ldrb.w	r1, [r4], #1
 8004dec:	482c      	ldr	r0, [pc, #176]	; (8004ea0 <_vfiprintf_r+0x250>)
 8004dee:	f88d 1028 	strb.w	r1, [sp, #40]	; 0x28
 8004df2:	2206      	movs	r2, #6
 8004df4:	f7fb f9f4 	bl	80001e0 <memchr>
 8004df8:	2800      	cmp	r0, #0
 8004dfa:	d03f      	beq.n	8004e7c <_vfiprintf_r+0x22c>
 8004dfc:	4b29      	ldr	r3, [pc, #164]	; (8004ea4 <_vfiprintf_r+0x254>)
 8004dfe:	bb1b      	cbnz	r3, 8004e48 <_vfiprintf_r+0x1f8>
 8004e00:	9b03      	ldr	r3, [sp, #12]
 8004e02:	3307      	adds	r3, #7
 8004e04:	f023 0307 	bic.w	r3, r3, #7
 8004e08:	3308      	adds	r3, #8
 8004e0a:	9303      	str	r3, [sp, #12]
 8004e0c:	9b09      	ldr	r3, [sp, #36]	; 0x24
 8004e0e:	443b      	add	r3, r7
 8004e10:	9309      	str	r3, [sp, #36]	; 0x24
 8004e12:	e767      	b.n	8004ce4 <_vfiprintf_r+0x94>
 8004e14:	fb0c 3202 	mla	r2, ip, r2, r3
 8004e18:	460c      	mov	r4, r1
 8004e1a:	2001      	movs	r0, #1
 8004e1c:	e7a5      	b.n	8004d6a <_vfiprintf_r+0x11a>
 8004e1e:	2300      	movs	r3, #0
 8004e20:	3401      	adds	r4, #1
 8004e22:	9305      	str	r3, [sp, #20]
 8004e24:	4619      	mov	r1, r3
 8004e26:	f04f 0c0a 	mov.w	ip, #10
 8004e2a:	4620      	mov	r0, r4
 8004e2c:	f810 2b01 	ldrb.w	r2, [r0], #1
 8004e30:	3a30      	subs	r2, #48	; 0x30
 8004e32:	2a09      	cmp	r2, #9
 8004e34:	d903      	bls.n	8004e3e <_vfiprintf_r+0x1ee>
 8004e36:	2b00      	cmp	r3, #0
 8004e38:	d0c5      	beq.n	8004dc6 <_vfiprintf_r+0x176>
 8004e3a:	9105      	str	r1, [sp, #20]
 8004e3c:	e7c3      	b.n	8004dc6 <_vfiprintf_r+0x176>
 8004e3e:	fb0c 2101 	mla	r1, ip, r1, r2
 8004e42:	4604      	mov	r4, r0
 8004e44:	2301      	movs	r3, #1
 8004e46:	e7f0      	b.n	8004e2a <_vfiprintf_r+0x1da>
 8004e48:	ab03      	add	r3, sp, #12
 8004e4a:	9300      	str	r3, [sp, #0]
 8004e4c:	462a      	mov	r2, r5
 8004e4e:	4b16      	ldr	r3, [pc, #88]	; (8004ea8 <_vfiprintf_r+0x258>)
 8004e50:	a904      	add	r1, sp, #16
 8004e52:	4630      	mov	r0, r6
 8004e54:	f7fd fe32 	bl	8002abc <_printf_float>
 8004e58:	4607      	mov	r7, r0
 8004e5a:	1c78      	adds	r0, r7, #1
 8004e5c:	d1d6      	bne.n	8004e0c <_vfiprintf_r+0x1bc>
 8004e5e:	6e6b      	ldr	r3, [r5, #100]	; 0x64
 8004e60:	07d9      	lsls	r1, r3, #31
 8004e62:	d405      	bmi.n	8004e70 <_vfiprintf_r+0x220>
 8004e64:	89ab      	ldrh	r3, [r5, #12]
 8004e66:	059a      	lsls	r2, r3, #22
 8004e68:	d402      	bmi.n	8004e70 <_vfiprintf_r+0x220>
 8004e6a:	6da8      	ldr	r0, [r5, #88]	; 0x58
 8004e6c:	f000 faaf 	bl	80053ce <__retarget_lock_release_recursive>
 8004e70:	89ab      	ldrh	r3, [r5, #12]
 8004e72:	065b      	lsls	r3, r3, #25
 8004e74:	f53f af12 	bmi.w	8004c9c <_vfiprintf_r+0x4c>
 8004e78:	9809      	ldr	r0, [sp, #36]	; 0x24
 8004e7a:	e711      	b.n	8004ca0 <_vfiprintf_r+0x50>
 8004e7c:	ab03      	add	r3, sp, #12
 8004e7e:	9300      	str	r3, [sp, #0]
 8004e80:	462a      	mov	r2, r5
 8004e82:	4b09      	ldr	r3, [pc, #36]	; (8004ea8 <_vfiprintf_r+0x258>)
 8004e84:	a904      	add	r1, sp, #16
 8004e86:	4630      	mov	r0, r6
 8004e88:	f7fe f8bc 	bl	8003004 <_printf_i>
 8004e8c:	e7e4      	b.n	8004e58 <_vfiprintf_r+0x208>
 8004e8e:	bf00      	nop
 8004e90:	08005abc 	.word	0x08005abc
 8004e94:	08005adc 	.word	0x08005adc
 8004e98:	08005a9c 	.word	0x08005a9c
 8004e9c:	08005944 	.word	0x08005944
 8004ea0:	0800594e 	.word	0x0800594e
 8004ea4:	08002abd 	.word	0x08002abd
 8004ea8:	08004c2b 	.word	0x08004c2b
 8004eac:	0800594a 	.word	0x0800594a

08004eb0 <__swbuf_r>:
 8004eb0:	b5f8      	push	{r3, r4, r5, r6, r7, lr}
 8004eb2:	460e      	mov	r6, r1
 8004eb4:	4614      	mov	r4, r2
 8004eb6:	4605      	mov	r5, r0
 8004eb8:	b118      	cbz	r0, 8004ec2 <__swbuf_r+0x12>
 8004eba:	6983      	ldr	r3, [r0, #24]
 8004ebc:	b90b      	cbnz	r3, 8004ec2 <__swbuf_r+0x12>
 8004ebe:	f000 f9e7 	bl	8005290 <__sinit>
 8004ec2:	4b21      	ldr	r3, [pc, #132]	; (8004f48 <__swbuf_r+0x98>)
 8004ec4:	429c      	cmp	r4, r3
 8004ec6:	d12b      	bne.n	8004f20 <__swbuf_r+0x70>
 8004ec8:	686c      	ldr	r4, [r5, #4]
 8004eca:	69a3      	ldr	r3, [r4, #24]
 8004ecc:	60a3      	str	r3, [r4, #8]
 8004ece:	89a3      	ldrh	r3, [r4, #12]
 8004ed0:	071a      	lsls	r2, r3, #28
 8004ed2:	d52f      	bpl.n	8004f34 <__swbuf_r+0x84>
 8004ed4:	6923      	ldr	r3, [r4, #16]
 8004ed6:	b36b      	cbz	r3, 8004f34 <__swbuf_r+0x84>
 8004ed8:	6923      	ldr	r3, [r4, #16]
 8004eda:	6820      	ldr	r0, [r4, #0]
 8004edc:	1ac0      	subs	r0, r0, r3
 8004ede:	6963      	ldr	r3, [r4, #20]
 8004ee0:	b2f6      	uxtb	r6, r6
 8004ee2:	4283      	cmp	r3, r0
 8004ee4:	4637      	mov	r7, r6
 8004ee6:	dc04      	bgt.n	8004ef2 <__swbuf_r+0x42>
 8004ee8:	4621      	mov	r1, r4
 8004eea:	4628      	mov	r0, r5
 8004eec:	f000 f93c 	bl	8005168 <_fflush_r>
 8004ef0:	bb30      	cbnz	r0, 8004f40 <__swbuf_r+0x90>
 8004ef2:	68a3      	ldr	r3, [r4, #8]
 8004ef4:	3b01      	subs	r3, #1
 8004ef6:	60a3      	str	r3, [r4, #8]
 8004ef8:	6823      	ldr	r3, [r4, #0]
 8004efa:	1c5a      	adds	r2, r3, #1
 8004efc:	6022      	str	r2, [r4, #0]
 8004efe:	701e      	strb	r6, [r3, #0]
 8004f00:	6963      	ldr	r3, [r4, #20]
 8004f02:	3001      	adds	r0, #1
 8004f04:	4283      	cmp	r3, r0
 8004f06:	d004      	beq.n	8004f12 <__swbuf_r+0x62>
 8004f08:	89a3      	ldrh	r3, [r4, #12]
 8004f0a:	07db      	lsls	r3, r3, #31
 8004f0c:	d506      	bpl.n	8004f1c <__swbuf_r+0x6c>
 8004f0e:	2e0a      	cmp	r6, #10
 8004f10:	d104      	bne.n	8004f1c <__swbuf_r+0x6c>
 8004f12:	4621      	mov	r1, r4
 8004f14:	4628      	mov	r0, r5
 8004f16:	f000 f927 	bl	8005168 <_fflush_r>
 8004f1a:	b988      	cbnz	r0, 8004f40 <__swbuf_r+0x90>
 8004f1c:	4638      	mov	r0, r7
 8004f1e:	bdf8      	pop	{r3, r4, r5, r6, r7, pc}
 8004f20:	4b0a      	ldr	r3, [pc, #40]	; (8004f4c <__swbuf_r+0x9c>)
 8004f22:	429c      	cmp	r4, r3
 8004f24:	d101      	bne.n	8004f2a <__swbuf_r+0x7a>
 8004f26:	68ac      	ldr	r4, [r5, #8]
 8004f28:	e7cf      	b.n	8004eca <__swbuf_r+0x1a>
 8004f2a:	4b09      	ldr	r3, [pc, #36]	; (8004f50 <__swbuf_r+0xa0>)
 8004f2c:	429c      	cmp	r4, r3
 8004f2e:	bf08      	it	eq
 8004f30:	68ec      	ldreq	r4, [r5, #12]
 8004f32:	e7ca      	b.n	8004eca <__swbuf_r+0x1a>
 8004f34:	4621      	mov	r1, r4
 8004f36:	4628      	mov	r0, r5
 8004f38:	f000 f81a 	bl	8004f70 <__swsetup_r>
 8004f3c:	2800      	cmp	r0, #0
 8004f3e:	d0cb      	beq.n	8004ed8 <__swbuf_r+0x28>
 8004f40:	f04f 37ff 	mov.w	r7, #4294967295
 8004f44:	e7ea      	b.n	8004f1c <__swbuf_r+0x6c>
 8004f46:	bf00      	nop
 8004f48:	08005abc 	.word	0x08005abc
 8004f4c:	08005adc 	.word	0x08005adc
 8004f50:	08005a9c 	.word	0x08005a9c

08004f54 <__ascii_wctomb>:
 8004f54:	b149      	cbz	r1, 8004f6a <__ascii_wctomb+0x16>
 8004f56:	2aff      	cmp	r2, #255	; 0xff
 8004f58:	bf85      	ittet	hi
 8004f5a:	238a      	movhi	r3, #138	; 0x8a
 8004f5c:	6003      	strhi	r3, [r0, #0]
 8004f5e:	700a      	strbls	r2, [r1, #0]
 8004f60:	f04f 30ff 	movhi.w	r0, #4294967295
 8004f64:	bf98      	it	ls
 8004f66:	2001      	movls	r0, #1
 8004f68:	4770      	bx	lr
 8004f6a:	4608      	mov	r0, r1
 8004f6c:	4770      	bx	lr
	...

08004f70 <__swsetup_r>:
 8004f70:	4b32      	ldr	r3, [pc, #200]	; (800503c <__swsetup_r+0xcc>)
 8004f72:	b570      	push	{r4, r5, r6, lr}
 8004f74:	681d      	ldr	r5, [r3, #0]
 8004f76:	4606      	mov	r6, r0
 8004f78:	460c      	mov	r4, r1
 8004f7a:	b125      	cbz	r5, 8004f86 <__swsetup_r+0x16>
 8004f7c:	69ab      	ldr	r3, [r5, #24]
 8004f7e:	b913      	cbnz	r3, 8004f86 <__swsetup_r+0x16>
 8004f80:	4628      	mov	r0, r5
 8004f82:	f000 f985 	bl	8005290 <__sinit>
 8004f86:	4b2e      	ldr	r3, [pc, #184]	; (8005040 <__swsetup_r+0xd0>)
 8004f88:	429c      	cmp	r4, r3
 8004f8a:	d10f      	bne.n	8004fac <__swsetup_r+0x3c>
 8004f8c:	686c      	ldr	r4, [r5, #4]
 8004f8e:	89a3      	ldrh	r3, [r4, #12]
 8004f90:	f9b4 200c 	ldrsh.w	r2, [r4, #12]
 8004f94:	0719      	lsls	r1, r3, #28
 8004f96:	d42c      	bmi.n	8004ff2 <__swsetup_r+0x82>
 8004f98:	06dd      	lsls	r5, r3, #27
 8004f9a:	d411      	bmi.n	8004fc0 <__swsetup_r+0x50>
 8004f9c:	2309      	movs	r3, #9
 8004f9e:	6033      	str	r3, [r6, #0]
 8004fa0:	f042 0340 	orr.w	r3, r2, #64	; 0x40
 8004fa4:	81a3      	strh	r3, [r4, #12]
 8004fa6:	f04f 30ff 	mov.w	r0, #4294967295
 8004faa:	e03e      	b.n	800502a <__swsetup_r+0xba>
 8004fac:	4b25      	ldr	r3, [pc, #148]	; (8005044 <__swsetup_r+0xd4>)
 8004fae:	429c      	cmp	r4, r3
 8004fb0:	d101      	bne.n	8004fb6 <__swsetup_r+0x46>
 8004fb2:	68ac      	ldr	r4, [r5, #8]
 8004fb4:	e7eb      	b.n	8004f8e <__swsetup_r+0x1e>
 8004fb6:	4b24      	ldr	r3, [pc, #144]	; (8005048 <__swsetup_r+0xd8>)
 8004fb8:	429c      	cmp	r4, r3
 8004fba:	bf08      	it	eq
 8004fbc:	68ec      	ldreq	r4, [r5, #12]
 8004fbe:	e7e6      	b.n	8004f8e <__swsetup_r+0x1e>
 8004fc0:	0758      	lsls	r0, r3, #29
 8004fc2:	d512      	bpl.n	8004fea <__swsetup_r+0x7a>
 8004fc4:	6b61      	ldr	r1, [r4, #52]	; 0x34
 8004fc6:	b141      	cbz	r1, 8004fda <__swsetup_r+0x6a>
 8004fc8:	f104 0344 	add.w	r3, r4, #68	; 0x44
 8004fcc:	4299      	cmp	r1, r3
 8004fce:	d002      	beq.n	8004fd6 <__swsetup_r+0x66>
 8004fd0:	4630      	mov	r0, r6
 8004fd2:	f7ff fb6f 	bl	80046b4 <_free_r>
 8004fd6:	2300      	movs	r3, #0
 8004fd8:	6363      	str	r3, [r4, #52]	; 0x34
 8004fda:	89a3      	ldrh	r3, [r4, #12]
 8004fdc:	f023 0324 	bic.w	r3, r3, #36	; 0x24
 8004fe0:	81a3      	strh	r3, [r4, #12]
 8004fe2:	2300      	movs	r3, #0
 8004fe4:	6063      	str	r3, [r4, #4]
 8004fe6:	6923      	ldr	r3, [r4, #16]
 8004fe8:	6023      	str	r3, [r4, #0]
 8004fea:	89a3      	ldrh	r3, [r4, #12]
 8004fec:	f043 0308 	orr.w	r3, r3, #8
 8004ff0:	81a3      	strh	r3, [r4, #12]
 8004ff2:	6923      	ldr	r3, [r4, #16]
 8004ff4:	b94b      	cbnz	r3, 800500a <__swsetup_r+0x9a>
 8004ff6:	89a3      	ldrh	r3, [r4, #12]
 8004ff8:	f403 7320 	and.w	r3, r3, #640	; 0x280
 8004ffc:	f5b3 7f00 	cmp.w	r3, #512	; 0x200
 8005000:	d003      	beq.n	800500a <__swsetup_r+0x9a>
 8005002:	4621      	mov	r1, r4
 8005004:	4630      	mov	r0, r6
 8005006:	f000 fa07 	bl	8005418 <__smakebuf_r>
 800500a:	89a0      	ldrh	r0, [r4, #12]
 800500c:	f9b4 200c 	ldrsh.w	r2, [r4, #12]
 8005010:	f010 0301 	ands.w	r3, r0, #1
 8005014:	d00a      	beq.n	800502c <__swsetup_r+0xbc>
 8005016:	2300      	movs	r3, #0
 8005018:	60a3      	str	r3, [r4, #8]
 800501a:	6963      	ldr	r3, [r4, #20]
 800501c:	425b      	negs	r3, r3
 800501e:	61a3      	str	r3, [r4, #24]
 8005020:	6923      	ldr	r3, [r4, #16]
 8005022:	b943      	cbnz	r3, 8005036 <__swsetup_r+0xc6>
 8005024:	f010 0080 	ands.w	r0, r0, #128	; 0x80
 8005028:	d1ba      	bne.n	8004fa0 <__swsetup_r+0x30>
 800502a:	bd70      	pop	{r4, r5, r6, pc}
 800502c:	0781      	lsls	r1, r0, #30
 800502e:	bf58      	it	pl
 8005030:	6963      	ldrpl	r3, [r4, #20]
 8005032:	60a3      	str	r3, [r4, #8]
 8005034:	e7f4      	b.n	8005020 <__swsetup_r+0xb0>
 8005036:	2000      	movs	r0, #0
 8005038:	e7f7      	b.n	800502a <__swsetup_r+0xba>
 800503a:	bf00      	nop
 800503c:	20000004 	.word	0x20000004
 8005040:	08005abc 	.word	0x08005abc
 8005044:	08005adc 	.word	0x08005adc
 8005048:	08005a9c 	.word	0x08005a9c

0800504c <abort>:
 800504c:	b508      	push	{r3, lr}
 800504e:	2006      	movs	r0, #6
 8005050:	f000 fa52 	bl	80054f8 <raise>
 8005054:	2001      	movs	r0, #1
 8005056:	f7fc fe49 	bl	8001cec <_exit>
	...

0800505c <__sflush_r>:
 800505c:	898a      	ldrh	r2, [r1, #12]
 800505e:	e92d 41f0 	stmdb	sp!, {r4, r5, r6, r7, r8, lr}
 8005062:	4605      	mov	r5, r0
 8005064:	0710      	lsls	r0, r2, #28
 8005066:	460c      	mov	r4, r1
 8005068:	d458      	bmi.n	800511c <__sflush_r+0xc0>
 800506a:	684b      	ldr	r3, [r1, #4]
 800506c:	2b00      	cmp	r3, #0
 800506e:	dc05      	bgt.n	800507c <__sflush_r+0x20>
 8005070:	6c0b      	ldr	r3, [r1, #64]	; 0x40
 8005072:	2b00      	cmp	r3, #0
 8005074:	dc02      	bgt.n	800507c <__sflush_r+0x20>
 8005076:	2000      	movs	r0, #0
 8005078:	e8bd 81f0 	ldmia.w	sp!, {r4, r5, r6, r7, r8, pc}
 800507c:	6ae6      	ldr	r6, [r4, #44]	; 0x2c
 800507e:	2e00      	cmp	r6, #0
 8005080:	d0f9      	beq.n	8005076 <__sflush_r+0x1a>
 8005082:	2300      	movs	r3, #0
 8005084:	f412 5280 	ands.w	r2, r2, #4096	; 0x1000
 8005088:	682f      	ldr	r7, [r5, #0]
 800508a:	602b      	str	r3, [r5, #0]
 800508c:	d032      	beq.n	80050f4 <__sflush_r+0x98>
 800508e:	6d60      	ldr	r0, [r4, #84]	; 0x54
 8005090:	89a3      	ldrh	r3, [r4, #12]
 8005092:	075a      	lsls	r2, r3, #29
 8005094:	d505      	bpl.n	80050a2 <__sflush_r+0x46>
 8005096:	6863      	ldr	r3, [r4, #4]
 8005098:	1ac0      	subs	r0, r0, r3
 800509a:	6b63      	ldr	r3, [r4, #52]	; 0x34
 800509c:	b10b      	cbz	r3, 80050a2 <__sflush_r+0x46>
 800509e:	6c23      	ldr	r3, [r4, #64]	; 0x40
 80050a0:	1ac0      	subs	r0, r0, r3
 80050a2:	2300      	movs	r3, #0
 80050a4:	4602      	mov	r2, r0
 80050a6:	6ae6      	ldr	r6, [r4, #44]	; 0x2c
 80050a8:	6a21      	ldr	r1, [r4, #32]
 80050aa:	4628      	mov	r0, r5
 80050ac:	47b0      	blx	r6
 80050ae:	1c43      	adds	r3, r0, #1
 80050b0:	89a3      	ldrh	r3, [r4, #12]
 80050b2:	d106      	bne.n	80050c2 <__sflush_r+0x66>
 80050b4:	6829      	ldr	r1, [r5, #0]
 80050b6:	291d      	cmp	r1, #29
 80050b8:	d82c      	bhi.n	8005114 <__sflush_r+0xb8>
 80050ba:	4a2a      	ldr	r2, [pc, #168]	; (8005164 <__sflush_r+0x108>)
 80050bc:	40ca      	lsrs	r2, r1
 80050be:	07d6      	lsls	r6, r2, #31
 80050c0:	d528      	bpl.n	8005114 <__sflush_r+0xb8>
 80050c2:	2200      	movs	r2, #0
 80050c4:	6062      	str	r2, [r4, #4]
 80050c6:	04d9      	lsls	r1, r3, #19
 80050c8:	6922      	ldr	r2, [r4, #16]
 80050ca:	6022      	str	r2, [r4, #0]
 80050cc:	d504      	bpl.n	80050d8 <__sflush_r+0x7c>
 80050ce:	1c42      	adds	r2, r0, #1
 80050d0:	d101      	bne.n	80050d6 <__sflush_r+0x7a>
 80050d2:	682b      	ldr	r3, [r5, #0]
 80050d4:	b903      	cbnz	r3, 80050d8 <__sflush_r+0x7c>
 80050d6:	6560      	str	r0, [r4, #84]	; 0x54
 80050d8:	6b61      	ldr	r1, [r4, #52]	; 0x34
 80050da:	602f      	str	r7, [r5, #0]
 80050dc:	2900      	cmp	r1, #0
 80050de:	d0ca      	beq.n	8005076 <__sflush_r+0x1a>
 80050e0:	f104 0344 	add.w	r3, r4, #68	; 0x44
 80050e4:	4299      	cmp	r1, r3
 80050e6:	d002      	beq.n	80050ee <__sflush_r+0x92>
 80050e8:	4628      	mov	r0, r5
 80050ea:	f7ff fae3 	bl	80046b4 <_free_r>
 80050ee:	2000      	movs	r0, #0
 80050f0:	6360      	str	r0, [r4, #52]	; 0x34
 80050f2:	e7c1      	b.n	8005078 <__sflush_r+0x1c>
 80050f4:	6a21      	ldr	r1, [r4, #32]
 80050f6:	2301      	movs	r3, #1
 80050f8:	4628      	mov	r0, r5
 80050fa:	47b0      	blx	r6
 80050fc:	1c41      	adds	r1, r0, #1
 80050fe:	d1c7      	bne.n	8005090 <__sflush_r+0x34>
 8005100:	682b      	ldr	r3, [r5, #0]
 8005102:	2b00      	cmp	r3, #0
 8005104:	d0c4      	beq.n	8005090 <__sflush_r+0x34>
 8005106:	2b1d      	cmp	r3, #29
 8005108:	d001      	beq.n	800510e <__sflush_r+0xb2>
 800510a:	2b16      	cmp	r3, #22
 800510c:	d101      	bne.n	8005112 <__sflush_r+0xb6>
 800510e:	602f      	str	r7, [r5, #0]
 8005110:	e7b1      	b.n	8005076 <__sflush_r+0x1a>
 8005112:	89a3      	ldrh	r3, [r4, #12]
 8005114:	f043 0340 	orr.w	r3, r3, #64	; 0x40
 8005118:	81a3      	strh	r3, [r4, #12]
 800511a:	e7ad      	b.n	8005078 <__sflush_r+0x1c>
 800511c:	690f      	ldr	r7, [r1, #16]
 800511e:	2f00      	cmp	r7, #0
 8005120:	d0a9      	beq.n	8005076 <__sflush_r+0x1a>
 8005122:	0793      	lsls	r3, r2, #30
 8005124:	680e      	ldr	r6, [r1, #0]
 8005126:	bf08      	it	eq
 8005128:	694b      	ldreq	r3, [r1, #20]
 800512a:	600f      	str	r7, [r1, #0]
 800512c:	bf18      	it	ne
 800512e:	2300      	movne	r3, #0
 8005130:	eba6 0807 	sub.w	r8, r6, r7
 8005134:	608b      	str	r3, [r1, #8]
 8005136:	f1b8 0f00 	cmp.w	r8, #0
 800513a:	dd9c      	ble.n	8005076 <__sflush_r+0x1a>
 800513c:	6a21      	ldr	r1, [r4, #32]
 800513e:	6aa6      	ldr	r6, [r4, #40]	; 0x28
 8005140:	4643      	mov	r3, r8
 8005142:	463a      	mov	r2, r7
 8005144:	4628      	mov	r0, r5
 8005146:	47b0      	blx	r6
 8005148:	2800      	cmp	r0, #0
 800514a:	dc06      	bgt.n	800515a <__sflush_r+0xfe>
 800514c:	89a3      	ldrh	r3, [r4, #12]
 800514e:	f043 0340 	orr.w	r3, r3, #64	; 0x40
 8005152:	81a3      	strh	r3, [r4, #12]
 8005154:	f04f 30ff 	mov.w	r0, #4294967295
 8005158:	e78e      	b.n	8005078 <__sflush_r+0x1c>
 800515a:	4407      	add	r7, r0
 800515c:	eba8 0800 	sub.w	r8, r8, r0
 8005160:	e7e9      	b.n	8005136 <__sflush_r+0xda>
 8005162:	bf00      	nop
 8005164:	20400001 	.word	0x20400001

08005168 <_fflush_r>:
 8005168:	b538      	push	{r3, r4, r5, lr}
 800516a:	690b      	ldr	r3, [r1, #16]
 800516c:	4605      	mov	r5, r0
 800516e:	460c      	mov	r4, r1
 8005170:	b913      	cbnz	r3, 8005178 <_fflush_r+0x10>
 8005172:	2500      	movs	r5, #0
 8005174:	4628      	mov	r0, r5
 8005176:	bd38      	pop	{r3, r4, r5, pc}
 8005178:	b118      	cbz	r0, 8005182 <_fflush_r+0x1a>
 800517a:	6983      	ldr	r3, [r0, #24]
 800517c:	b90b      	cbnz	r3, 8005182 <_fflush_r+0x1a>
 800517e:	f000 f887 	bl	8005290 <__sinit>
 8005182:	4b14      	ldr	r3, [pc, #80]	; (80051d4 <_fflush_r+0x6c>)
 8005184:	429c      	cmp	r4, r3
 8005186:	d11b      	bne.n	80051c0 <_fflush_r+0x58>
 8005188:	686c      	ldr	r4, [r5, #4]
 800518a:	f9b4 300c 	ldrsh.w	r3, [r4, #12]
 800518e:	2b00      	cmp	r3, #0
 8005190:	d0ef      	beq.n	8005172 <_fflush_r+0xa>
 8005192:	6e62      	ldr	r2, [r4, #100]	; 0x64
 8005194:	07d0      	lsls	r0, r2, #31
 8005196:	d404      	bmi.n	80051a2 <_fflush_r+0x3a>
 8005198:	0599      	lsls	r1, r3, #22
 800519a:	d402      	bmi.n	80051a2 <_fflush_r+0x3a>
 800519c:	6da0      	ldr	r0, [r4, #88]	; 0x58
 800519e:	f000 f915 	bl	80053cc <__retarget_lock_acquire_recursive>
 80051a2:	4628      	mov	r0, r5
 80051a4:	4621      	mov	r1, r4
 80051a6:	f7ff ff59 	bl	800505c <__sflush_r>
 80051aa:	6e63      	ldr	r3, [r4, #100]	; 0x64
 80051ac:	07da      	lsls	r2, r3, #31
 80051ae:	4605      	mov	r5, r0
 80051b0:	d4e0      	bmi.n	8005174 <_fflush_r+0xc>
 80051b2:	89a3      	ldrh	r3, [r4, #12]
 80051b4:	059b      	lsls	r3, r3, #22
 80051b6:	d4dd      	bmi.n	8005174 <_fflush_r+0xc>
 80051b8:	6da0      	ldr	r0, [r4, #88]	; 0x58
 80051ba:	f000 f908 	bl	80053ce <__retarget_lock_release_recursive>
 80051be:	e7d9      	b.n	8005174 <_fflush_r+0xc>
 80051c0:	4b05      	ldr	r3, [pc, #20]	; (80051d8 <_fflush_r+0x70>)
 80051c2:	429c      	cmp	r4, r3
 80051c4:	d101      	bne.n	80051ca <_fflush_r+0x62>
 80051c6:	68ac      	ldr	r4, [r5, #8]
 80051c8:	e7df      	b.n	800518a <_fflush_r+0x22>
 80051ca:	4b04      	ldr	r3, [pc, #16]	; (80051dc <_fflush_r+0x74>)
 80051cc:	429c      	cmp	r4, r3
 80051ce:	bf08      	it	eq
 80051d0:	68ec      	ldreq	r4, [r5, #12]
 80051d2:	e7da      	b.n	800518a <_fflush_r+0x22>
 80051d4:	08005abc 	.word	0x08005abc
 80051d8:	08005adc 	.word	0x08005adc
 80051dc:	08005a9c 	.word	0x08005a9c

080051e0 <std>:
 80051e0:	2300      	movs	r3, #0
 80051e2:	b510      	push	{r4, lr}
 80051e4:	4604      	mov	r4, r0
 80051e6:	e9c0 3300 	strd	r3, r3, [r0]
 80051ea:	e9c0 3304 	strd	r3, r3, [r0, #16]
 80051ee:	6083      	str	r3, [r0, #8]
 80051f0:	8181      	strh	r1, [r0, #12]
 80051f2:	6643      	str	r3, [r0, #100]	; 0x64
 80051f4:	81c2      	strh	r2, [r0, #14]
 80051f6:	6183      	str	r3, [r0, #24]
 80051f8:	4619      	mov	r1, r3
 80051fa:	2208      	movs	r2, #8
 80051fc:	305c      	adds	r0, #92	; 0x5c
 80051fe:	f7fd fbb5 	bl	800296c <memset>
 8005202:	4b05      	ldr	r3, [pc, #20]	; (8005218 <std+0x38>)
 8005204:	6263      	str	r3, [r4, #36]	; 0x24
 8005206:	4b05      	ldr	r3, [pc, #20]	; (800521c <std+0x3c>)
 8005208:	62a3      	str	r3, [r4, #40]	; 0x28
 800520a:	4b05      	ldr	r3, [pc, #20]	; (8005220 <std+0x40>)
 800520c:	62e3      	str	r3, [r4, #44]	; 0x2c
 800520e:	4b05      	ldr	r3, [pc, #20]	; (8005224 <std+0x44>)
 8005210:	6224      	str	r4, [r4, #32]
 8005212:	6323      	str	r3, [r4, #48]	; 0x30
 8005214:	bd10      	pop	{r4, pc}
 8005216:	bf00      	nop
 8005218:	08005531 	.word	0x08005531
 800521c:	08005553 	.word	0x08005553
 8005220:	0800558b 	.word	0x0800558b
 8005224:	080055af 	.word	0x080055af

08005228 <_cleanup_r>:
 8005228:	4901      	ldr	r1, [pc, #4]	; (8005230 <_cleanup_r+0x8>)
 800522a:	f000 b8af 	b.w	800538c <_fwalk_reent>
 800522e:	bf00      	nop
 8005230:	08005169 	.word	0x08005169

08005234 <__sfmoreglue>:
 8005234:	b570      	push	{r4, r5, r6, lr}
 8005236:	1e4a      	subs	r2, r1, #1
 8005238:	2568      	movs	r5, #104	; 0x68
 800523a:	4355      	muls	r5, r2
 800523c:	460e      	mov	r6, r1
 800523e:	f105 0174 	add.w	r1, r5, #116	; 0x74
 8005242:	f7ff fa87 	bl	8004754 <_malloc_r>
 8005246:	4604      	mov	r4, r0
 8005248:	b140      	cbz	r0, 800525c <__sfmoreglue+0x28>
 800524a:	2100      	movs	r1, #0
 800524c:	e9c0 1600 	strd	r1, r6, [r0]
 8005250:	300c      	adds	r0, #12
 8005252:	60a0      	str	r0, [r4, #8]
 8005254:	f105 0268 	add.w	r2, r5, #104	; 0x68
 8005258:	f7fd fb88 	bl	800296c <memset>
 800525c:	4620      	mov	r0, r4
 800525e:	bd70      	pop	{r4, r5, r6, pc}

08005260 <__sfp_lock_acquire>:
 8005260:	4801      	ldr	r0, [pc, #4]	; (8005268 <__sfp_lock_acquire+0x8>)
 8005262:	f000 b8b3 	b.w	80053cc <__retarget_lock_acquire_recursive>
 8005266:	bf00      	nop
 8005268:	20000320 	.word	0x20000320

0800526c <__sfp_lock_release>:
 800526c:	4801      	ldr	r0, [pc, #4]	; (8005274 <__sfp_lock_release+0x8>)
 800526e:	f000 b8ae 	b.w	80053ce <__retarget_lock_release_recursive>
 8005272:	bf00      	nop
 8005274:	20000320 	.word	0x20000320

08005278 <__sinit_lock_acquire>:
 8005278:	4801      	ldr	r0, [pc, #4]	; (8005280 <__sinit_lock_acquire+0x8>)
 800527a:	f000 b8a7 	b.w	80053cc <__retarget_lock_acquire_recursive>
 800527e:	bf00      	nop
 8005280:	2000031b 	.word	0x2000031b

08005284 <__sinit_lock_release>:
 8005284:	4801      	ldr	r0, [pc, #4]	; (800528c <__sinit_lock_release+0x8>)
 8005286:	f000 b8a2 	b.w	80053ce <__retarget_lock_release_recursive>
 800528a:	bf00      	nop
 800528c:	2000031b 	.word	0x2000031b

08005290 <__sinit>:
 8005290:	b510      	push	{r4, lr}
 8005292:	4604      	mov	r4, r0
 8005294:	f7ff fff0 	bl	8005278 <__sinit_lock_acquire>
 8005298:	69a3      	ldr	r3, [r4, #24]
 800529a:	b11b      	cbz	r3, 80052a4 <__sinit+0x14>
 800529c:	e8bd 4010 	ldmia.w	sp!, {r4, lr}
 80052a0:	f7ff bff0 	b.w	8005284 <__sinit_lock_release>
 80052a4:	e9c4 3312 	strd	r3, r3, [r4, #72]	; 0x48
 80052a8:	6523      	str	r3, [r4, #80]	; 0x50
 80052aa:	4b13      	ldr	r3, [pc, #76]	; (80052f8 <__sinit+0x68>)
 80052ac:	4a13      	ldr	r2, [pc, #76]	; (80052fc <__sinit+0x6c>)
 80052ae:	681b      	ldr	r3, [r3, #0]
 80052b0:	62a2      	str	r2, [r4, #40]	; 0x28
 80052b2:	42a3      	cmp	r3, r4
 80052b4:	bf04      	itt	eq
 80052b6:	2301      	moveq	r3, #1
 80052b8:	61a3      	streq	r3, [r4, #24]
 80052ba:	4620      	mov	r0, r4
 80052bc:	f000 f820 	bl	8005300 <__sfp>
 80052c0:	6060      	str	r0, [r4, #4]
 80052c2:	4620      	mov	r0, r4
 80052c4:	f000 f81c 	bl	8005300 <__sfp>
 80052c8:	60a0      	str	r0, [r4, #8]
 80052ca:	4620      	mov	r0, r4
 80052cc:	f000 f818 	bl	8005300 <__sfp>
 80052d0:	2200      	movs	r2, #0
 80052d2:	60e0      	str	r0, [r4, #12]
 80052d4:	2104      	movs	r1, #4
 80052d6:	6860      	ldr	r0, [r4, #4]
 80052d8:	f7ff ff82 	bl	80051e0 <std>
 80052dc:	68a0      	ldr	r0, [r4, #8]
 80052de:	2201      	movs	r2, #1
 80052e0:	2109      	movs	r1, #9
 80052e2:	f7ff ff7d 	bl	80051e0 <std>
 80052e6:	68e0      	ldr	r0, [r4, #12]
 80052e8:	2202      	movs	r2, #2
 80052ea:	2112      	movs	r1, #18
 80052ec:	f7ff ff78 	bl	80051e0 <std>
 80052f0:	2301      	movs	r3, #1
 80052f2:	61a3      	str	r3, [r4, #24]
 80052f4:	e7d2      	b.n	800529c <__sinit+0xc>
 80052f6:	bf00      	nop
 80052f8:	08005718 	.word	0x08005718
 80052fc:	08005229 	.word	0x08005229

08005300 <__sfp>:
 8005300:	b5f8      	push	{r3, r4, r5, r6, r7, lr}
 8005302:	4607      	mov	r7, r0
 8005304:	f7ff ffac 	bl	8005260 <__sfp_lock_acquire>
 8005308:	4b1e      	ldr	r3, [pc, #120]	; (8005384 <__sfp+0x84>)
 800530a:	681e      	ldr	r6, [r3, #0]
 800530c:	69b3      	ldr	r3, [r6, #24]
 800530e:	b913      	cbnz	r3, 8005316 <__sfp+0x16>
 8005310:	4630      	mov	r0, r6
 8005312:	f7ff ffbd 	bl	8005290 <__sinit>
 8005316:	3648      	adds	r6, #72	; 0x48
 8005318:	e9d6 3401 	ldrd	r3, r4, [r6, #4]
 800531c:	3b01      	subs	r3, #1
 800531e:	d503      	bpl.n	8005328 <__sfp+0x28>
 8005320:	6833      	ldr	r3, [r6, #0]
 8005322:	b30b      	cbz	r3, 8005368 <__sfp+0x68>
 8005324:	6836      	ldr	r6, [r6, #0]
 8005326:	e7f7      	b.n	8005318 <__sfp+0x18>
 8005328:	f9b4 500c 	ldrsh.w	r5, [r4, #12]
 800532c:	b9d5      	cbnz	r5, 8005364 <__sfp+0x64>
 800532e:	4b16      	ldr	r3, [pc, #88]	; (8005388 <__sfp+0x88>)
 8005330:	60e3      	str	r3, [r4, #12]
 8005332:	f104 0058 	add.w	r0, r4, #88	; 0x58
 8005336:	6665      	str	r5, [r4, #100]	; 0x64
 8005338:	f000 f847 	bl	80053ca <__retarget_lock_init_recursive>
 800533c:	f7ff ff96 	bl	800526c <__sfp_lock_release>
 8005340:	e9c4 5501 	strd	r5, r5, [r4, #4]
 8005344:	e9c4 5504 	strd	r5, r5, [r4, #16]
 8005348:	6025      	str	r5, [r4, #0]
 800534a:	61a5      	str	r5, [r4, #24]
 800534c:	2208      	movs	r2, #8
 800534e:	4629      	mov	r1, r5
 8005350:	f104 005c 	add.w	r0, r4, #92	; 0x5c
 8005354:	f7fd fb0a 	bl	800296c <memset>
 8005358:	e9c4 550d 	strd	r5, r5, [r4, #52]	; 0x34
 800535c:	e9c4 5512 	strd	r5, r5, [r4, #72]	; 0x48
 8005360:	4620      	mov	r0, r4
 8005362:	bdf8      	pop	{r3, r4, r5, r6, r7, pc}
 8005364:	3468      	adds	r4, #104	; 0x68
 8005366:	e7d9      	b.n	800531c <__sfp+0x1c>
 8005368:	2104      	movs	r1, #4
 800536a:	4638      	mov	r0, r7
 800536c:	f7ff ff62 	bl	8005234 <__sfmoreglue>
 8005370:	4604      	mov	r4, r0
 8005372:	6030      	str	r0, [r6, #0]
 8005374:	2800      	cmp	r0, #0
 8005376:	d1d5      	bne.n	8005324 <__sfp+0x24>
 8005378:	f7ff ff78 	bl	800526c <__sfp_lock_release>
 800537c:	230c      	movs	r3, #12
 800537e:	603b      	str	r3, [r7, #0]
 8005380:	e7ee      	b.n	8005360 <__sfp+0x60>
 8005382:	bf00      	nop
 8005384:	08005718 	.word	0x08005718
 8005388:	ffff0001 	.word	0xffff0001

0800538c <_fwalk_reent>:
 800538c:	e92d 43f8 	stmdb	sp!, {r3, r4, r5, r6, r7, r8, r9, lr}
 8005390:	4606      	mov	r6, r0
 8005392:	4688      	mov	r8, r1
 8005394:	f100 0448 	add.w	r4, r0, #72	; 0x48
 8005398:	2700      	movs	r7, #0
 800539a:	e9d4 9501 	ldrd	r9, r5, [r4, #4]
 800539e:	f1b9 0901 	subs.w	r9, r9, #1
 80053a2:	d505      	bpl.n	80053b0 <_fwalk_reent+0x24>
 80053a4:	6824      	ldr	r4, [r4, #0]
 80053a6:	2c00      	cmp	r4, #0
 80053a8:	d1f7      	bne.n	800539a <_fwalk_reent+0xe>
 80053aa:	4638      	mov	r0, r7
 80053ac:	e8bd 83f8 	ldmia.w	sp!, {r3, r4, r5, r6, r7, r8, r9, pc}
 80053b0:	89ab      	ldrh	r3, [r5, #12]
 80053b2:	2b01      	cmp	r3, #1
 80053b4:	d907      	bls.n	80053c6 <_fwalk_reent+0x3a>
 80053b6:	f9b5 300e 	ldrsh.w	r3, [r5, #14]
 80053ba:	3301      	adds	r3, #1
 80053bc:	d003      	beq.n	80053c6 <_fwalk_reent+0x3a>
 80053be:	4629      	mov	r1, r5
 80053c0:	4630      	mov	r0, r6
 80053c2:	47c0      	blx	r8
 80053c4:	4307      	orrs	r7, r0
 80053c6:	3568      	adds	r5, #104	; 0x68
 80053c8:	e7e9      	b.n	800539e <_fwalk_reent+0x12>

080053ca <__retarget_lock_init_recursive>:
 80053ca:	4770      	bx	lr

080053cc <__retarget_lock_acquire_recursive>:
 80053cc:	4770      	bx	lr

080053ce <__retarget_lock_release_recursive>:
 80053ce:	4770      	bx	lr

080053d0 <__swhatbuf_r>:
 80053d0:	b570      	push	{r4, r5, r6, lr}
 80053d2:	460e      	mov	r6, r1
 80053d4:	f9b1 100e 	ldrsh.w	r1, [r1, #14]
 80053d8:	2900      	cmp	r1, #0
 80053da:	b096      	sub	sp, #88	; 0x58
 80053dc:	4614      	mov	r4, r2
 80053de:	461d      	mov	r5, r3
 80053e0:	da07      	bge.n	80053f2 <__swhatbuf_r+0x22>
 80053e2:	2300      	movs	r3, #0
 80053e4:	602b      	str	r3, [r5, #0]
 80053e6:	89b3      	ldrh	r3, [r6, #12]
 80053e8:	061a      	lsls	r2, r3, #24
 80053ea:	d410      	bmi.n	800540e <__swhatbuf_r+0x3e>
 80053ec:	f44f 6380 	mov.w	r3, #1024	; 0x400
 80053f0:	e00e      	b.n	8005410 <__swhatbuf_r+0x40>
 80053f2:	466a      	mov	r2, sp
 80053f4:	f000 f902 	bl	80055fc <_fstat_r>
 80053f8:	2800      	cmp	r0, #0
 80053fa:	dbf2      	blt.n	80053e2 <__swhatbuf_r+0x12>
 80053fc:	9a01      	ldr	r2, [sp, #4]
 80053fe:	f402 4270 	and.w	r2, r2, #61440	; 0xf000
 8005402:	f5a2 5300 	sub.w	r3, r2, #8192	; 0x2000
 8005406:	425a      	negs	r2, r3
 8005408:	415a      	adcs	r2, r3
 800540a:	602a      	str	r2, [r5, #0]
 800540c:	e7ee      	b.n	80053ec <__swhatbuf_r+0x1c>
 800540e:	2340      	movs	r3, #64	; 0x40
 8005410:	2000      	movs	r0, #0
 8005412:	6023      	str	r3, [r4, #0]
 8005414:	b016      	add	sp, #88	; 0x58
 8005416:	bd70      	pop	{r4, r5, r6, pc}

08005418 <__smakebuf_r>:
 8005418:	898b      	ldrh	r3, [r1, #12]
 800541a:	b573      	push	{r0, r1, r4, r5, r6, lr}
 800541c:	079d      	lsls	r5, r3, #30
 800541e:	4606      	mov	r6, r0
 8005420:	460c      	mov	r4, r1
 8005422:	d507      	bpl.n	8005434 <__smakebuf_r+0x1c>
 8005424:	f104 0347 	add.w	r3, r4, #71	; 0x47
 8005428:	6023      	str	r3, [r4, #0]
 800542a:	6123      	str	r3, [r4, #16]
 800542c:	2301      	movs	r3, #1
 800542e:	6163      	str	r3, [r4, #20]
 8005430:	b002      	add	sp, #8
 8005432:	bd70      	pop	{r4, r5, r6, pc}
 8005434:	ab01      	add	r3, sp, #4
 8005436:	466a      	mov	r2, sp
 8005438:	f7ff ffca 	bl	80053d0 <__swhatbuf_r>
 800543c:	9900      	ldr	r1, [sp, #0]
 800543e:	4605      	mov	r5, r0
 8005440:	4630      	mov	r0, r6
 8005442:	f7ff f987 	bl	8004754 <_malloc_r>
 8005446:	b948      	cbnz	r0, 800545c <__smakebuf_r+0x44>
 8005448:	f9b4 300c 	ldrsh.w	r3, [r4, #12]
 800544c:	059a      	lsls	r2, r3, #22
 800544e:	d4ef      	bmi.n	8005430 <__smakebuf_r+0x18>
 8005450:	f023 0303 	bic.w	r3, r3, #3
 8005454:	f043 0302 	orr.w	r3, r3, #2
 8005458:	81a3      	strh	r3, [r4, #12]
 800545a:	e7e3      	b.n	8005424 <__smakebuf_r+0xc>
 800545c:	4b0d      	ldr	r3, [pc, #52]	; (8005494 <__smakebuf_r+0x7c>)
 800545e:	62b3      	str	r3, [r6, #40]	; 0x28
 8005460:	89a3      	ldrh	r3, [r4, #12]
 8005462:	6020      	str	r0, [r4, #0]
 8005464:	f043 0380 	orr.w	r3, r3, #128	; 0x80
 8005468:	81a3      	strh	r3, [r4, #12]
 800546a:	9b00      	ldr	r3, [sp, #0]
 800546c:	6163      	str	r3, [r4, #20]
 800546e:	9b01      	ldr	r3, [sp, #4]
 8005470:	6120      	str	r0, [r4, #16]
 8005472:	b15b      	cbz	r3, 800548c <__smakebuf_r+0x74>
 8005474:	f9b4 100e 	ldrsh.w	r1, [r4, #14]
 8005478:	4630      	mov	r0, r6
 800547a:	f000 f8d1 	bl	8005620 <_isatty_r>
 800547e:	b128      	cbz	r0, 800548c <__smakebuf_r+0x74>
 8005480:	89a3      	ldrh	r3, [r4, #12]
 8005482:	f023 0303 	bic.w	r3, r3, #3
 8005486:	f043 0301 	orr.w	r3, r3, #1
 800548a:	81a3      	strh	r3, [r4, #12]
 800548c:	89a0      	ldrh	r0, [r4, #12]
 800548e:	4305      	orrs	r5, r0
 8005490:	81a5      	strh	r5, [r4, #12]
 8005492:	e7cd      	b.n	8005430 <__smakebuf_r+0x18>
 8005494:	08005229 	.word	0x08005229

08005498 <_malloc_usable_size_r>:
 8005498:	f851 3c04 	ldr.w	r3, [r1, #-4]
 800549c:	1f18      	subs	r0, r3, #4
 800549e:	2b00      	cmp	r3, #0
 80054a0:	bfbc      	itt	lt
 80054a2:	580b      	ldrlt	r3, [r1, r0]
 80054a4:	18c0      	addlt	r0, r0, r3
 80054a6:	4770      	bx	lr

080054a8 <_raise_r>:
 80054a8:	291f      	cmp	r1, #31
 80054aa:	b538      	push	{r3, r4, r5, lr}
 80054ac:	4604      	mov	r4, r0
 80054ae:	460d      	mov	r5, r1
 80054b0:	d904      	bls.n	80054bc <_raise_r+0x14>
 80054b2:	2316      	movs	r3, #22
 80054b4:	6003      	str	r3, [r0, #0]
 80054b6:	f04f 30ff 	mov.w	r0, #4294967295
 80054ba:	bd38      	pop	{r3, r4, r5, pc}
 80054bc:	6c42      	ldr	r2, [r0, #68]	; 0x44
 80054be:	b112      	cbz	r2, 80054c6 <_raise_r+0x1e>
 80054c0:	f852 3021 	ldr.w	r3, [r2, r1, lsl #2]
 80054c4:	b94b      	cbnz	r3, 80054da <_raise_r+0x32>
 80054c6:	4620      	mov	r0, r4
 80054c8:	f000 f830 	bl	800552c <_getpid_r>
 80054cc:	462a      	mov	r2, r5
 80054ce:	4601      	mov	r1, r0
 80054d0:	4620      	mov	r0, r4
 80054d2:	e8bd 4038 	ldmia.w	sp!, {r3, r4, r5, lr}
 80054d6:	f000 b817 	b.w	8005508 <_kill_r>
 80054da:	2b01      	cmp	r3, #1
 80054dc:	d00a      	beq.n	80054f4 <_raise_r+0x4c>
 80054de:	1c59      	adds	r1, r3, #1
 80054e0:	d103      	bne.n	80054ea <_raise_r+0x42>
 80054e2:	2316      	movs	r3, #22
 80054e4:	6003      	str	r3, [r0, #0]
 80054e6:	2001      	movs	r0, #1
 80054e8:	e7e7      	b.n	80054ba <_raise_r+0x12>
 80054ea:	2400      	movs	r4, #0
 80054ec:	f842 4025 	str.w	r4, [r2, r5, lsl #2]
 80054f0:	4628      	mov	r0, r5
 80054f2:	4798      	blx	r3
 80054f4:	2000      	movs	r0, #0
 80054f6:	e7e0      	b.n	80054ba <_raise_r+0x12>

080054f8 <raise>:
 80054f8:	4b02      	ldr	r3, [pc, #8]	; (8005504 <raise+0xc>)
 80054fa:	4601      	mov	r1, r0
 80054fc:	6818      	ldr	r0, [r3, #0]
 80054fe:	f7ff bfd3 	b.w	80054a8 <_raise_r>
 8005502:	bf00      	nop
 8005504:	20000004 	.word	0x20000004

08005508 <_kill_r>:
 8005508:	b538      	push	{r3, r4, r5, lr}
 800550a:	4d07      	ldr	r5, [pc, #28]	; (8005528 <_kill_r+0x20>)
 800550c:	2300      	movs	r3, #0
 800550e:	4604      	mov	r4, r0
 8005510:	4608      	mov	r0, r1
 8005512:	4611      	mov	r1, r2
 8005514:	602b      	str	r3, [r5, #0]
 8005516:	f7fc fbd9 	bl	8001ccc <_kill>
 800551a:	1c43      	adds	r3, r0, #1
 800551c:	d102      	bne.n	8005524 <_kill_r+0x1c>
 800551e:	682b      	ldr	r3, [r5, #0]
 8005520:	b103      	cbz	r3, 8005524 <_kill_r+0x1c>
 8005522:	6023      	str	r3, [r4, #0]
 8005524:	bd38      	pop	{r3, r4, r5, pc}
 8005526:	bf00      	nop
 8005528:	20000314 	.word	0x20000314

0800552c <_getpid_r>:
 800552c:	f7fc bbc6 	b.w	8001cbc <_getpid>

08005530 <__sread>:
 8005530:	b510      	push	{r4, lr}
 8005532:	460c      	mov	r4, r1
 8005534:	f9b1 100e 	ldrsh.w	r1, [r1, #14]
 8005538:	f000 f894 	bl	8005664 <_read_r>
 800553c:	2800      	cmp	r0, #0
 800553e:	bfab      	itete	ge
 8005540:	6d63      	ldrge	r3, [r4, #84]	; 0x54
 8005542:	89a3      	ldrhlt	r3, [r4, #12]
 8005544:	181b      	addge	r3, r3, r0
 8005546:	f423 5380 	biclt.w	r3, r3, #4096	; 0x1000
 800554a:	bfac      	ite	ge
 800554c:	6563      	strge	r3, [r4, #84]	; 0x54
 800554e:	81a3      	strhlt	r3, [r4, #12]
 8005550:	bd10      	pop	{r4, pc}

08005552 <__swrite>:
 8005552:	e92d 41f0 	stmdb	sp!, {r4, r5, r6, r7, r8, lr}
 8005556:	461f      	mov	r7, r3
 8005558:	898b      	ldrh	r3, [r1, #12]
 800555a:	05db      	lsls	r3, r3, #23
 800555c:	4605      	mov	r5, r0
 800555e:	460c      	mov	r4, r1
 8005560:	4616      	mov	r6, r2
 8005562:	d505      	bpl.n	8005570 <__swrite+0x1e>
 8005564:	f9b1 100e 	ldrsh.w	r1, [r1, #14]
 8005568:	2302      	movs	r3, #2
 800556a:	2200      	movs	r2, #0
 800556c:	f000 f868 	bl	8005640 <_lseek_r>
 8005570:	89a3      	ldrh	r3, [r4, #12]
 8005572:	f9b4 100e 	ldrsh.w	r1, [r4, #14]
 8005576:	f423 5380 	bic.w	r3, r3, #4096	; 0x1000
 800557a:	81a3      	strh	r3, [r4, #12]
 800557c:	4632      	mov	r2, r6
 800557e:	463b      	mov	r3, r7
 8005580:	4628      	mov	r0, r5
 8005582:	e8bd 41f0 	ldmia.w	sp!, {r4, r5, r6, r7, r8, lr}
 8005586:	f000 b817 	b.w	80055b8 <_write_r>

0800558a <__sseek>:
 800558a:	b510      	push	{r4, lr}
 800558c:	460c      	mov	r4, r1
 800558e:	f9b1 100e 	ldrsh.w	r1, [r1, #14]
 8005592:	f000 f855 	bl	8005640 <_lseek_r>
 8005596:	1c43      	adds	r3, r0, #1
 8005598:	89a3      	ldrh	r3, [r4, #12]
 800559a:	bf15      	itete	ne
 800559c:	6560      	strne	r0, [r4, #84]	; 0x54
 800559e:	f423 5380 	biceq.w	r3, r3, #4096	; 0x1000
 80055a2:	f443 5380 	orrne.w	r3, r3, #4096	; 0x1000
 80055a6:	81a3      	strheq	r3, [r4, #12]
 80055a8:	bf18      	it	ne
 80055aa:	81a3      	strhne	r3, [r4, #12]
 80055ac:	bd10      	pop	{r4, pc}

080055ae <__sclose>:
 80055ae:	f9b1 100e 	ldrsh.w	r1, [r1, #14]
 80055b2:	f000 b813 	b.w	80055dc <_close_r>
	...

080055b8 <_write_r>:
 80055b8:	b538      	push	{r3, r4, r5, lr}
 80055ba:	4d07      	ldr	r5, [pc, #28]	; (80055d8 <_write_r+0x20>)
 80055bc:	4604      	mov	r4, r0
 80055be:	4608      	mov	r0, r1
 80055c0:	4611      	mov	r1, r2
 80055c2:	2200      	movs	r2, #0
 80055c4:	602a      	str	r2, [r5, #0]
 80055c6:	461a      	mov	r2, r3
 80055c8:	f7fc fbb7 	bl	8001d3a <_write>
 80055cc:	1c43      	adds	r3, r0, #1
 80055ce:	d102      	bne.n	80055d6 <_write_r+0x1e>
 80055d0:	682b      	ldr	r3, [r5, #0]
 80055d2:	b103      	cbz	r3, 80055d6 <_write_r+0x1e>
 80055d4:	6023      	str	r3, [r4, #0]
 80055d6:	bd38      	pop	{r3, r4, r5, pc}
 80055d8:	20000314 	.word	0x20000314

080055dc <_close_r>:
 80055dc:	b538      	push	{r3, r4, r5, lr}
 80055de:	4d06      	ldr	r5, [pc, #24]	; (80055f8 <_close_r+0x1c>)
 80055e0:	2300      	movs	r3, #0
 80055e2:	4604      	mov	r4, r0
 80055e4:	4608      	mov	r0, r1
 80055e6:	602b      	str	r3, [r5, #0]
 80055e8:	f7fc fbc3 	bl	8001d72 <_close>
 80055ec:	1c43      	adds	r3, r0, #1
 80055ee:	d102      	bne.n	80055f6 <_close_r+0x1a>
 80055f0:	682b      	ldr	r3, [r5, #0]
 80055f2:	b103      	cbz	r3, 80055f6 <_close_r+0x1a>
 80055f4:	6023      	str	r3, [r4, #0]
 80055f6:	bd38      	pop	{r3, r4, r5, pc}
 80055f8:	20000314 	.word	0x20000314

080055fc <_fstat_r>:
 80055fc:	b538      	push	{r3, r4, r5, lr}
 80055fe:	4d07      	ldr	r5, [pc, #28]	; (800561c <_fstat_r+0x20>)
 8005600:	2300      	movs	r3, #0
 8005602:	4604      	mov	r4, r0
 8005604:	4608      	mov	r0, r1
 8005606:	4611      	mov	r1, r2
 8005608:	602b      	str	r3, [r5, #0]
 800560a:	f7fc fbbe 	bl	8001d8a <_fstat>
 800560e:	1c43      	adds	r3, r0, #1
 8005610:	d102      	bne.n	8005618 <_fstat_r+0x1c>
 8005612:	682b      	ldr	r3, [r5, #0]
 8005614:	b103      	cbz	r3, 8005618 <_fstat_r+0x1c>
 8005616:	6023      	str	r3, [r4, #0]
 8005618:	bd38      	pop	{r3, r4, r5, pc}
 800561a:	bf00      	nop
 800561c:	20000314 	.word	0x20000314

08005620 <_isatty_r>:
 8005620:	b538      	push	{r3, r4, r5, lr}
 8005622:	4d06      	ldr	r5, [pc, #24]	; (800563c <_isatty_r+0x1c>)
 8005624:	2300      	movs	r3, #0
 8005626:	4604      	mov	r4, r0
 8005628:	4608      	mov	r0, r1
 800562a:	602b      	str	r3, [r5, #0]
 800562c:	f7fc fbbd 	bl	8001daa <_isatty>
 8005630:	1c43      	adds	r3, r0, #1
 8005632:	d102      	bne.n	800563a <_isatty_r+0x1a>
 8005634:	682b      	ldr	r3, [r5, #0]
 8005636:	b103      	cbz	r3, 800563a <_isatty_r+0x1a>
 8005638:	6023      	str	r3, [r4, #0]
 800563a:	bd38      	pop	{r3, r4, r5, pc}
 800563c:	20000314 	.word	0x20000314

08005640 <_lseek_r>:
 8005640:	b538      	push	{r3, r4, r5, lr}
 8005642:	4d07      	ldr	r5, [pc, #28]	; (8005660 <_lseek_r+0x20>)
 8005644:	4604      	mov	r4, r0
 8005646:	4608      	mov	r0, r1
 8005648:	4611      	mov	r1, r2
 800564a:	2200      	movs	r2, #0
 800564c:	602a      	str	r2, [r5, #0]
 800564e:	461a      	mov	r2, r3
 8005650:	f7fc fbb6 	bl	8001dc0 <_lseek>
 8005654:	1c43      	adds	r3, r0, #1
 8005656:	d102      	bne.n	800565e <_lseek_r+0x1e>
 8005658:	682b      	ldr	r3, [r5, #0]
 800565a:	b103      	cbz	r3, 800565e <_lseek_r+0x1e>
 800565c:	6023      	str	r3, [r4, #0]
 800565e:	bd38      	pop	{r3, r4, r5, pc}
 8005660:	20000314 	.word	0x20000314

08005664 <_read_r>:
 8005664:	b538      	push	{r3, r4, r5, lr}
 8005666:	4d07      	ldr	r5, [pc, #28]	; (8005684 <_read_r+0x20>)
 8005668:	4604      	mov	r4, r0
 800566a:	4608      	mov	r0, r1
 800566c:	4611      	mov	r1, r2
 800566e:	2200      	movs	r2, #0
 8005670:	602a      	str	r2, [r5, #0]
 8005672:	461a      	mov	r2, r3
 8005674:	f7fc fb44 	bl	8001d00 <_read>
 8005678:	1c43      	adds	r3, r0, #1
 800567a:	d102      	bne.n	8005682 <_read_r+0x1e>
 800567c:	682b      	ldr	r3, [r5, #0]
 800567e:	b103      	cbz	r3, 8005682 <_read_r+0x1e>
 8005680:	6023      	str	r3, [r4, #0]
 8005682:	bd38      	pop	{r3, r4, r5, pc}
 8005684:	20000314 	.word	0x20000314

08005688 <_init>:
 8005688:	b5f8      	push	{r3, r4, r5, r6, r7, lr}
 800568a:	bf00      	nop
 800568c:	bcf8      	pop	{r3, r4, r5, r6, r7}
 800568e:	bc08      	pop	{r3}
 8005690:	469e      	mov	lr, r3
 8005692:	4770      	bx	lr

08005694 <_fini>:
 8005694:	b5f8      	push	{r3, r4, r5, r6, r7, lr}
 8005696:	bf00      	nop
 8005698:	bcf8      	pop	{r3, r4, r5, r6, r7}
 800569a:	bc08      	pop	{r3}
 800569c:	469e      	mov	lr, r3
 800569e:	4770      	bx	lr
